(dp1
S'A'
(lp2
(ibeta_strands
Comp
p3
(dp4
S'complementary_sequence'
p5
S'V'
sS'hb_pattern'
p6
((I0
I0
ttp7
sS'promiscuity_score'
p8
I101246
sS'enrichment_ratio'
p9
F1.2862662943249934
sS'count_score'
p10
I9247
sS'enrichment_p'
p11
cnumpy.core.multiarray
scalar
p12
(cnumpy
dtype
p13
(S'f8'
I0
I1
tRp14
(I3
S'<'
NNNI-1
I-1
I0
tbS'q\xccz\x03\xbf\xe4\xec\x1e'
tRp15
sba(ibeta_strands
Comp
p16
(dp17
g5
S'L'
sg6
((NNttp18
sg8
I75239
sg9
F1.464963860158323
sg10
I7417
sg11
g12
(g14
S'\x00?H\xb1zy\xdd\x04'
tRp19
sba(ibeta_strands
Comp
p20
(dp21
g5
S'V'
sg6
((NNttp22
sg8
I94417
sg9
F1.1712150086546163
sg10
I7297
sg11
g12
(g14
S'\xacZ\xb8\xeaZ\xe0\x995'
tRp23
sba(ibeta_strands
Comp
p24
(dp25
g5
S'L'
sg6
((I0
I0
ttp26
sg8
I79222
sg9
F1.153434509129017
sg10
I6427
sg11
g12
(g14
S'\xd0\xd2\xda\nz\x1b\xa68'
tRp27
sba(ibeta_strands
Comp
p28
(dp29
g5
S'I'
sg6
((NNttp30
sg8
I66031
sg9
F1.2664403163045514
sg10
I5553
sg11
g12
(g14
S'\xaa\x89\\\x19\x03\x0e6/'
tRp31
sba(ibeta_strands
Comp
p32
(dp33
g5
S'I'
sg6
((I0
I0
ttp34
sg8
I69456
sg9
F1.0936237199059968
sg10
I5319
sg11
g12
(g14
S'\x11\x06\x85\x19\xbd\xeb{='
tRp35
sba(ibeta_strands
Comp
p36
(dp37
g5
S'A'
sg6
((I0
I0
ttp38
sg8
I50417
sg9
F1.1836521033211802
sg10
I4205
sg11
g12
(g14
S'q<q\xca\xa2%\x859'
tRp39
sba(ibeta_strands
Comp
p40
(dp41
g5
S'F'
sg6
((NNttp42
sg8
I40478
sg9
F1.2941615071771135
sg10
I3485
sg11
g12
(g14
S'\xaa-R(u\x9d\xd23'
tRp43
sba(ibeta_strands
Comp
p44
(dp45
g5
S'Y'
sg6
((I0
I0
ttp46
sg8
I47256
sg9
F0.99923916527922496
sg10
I3292
sg11
g12
(g14
S'\x0crU\x9eI\x0c\xef?'
tRp47
sba(ibeta_strands
Comp
p48
(dp49
g5
S'F'
sg6
((I0
I0
ttp50
sg8
I48981
sg9
F0.96237639101308825
sg10
I3278
sg11
g12
(g14
S'Mk\xc43\xce\xf6\x93?'
tRp51
sba(ibeta_strands
Comp
p52
(dp53
g5
S'A'
sg6
((NNttp54
sg8
I44847
sg9
F1.1047420257585661
sg10
I3255
sg11
g12
(g14
S'Z\x08\xdc\x84\x19i\x19>'
tRp55
sba(ibeta_strands
Comp
p56
(dp57
g5
S'T'
sg6
((I0
I0
ttp58
sg8
I52212
sg9
F0.86189691521868628
sg10
I3103
sg11
g12
(g14
S'\x9c\xcf\xe5\x8a\xd3,.<'
tRp59
sba(ibeta_strands
Comp
p60
(dp61
g5
S'Y'
sg6
((NNttp62
sg8
I40577
sg9
F1.1288063202919369
sg10
I3014
sg11
g12
(g14
S'L\x84Z\x05_\xac}='
tRp63
sba(ibeta_strands
Comp
p64
(dp65
g5
S'T'
sg6
((NNttp66
sg8
I55522
sg9
F0.83425585214751985
sg10
I2990
sg11
g12
(g14
S'\xdeX1\xd8\xc8\xf4\x98:'
tRp67
sba(ibeta_strands
Comp
p68
(dp69
g5
S'G'
sg6
((I0
I0
ttp70
sg8
I42281
sg9
F1.0006438012840662
sg10
I2946
sg11
g12
(g14
S'\x02\xdd\x8f\xbaMM\xef?'
tRp71
sba(ibeta_strands
Comp
p72
(dp73
g5
S'S'
sg6
((I0
I0
ttp74
sg8
I44559
sg9
F0.77595825818294628
sg10
I2373
sg11
g12
(g14
S' \x1f\xa2Z\x84\xc0\xd97'
tRp75
sba(ibeta_strands
Comp
p76
(dp77
g5
S'R'
sg6
((I0
I0
ttp78
sg8
I39268
sg9
F0.80892037353951274
sg10
I2180
sg11
g12
(g14
S'\x81NU\xab\x8f\xd6\xb7:'
tRp79
sba(ibeta_strands
Comp
p80
(dp81
g5
S'G'
sg6
((NNttp82
sg8
I26688
sg9
F1.1057959311050947
sg10
I1939
sg11
g12
(g14
S')\xca\xeb\rws\xcc>'
tRp83
sba(ibeta_strands
Comp
p84
(dp85
g5
S'S'
sg6
((NNttp86
sg8
I40632
sg9
F0.70727470653397972
sg10
I1840
sg11
g12
(g14
S'd\xec\xa2G7z\\4'
tRp87
sba(ibeta_strands
Comp
p88
(dp89
g5
S'K'
sg6
((I0
I0
ttp90
sg8
I39916
sg9
F0.66582335015669203
sg10
I1806
sg11
g12
(g14
S'#5\xd4`s\xc6L0'
tRp91
sba(ibeta_strands
Comp
p92
(dp93
g5
S'E'
sg6
((I0
I0
ttp94
sg8
I38616
sg9
F0.66409216282633576
sg10
I1743
sg11
g12
(g14
S'C\xfeI\xcb\xe8\x0e\xab0'
tRp95
sba(ibeta_strands
Comp
p96
(dp97
g5
S'Q'
sg6
((I0
I0
ttp98
sg8
I26427
sg9
F0.8402180348922027
sg10
I1527
sg11
g12
(g14
S'X\xcc>C\xe8\x0fn='
tRp99
sba(ibeta_strands
Comp
p100
(dp101
g5
S'C'
sg6
((I0
I0
ttp102
sg8
I15246
sg9
F1.3356558289675939
sg10
I1455
sg11
g12
(g14
S'I8\x8a\xd0\xba\x98\xab9'
tRp103
sba(ibeta_strands
Comp
p104
(dp105
g5
S'E'
sg6
((NNttp106
sg8
I36394
sg9
F0.62303441515338498
sg10
I1444
sg11
g12
(g14
S'\xb5A\xa9\xbb\xacN\x0c/'
tRp107
sba(ibeta_strands
Comp
p108
(dp109
g5
S'K'
sg6
((NNttp110
sg8
I35328
sg9
F0.64024271716049141
sg10
I1442
sg11
g12
(g14
S'^j\x06\x9a\xe2\xa9\xfb0'
tRp111
sba(ibeta_strands
Comp
p112
(dp113
g5
S'R'
sg6
((NNttp114
sg8
I35423
sg9
F0.63859283086915142
sg10
I1442
sg11
g12
(g14
S'\x15168T\x8c\xcf0'
tRp115
sba(ibeta_strands
Comp
p116
(dp117
g5
S'W'
sg6
((I0
I0
ttp118
sg8
I14945
sg9
F1.2235225769197153
sg10
I1295
sg11
g12
(g14
S'\xc1\xec\xca\xa1b\xb8#='
tRp119
sba(ibeta_strands
Comp
p120
(dp121
g5
S'D'
sg6
((I0
I0
ttp122
sg8
I22012
sg9
F0.83827955228287721
sg10
I1270
sg11
g12
(g14
S'u%\x91\x95\xc7q\xc8='
tRp123
sba(ibeta_strands
Comp
p124
(dp125
g5
S'H'
sg6
((I0
I0
ttp126
sg8
I18811
sg9
F0.93398060274195149
sg10
I1217
sg11
g12
(g14
S'\xab=\x9e\xd9\xe1\xe8\x8a?'
tRp127
sba(ibeta_strands
Comp
p128
(dp129
g5
S'W'
sg6
((NNttp130
sg8
I18142
sg9
F0.89881310343547471
sg10
I1057
sg11
g12
(g14
S'\n\x11\xaa\xa0\x0f\x024?'
tRp131
sba(ibeta_strands
Comp
p132
(dp133
g5
S'M'
sg6
((I0
I0
ttp134
sg8
I15342
sg9
F0.97389097304230088
sg10
I1038
sg11
g12
(g14
S'H\x96\x85,\x90r\xd8?'
tRp135
sba(ibeta_strands
Comp
p136
(dp137
g5
S'M'
sg6
((NNttp138
sg8
I14403
sg9
F1.0499894652337765
sg10
I990
sg11
g12
(g14
S'\x1d\xf6\xde\x0cZ\x08\xbd?'
tRp139
sba(ibeta_strands
Comp
p140
(dp141
g5
S'P'
sg6
((NNttp142
sg8
I19963
sg9
F0.74832184945581592
sg10
I959
sg11
g12
(g14
S'[\xbb\x83\xee\xd2@\xb7;'
tRp143
sba(ibeta_strands
Comp
p144
(dp145
g5
S'N'
sg6
((I0
I0
ttp146
sg8
I17900
sg9
F0.73607052057026068
sg10
I901
sg11
g12
(g14
S'\xdf\x13aAM\xd2\x83;'
tRp147
sba(ibeta_strands
Comp
p148
(dp149
g5
S'Q'
sg6
((NNttp150
sg8
I22749
sg9
F0.60800947379513948
sg10
I880
sg11
g12
(g14
S'\x90\xd6\x17W\x1bF\xac4'
tRp151
sba(ibeta_strands
Comp
p152
(dp153
g5
S'H'
sg6
((NNttp154
sg8
I14595
sg9
F0.91941834661089139
sg10
I871
sg11
g12
(g14
S'\xaa\x8bu|\x0c\xeb\x84?'
tRp155
sba(ibeta_strands
Comp
p156
(dp157
g5
S'N'
sg6
((NNttp158
sg8
I18392
sg9
F0.68459785171959919
sg10
I805
sg11
g12
(g14
S'\xcf\xbb$\x15\x14f\xf39'
tRp159
sba(ibeta_strands
Comp
p160
(dp161
g5
S'D'
sg6
((NNttp162
sg8
I19505
sg9
F0.589746976077693
sg10
I731
sg11
g12
(g14
S'\x12"\x87\x92\xdc\x17g5'
tRp163
sba(ibeta_strands
Comp
p164
(dp165
g5
S'C'
sg6
((NNttp166
sg8
I17874
sg9
F0.60765364913859143
sg10
I691
sg11
g12
(g14
S'\x9eBe\xa5\x93j\x157'
tRp167
sba(ibeta_strands
Comp
p168
(dp169
g5
S'V'
sg6
((I0
Nttp170
sg8
I3508
sg10
I211
sba(ibeta_strands
Comp
p171
(dp172
g5
S'I'
sg6
((I0
Nttp173
sg8
I2763
sg10
I198
sba(ibeta_strands
Comp
p174
(dp175
g5
S'V'
sg6
((NI0
ttp176
sg8
I2935
sg10
I159
sba(ibeta_strands
Comp
p177
(dp178
g5
S'L'
sg6
((NI0
ttp179
sg8
I2311
sg10
I139
sba(ibeta_strands
Comp
p180
(dp181
g5
S'L'
sg6
((I0
Nttp182
sg8
I2402
sg10
I104
sba(ibeta_strands
Comp
p183
(dp184
g5
S'I'
sg6
((NI0
ttp185
sg8
I1950
sg10
I76
sba(ibeta_strands
Comp
p186
(dp187
g5
S'F'
sg6
((I0
Nttp188
sg8
I863
sg10
I70
sba(ibeta_strands
Comp
p189
(dp190
g5
S'T'
sg6
((NI0
ttp191
sg8
I971
sg10
I65
sba(ibeta_strands
Comp
p192
(dp193
g5
S'F'
sg6
((NI0
ttp194
sg8
I1729
sg10
I61
sba(ibeta_strands
Comp
p195
(dp196
g5
S'Y'
sg6
((NI0
ttp197
sg8
I1871
sg10
I61
sba(ibeta_strands
Comp
p198
(dp199
g5
S'A'
sg6
((I0
Nttp200
sg8
I838
sg10
I50
sba(ibeta_strands
Comp
p201
(dp202
g5
S'A'
sg6
((NI0
ttp203
sg8
I1009
sg10
I50
sba(ibeta_strands
Comp
p204
(dp205
g5
S'E'
sg6
((I0
Nttp206
sg8
I718
sg10
I47
sba(ibeta_strands
Comp
p207
(dp208
g5
S'P'
sg6
((I0
Nttp209
sg8
I1209
sg10
I45
sba(ibeta_strands
Comp
p210
(dp211
g5
S'D'
sg6
((I0
Nttp212
sg8
I258
sg10
I44
sba(ibeta_strands
Comp
p213
(dp214
g5
S'S'
sg6
((NI0
ttp215
sg8
I759
sg10
I42
sba(ibeta_strands
Comp
p216
(dp217
g5
S'W'
sg6
((NI0
ttp218
sg8
I587
sg10
I40
sba(ibeta_strands
Comp
p219
(dp220
g5
S'T'
sg6
((I0
Nttp221
sg8
I877
sg10
I39
sba(ibeta_strands
Comp
p222
(dp223
g5
S'G'
sg6
((NI0
ttp224
sg8
I663
sg10
I38
sba(ibeta_strands
Comp
p225
(dp226
g5
S'Q'
sg6
((NI0
ttp227
sg8
I300
sg10
I35
sba(ibeta_strands
Comp
p228
(dp229
g5
S'W'
sg6
((I0
Nttp230
sg8
I432
sg10
I35
sba(ibeta_strands
Comp
p231
(dp232
g5
S'S'
sg6
((I0
Nttp233
sg8
I497
sg10
I32
sba(ibeta_strands
Comp
p234
(dp235
g5
S'Y'
sg6
((I0
Nttp236
sg8
I570
sg10
I31
sba(ibeta_strands
Comp
p237
(dp238
g5
S'H'
sg6
((I0
Nttp239
sg8
I299
sg10
I23
sba(ibeta_strands
Comp
p240
(dp241
g5
S'K'
sg6
((NI0
ttp242
sg8
I437
sg10
I23
sba(ibeta_strands
Comp
p243
(dp244
g5
S'N'
sg6
((I0
Nttp245
sg8
I254
sg10
I22
sba(ibeta_strands
Comp
p246
(dp247
g5
S'R'
sg6
((I0
Nttp248
sg8
I506
sg10
I22
sba(ibeta_strands
Comp
p249
(dp250
g5
S'G'
sg6
((I0
Nttp251
sg8
I275
sg10
I21
sba(ibeta_strands
Comp
p252
(dp253
g5
S'Q'
sg6
((I0
Nttp254
sg8
I413
sg10
I21
sba(ibeta_strands
Comp
p255
(dp256
g5
S'R'
sg6
((NI0
ttp257
sg8
I502
sg10
I19
sba(ibeta_strands
Comp
p258
(dp259
g5
S'C'
sg6
((NI0
ttp260
sg8
I408
sg10
I18
sba(ibeta_strands
Comp
p261
(dp262
g5
S'M'
sg6
((I0
Nttp263
sg8
I288
sg10
I16
sba(ibeta_strands
Comp
p264
(dp265
g5
S'M'
sg6
((NI0
ttp266
sg8
I362
sg10
I16
sba(ibeta_strands
Comp
p267
(dp268
g5
S'E'
sg6
((NI0
ttp269
sg8
I434
sg10
I16
sba(ibeta_strands
Comp
p270
(dp271
g5
S'K'
sg6
((I0
Nttp272
sg8
I676
sg10
I15
sba(ibeta_strands
Comp
p273
(dp274
g5
S'C'
sg6
((I0
Nttp275
sg8
I289
sg10
I13
sba(ibeta_strands
Comp
p276
(dp277
g5
S'H'
sg6
((NI0
ttp278
sg8
I260
sg10
I12
sba(ibeta_strands
Comp
p279
(dp280
g5
S'D'
sg6
((NI0
ttp281
sg8
I304
sg10
I11
sba(ibeta_strands
Comp
p282
(dp283
g5
S'N'
sg6
((NI0
ttp284
sg8
I218
sg10
I7
sba(ibeta_strands
Comp
p285
(dp286
g5
S'P'
sg6
((NI1
ttp287
sg8
I-4
sg10
I4
sba(ibeta_strands
Comp
p288
(dp289
g5
S'G'
sg6
((NI1
ttp290
sg8
I-2
sg10
I2
sba(ibeta_strands
Comp
p291
(dp292
g5
S'M'
sg6
((I0
I1
ttp293
sg8
I-1
sg10
I1
sba(ibeta_strands
Comp
p294
(dp295
g5
S'C'
sg6
((NI1
ttp296
sg8
I0
sg10
I1
sba(ibeta_strands
Comp
p297
(dp298
g5
S'G'
sg6
((I1
I1
ttp299
sg8
I2
sg10
I1
sbasS'C'
(lp300
(ibeta_strands
Comp
p301
(dp302
g5
S'C'
sg6
((NNttp303
sg8
I15643
sg9
F6.6577342358963412
sg10
I2922
sg11
g12
(g14
S'\x00\x00\x00\x00\x00\x00\x00\x00'
tRp304
sba(ibeta_strands
Comp
p305
(dp306
g5
S'W'
sg6
((NNttp307
sg8
I16488
sg9
F5.9729943768533031
sg10
I2711
sg11
g12
(g14
S'\x00\x00\x00\x00\x00\x00\x00\x00'
tRp308
sba(ibeta_strands
Comp
p309
(dp310
g5
S'V'
sg6
((I0
I0
ttp311
sg8
I108475
sg9
F0.91542905005677344
sg10
I2018
sg11
g12
(g14
S'n\x0f\x93\x8c\xb6\x8a\xf2>'
tRp312
sba(ibeta_strands
Comp
p313
(dp314
g5
S'V'
sg6
((NNttp315
sg8
I99881
sg9
F0.76229474901454886
sg10
I1833
sg11
g12
(g14
S'\x84A\xed\x14(\xaa}8'
tRp316
sba(ibeta_strands
Comp
p317
(dp318
g5
S'L'
sg6
((I0
I0
ttp319
sg8
I83934
sg9
F1.0037423807950663
sg10
I1715
sg11
g12
(g14
S'\xd9Eb\x9eX"\xec?'
tRp320
sba(ibeta_strands
Comp
p321
(dp322
g5
S'S'
sg6
((I0
I0
ttp323
sg8
I45378
sg9
F1.6571626339966221
sg10
I1554
sg11
g12
(g14
S'\x99\xd98\xd7\\\xbd\xf0+'
tRp324
sba(ibeta_strands
Comp
p325
(dp326
g5
S'L'
sg6
((NNttp327
sg8
I81168
sg9
F0.76149971237698599
sg10
I1488
sg11
g12
(g14
S'\\o\x1a3t\x05\xf89'
tRp328
sba(ibeta_strands
Comp
p329
(dp330
g5
S'A'
sg6
((I0
I0
ttp331
sg8
I53167
sg9
F1.3356558289675939
sg10
I1455
sg11
g12
(g14
S'I8\x8a\xd0\xba\x98\xab9'
tRp332
sba(ibeta_strands
Comp
p333
(dp334
g5
S'I'
sg6
((NNttp335
sg8
I70243
sg9
F0.79241741658811882
sg10
I1341
sg11
g12
(g14
S'_w\x1fJ\x9d\xa7\x04<'
tRp336
sba(ibeta_strands
Comp
p337
(dp338
g5
S'K'
sg6
((I0
I0
ttp339
sg8
I40446
sg9
F1.5341415999551915
sg10
I1276
sg11
g12
(g14
S'\xca*\x03/\x9d\xde34'
tRp340
sba(ibeta_strands
Comp
p341
(dp342
g5
S'F'
sg6
((I0
I0
ttp343
sg8
I51003
sg9
F1.2025389361218035
sg10
I1256
sg11
g12
(g14
S'J}\xae\xb26/\xa5='
tRp344
sba(ibeta_strands
Comp
p345
(dp346
g5
S'I'
sg6
((I0
I0
ttp347
sg8
I73604
sg9
F0.78517836130330154
sg10
I1171
sg11
g12
(g14
S'\xd9\xea\x1f]\xc6\x15A<'
tRp348
sba(ibeta_strands
Comp
p349
(dp350
g5
S'F'
sg6
((NNttp351
sg8
I42963
sg9
F0.96217457400994089
sg10
I1000
sg11
g12
(g14
S'\xa0\x7f\xbd\xdd\xea\xdb\xca?'
tRp352
sba(ibeta_strands
Comp
p353
(dp354
g5
S'P'
sg6
((NNttp355
sg8
I19950
sg9
F1.9651887264543284
sg10
I972
sg11
g12
(g14
S'MF\xa1T:f\xd2)'
tRp356
sba(ibeta_strands
Comp
p357
(dp358
g5
S'G'
sg6
((I0
I0
ttp359
sg8
I44277
sg9
F1.0523104146537341
sg10
I950
sg11
g12
(g14
S'\xddg\xe1\xd3\x818\xbb?'
tRp360
sba(ibeta_strands
Comp
p361
(dp362
g5
S'Y'
sg6
((I0
I0
ttp363
sg8
I49635
sg9
F0.90376162234862578
sg10
I913
sg11
g12
(g14
S'\xc5\n\xc9\xb6~\xe5X?'
tRp364
sba(ibeta_strands
Comp
p365
(dp366
g5
S'Q'
sg6
((NNttp367
sg8
I22814
sg9
F1.4589938571127519
sg10
I815
sg11
g12
(g14
S'`\x07W\xa1\xcd\xb2\x1d:'
tRp368
sba(ibeta_strands
Comp
p369
(dp370
g5
S'Y'
sg6
((NNttp371
sg8
I42811
sg9
F0.75690080571253804
sg10
I780
sg11
g12
(g14
S'\\h\xfa\xe6?/\xc2<'
tRp372
sba(ibeta_strands
Comp
p373
(dp374
g5
S'E'
sg6
((NNttp375
sg8
I37102
sg9
F0.82279347393462887
sg10
I736
sg11
g12
(g14
S'\xdaM\xf9Wj\xc5f>'
tRp376
sba(ibeta_strands
Comp
p377
(dp378
g5
S'A'
sg6
((NNttp379
sg8
I47412
sg9
F0.60677426614417962
sg10
I690
sg11
g12
(g14
S'lV\x16-\xe6\xda\x0b7'
tRp380
sba(ibeta_strands
Comp
p381
(dp382
g5
S'C'
sg6
((I0
I0
ttp383
sg8
I16013
sg9
F2.0596503744478136
sg10
I688
sg11
g12
(g14
S'\xf0V\xa5s\xcdr\x16.'
tRp384
sba(ibeta_strands
Comp
p385
(dp386
g5
S'T'
sg6
((I0
I0
ttp387
sg8
I54682
sg9
F0.5733908485488175
sg10
I633
sg11
g12
(g14
S'\xc3z*+v#\xcc5'
tRp388
sba(ibeta_strands
Comp
p389
(dp390
g5
S'G'
sg6
((NNttp391
sg8
I28000
sg9
F0.92647328255995365
sg10
I627
sg11
g12
(g14
S'~q\xfd\\\xb0\x10\xaa?'
tRp392
sba(ibeta_strands
Comp
p393
(dp394
g5
S'T'
sg6
((NNttp395
sg8
I57902
sg9
F0.44098730664293495
sg10
I610
sg11
g12
(g14
S">\xec\xe1<',\x18*"
tRp396
sba(ibeta_strands
Comp
p397
(dp398
g5
S'R'
sg6
((I0
I0
ttp399
sg8
I40876
sg9
F0.69217961561484964
sg10
I572
sg11
g12
(g14
S'\xc1\xd7"\x9bd\xf0\xf0;'
tRp400
sba(ibeta_strands
Comp
p401
(dp402
g5
S'E'
sg6
((I0
I0
ttp403
sg8
I39870
sg9
F0.60759378584196921
sg10
I489
sg11
g12
(g14
S'UJ\xd5\x93m\xc2\xb89'
tRp404
sba(ibeta_strands
Comp
p405
(dp406
g5
S'S'
sg6
((NNttp407
sg8
I42023
sg9
F0.44718252679276616
sg10
I449
sg11
g12
(g14
S'x\x92%kk\x01\xb30'
tRp408
sba(ibeta_strands
Comp
p409
(dp410
g5
S'Q'
sg6
((I0
I0
ttp411
sg8
I27570
sg9
F0.6890610204790607
sg10
I384
sg11
g12
(g14
S'z\x8f\xb7Y\xce\x08/='
tRp412
sba(ibeta_strands
Comp
p413
(dp414
g5
S'R'
sg6
((NNttp415
sg8
I36484
sg9
F0.43717159321125271
sg10
I381
sg11
g12
(g14
S'E>\xf2\x9da\xb6O2'
tRp416
sba(ibeta_strands
Comp
p417
(dp418
g5
S'H'
sg6
((I0
I0
ttp419
sg8
I19662
sg9
F0.91601347066680139
sg10
I366
sg11
g12
(g14
S'\xdd\xe63P\xbeC\xb7?'
tRp420
sba(ibeta_strands
Comp
p421
(dp422
g5
S'M'
sg6
((I0
I0
ttp423
sg8
I16019
sg9
F1.1045711230827175
sg10
I361
sg11
g12
(g14
S'H\xe3\xb5\xb4Qc\xad?'
tRp424
sba(ibeta_strands
Comp
p425
(dp426
g5
S'D'
sg6
((I0
I0
ttp427
sg8
I22954
sg9
F0.70604517905551079
sg10
I328
sg11
g12
(g14
S'\xc1\xe9\xb9\x8d)\x89\xdb='
tRp428
sba(ibeta_strands
Comp
p429
(dp430
g5
S'W'
sg6
((I0
I0
ttp431
sg8
I15919
sg9
F0.98905569499579948
sg10
I321
sg11
g12
(g14
S'\x8f\xc1\x06r\x17\x9c\xeb?'
tRp432
sba(ibeta_strands
Comp
p433
(dp434
g5
S'M'
sg6
((NNttp435
sg8
I15074
sg9
F0.87661442047076532
sg10
I319
sg11
g12
(g14
S'\x92\xf9\xb9bP\xc7\x91?'
tRp436
sba(ibeta_strands
Comp
p437
(dp438
g5
S'K'
sg6
((NNttp439
sg8
I36459
sg9
F0.35777332412099261
sg10
I311
sg11
g12
(g14
S'\xe3\xddM\xbd~jO.'
tRp440
sba(ibeta_strands
Comp
p441
(dp442
g5
S'N'
sg6
((I0
I0
ttp443
sg8
I18550
sg9
F0.66871621125245417
sg10
I251
sg11
g12
(g14
S'\x88\xb8_\xcf\xf0\x00\xd2='
tRp444
sba(ibeta_strands
Comp
p445
(dp446
g5
S'H'
sg6
((NNttp447
sg8
I15237
sg9
F0.62632345160730485
sg10
I229
sg11
g12
(g14
S'q\x10\x8c\x8f\xff\x10X='
tRp448
sba(ibeta_strands
Comp
p449
(dp450
g5
S'N'
sg6
((NNttp451
sg8
I19012
sg9
F0.40764259767056416
sg10
I185
sg11
g12
(g14
S'\xe8`C<\xcdX,8'
tRp452
sba(ibeta_strands
Comp
p453
(dp454
g5
S'D'
sg6
((NNttp455
sg8
I20070
sg9
F0.34699611644272776
sg10
I166
sg11
g12
(g14
S'"2\xee@\xec#\x086'
tRp456
sba(ibeta_strands
Comp
p457
(dp458
g5
S'V'
sg6
((I0
Nttp459
sg8
I3643
sg10
I76
sba(ibeta_strands
Comp
p460
(dp461
g5
S'I'
sg6
((I0
Nttp462
sg8
I2890
sg10
I71
sba(ibeta_strands
Comp
p463
(dp464
g5
S'P'
sg6
((I0
Nttp465
sg8
I1192
sg10
I62
sba(ibeta_strands
Comp
p466
(dp467
g5
S'V'
sg6
((NI0
ttp468
sg8
I3051
sg10
I43
sba(ibeta_strands
Comp
p469
(dp470
g5
S'W'
sg6
((NI0
ttp471
sg8
I590
sg10
I37
sba(ibeta_strands
Comp
p472
(dp473
g5
S'C'
sg6
((I0
Nttp474
sg8
I269
sg10
I33
sba(ibeta_strands
Comp
p475
(dp476
g5
S'C'
sg6
((NI0
ttp477
sg8
I393
sg10
I33
sba(ibeta_strands
Comp
p478
(dp479
g5
S'Y'
sg6
((NI0
ttp480
sg8
I1902
sg10
I30
sba(ibeta_strands
Comp
p481
(dp482
g5
S'I'
sg6
((NI0
ttp483
sg8
I1996
sg10
I30
sba(ibeta_strands
Comp
p484
(dp485
g5
S'L'
sg6
((I0
Nttp486
sg8
I2476
sg10
I30
sba(ibeta_strands
Comp
p487
(dp488
g5
S'L'
sg6
((NI0
ttp489
sg8
I2422
sg10
I28
sba(ibeta_strands
Comp
p490
(dp491
g5
S'T'
sg6
((I0
Nttp492
sg8
I889
sg10
I27
sba(ibeta_strands
Comp
p493
(dp494
g5
S'F'
sg6
((NI0
ttp495
sg8
I1763
sg10
I27
sba(ibeta_strands
Comp
p496
(dp497
g5
S'A'
sg6
((I0
Nttp498
sg8
I869
sg10
I19
sba(ibeta_strands
Comp
p499
(dp500
g5
S'Q'
sg6
((I0
Nttp501
sg8
I418
sg10
I16
sba(ibeta_strands
Comp
p502
(dp503
g5
S'T'
sg6
((NI0
ttp504
sg8
I1020
sg10
I16
sba(ibeta_strands
Comp
p505
(dp506
g5
S'E'
sg6
((I0
Nttp507
sg8
I750
sg10
I15
sba(ibeta_strands
Comp
p508
(dp509
g5
S'F'
sg6
((I0
Nttp510
sg8
I918
sg10
I15
sba(ibeta_strands
Comp
p511
(dp512
g5
S'K'
sg6
((I0
Nttp513
sg8
I678
sg10
I13
sba(ibeta_strands
Comp
p514
(dp515
g5
S'A'
sg6
((NI0
ttp516
sg8
I1046
sg10
I13
sba(ibeta_strands
Comp
p517
(dp518
g5
S'G'
sg6
((I0
Nttp519
sg8
I286
sg10
I10
sba(ibeta_strands
Comp
p520
(dp521
g5
S'W'
sg6
((I0
Nttp522
sg8
I457
sg10
I10
sba(ibeta_strands
Comp
p523
(dp524
g5
S'G'
sg6
((NI0
ttp525
sg8
I694
sg10
I7
sba(ibeta_strands
Comp
p526
(dp527
g5
S'S'
sg6
((NI0
ttp528
sg8
I794
sg10
I7
sba(ibeta_strands
Comp
p529
(dp530
g5
S'N'
sg6
((I0
Nttp531
sg8
I270
sg10
I6
sba(ibeta_strands
Comp
p532
(dp533
g5
S'E'
sg6
((NI0
ttp534
sg8
I444
sg10
I6
sba(ibeta_strands
Comp
p535
(dp536
g5
S'R'
sg6
((NI0
ttp537
sg8
I515
sg10
I6
sba(ibeta_strands
Comp
p538
(dp539
g5
S'Y'
sg6
((I0
Nttp540
sg8
I595
sg10
I6
sba(ibeta_strands
Comp
p541
(dp542
g5
S'H'
sg6
((I0
Nttp543
sg8
I317
sg10
I5
sba(ibeta_strands
Comp
p544
(dp545
g5
S'H'
sg6
((NI0
ttp546
sg8
I268
sg10
I4
sba(ibeta_strands
Comp
p547
(dp548
g5
S'D'
sg6
((NI0
ttp549
sg8
I311
sg10
I4
sba(ibeta_strands
Comp
p550
(dp551
g5
S'Q'
sg6
((NI0
ttp552
sg8
I331
sg10
I4
sba(ibeta_strands
Comp
p553
(dp554
g5
S'R'
sg6
((I0
Nttp555
sg8
I524
sg10
I4
sba(ibeta_strands
Comp
p556
(dp557
g5
S'S'
sg6
((I0
Nttp558
sg8
I525
sg10
I4
sba(ibeta_strands
Comp
p559
(dp560
g5
S'D'
sg6
((I0
Nttp561
sg8
I299
sg10
I3
sba(ibeta_strands
Comp
p562
(dp563
g5
S'M'
sg6
((NI0
ttp564
sg8
I375
sg10
I3
sba(ibeta_strands
Comp
p565
(dp566
g5
S'N'
sg6
((NI0
ttp567
sg8
I223
sg10
I2
sba(ibeta_strands
Comp
p568
(dp569
g5
S'K'
sg6
((NI0
ttp570
sg8
I458
sg10
I2
sba(ibeta_strands
Comp
p571
(dp572
g5
S'P'
sg6
((I0
I1
ttp573
sg8
I-1
sg10
I1
sba(ibeta_strands
Comp
p574
(dp575
g5
S'F'
sg6
((NI1
ttp576
sg8
I-1
sg10
I1
sba(ibeta_strands
Comp
p577
(dp578
g5
S'I'
sg6
((I0
I1
ttp579
sg8
I-1
sg10
I1
sba(ibeta_strands
Comp
p580
(dp581
g5
S'A'
sg6
((I1
Nttp582
sg8
I6
sg10
I1
sba(ibeta_strands
Comp
p583
(dp584
g5
S'M'
sg6
((I0
Nttp585
sg8
I303
sg10
I1
sbasS'E'
(lp586
(ibeta_strands
Comp
p587
(dp588
g5
S'R'
sg6
((I0
I0
ttp589
sg8
I35187
sg9
F3.1446033864568905
sg10
I6261
sg11
g12
(g14
S'\x00\x00\x00\x00\x00\x00\x00\x00'
tRp590
sba(ibeta_strands
Comp
p591
(dp592
g5
S'K'
sg6
((I0
I0
ttp593
sg8
I36516
sg9
F2.5978754944998723
sg10
I5206
sg11
g12
(g14
S'\x00\x00\x00\x00\x00\x00\x00\x00'
tRp594
sba(ibeta_strands
Comp
p595
(dp596
g5
S'K'
sg6
((NNttp597
sg8
I32368
sg9
F2.4846452253694857
sg10
I4402
sg11
g12
(g14
S'\x00\x00\x00\x00\x00\x00\x00\x00'
tRp598
sba(ibeta_strands
Comp
p599
(dp600
g5
S'V'
sg6
((I0
I0
ttp601
sg8
I106350
sg9
F0.78004176974869188
sg10
I4143
sg11
g12
(g14
S'\xd3\xd6\xdesb\x14\xa71'
tRp602
sba(ibeta_strands
Comp
p603
(dp604
g5
S'R'
sg6
((NNttp605
sg8
I32777
sg9
F2.3014663345926536
sg10
I4088
sg11
g12
(g14
S'\x00\x00\x00\x00\x00\x00\x00\x00'
tRp606
sba(ibeta_strands
Comp
p607
(dp608
g5
S'T'
sg6
((NNttp609
sg8
I54882
sg9
F1.2875664733175989
sg10
I3630
sg11
g12
(g14
S'\xe0<\xf3T\x03U\xbf3'
tRp610
sba(ibeta_strands
Comp
p611
(dp612
g5
S'V'
sg6
((NNttp613
sg8
I98259
sg9
F0.70497756383074417
sg10
I3455
sg11
g12
(g14
S'\xfcl\xcd\xce\xf0\x86p('
tRp614
sba(ibeta_strands
Comp
p615
(dp616
g5
S'T'
sg6
((I0
I0
ttp617
sg8
I52026
sg9
F1.2365461172832908
sg10
I3289
sg11
g12
(g14
S'\xb6\x1a\x92\xe8b\xc3%8'
tRp618
sba(ibeta_strands
Comp
p619
(dp620
g5
S'L'
sg6
((NNttp621
sg8
I79991
sg9
F0.66916128501456085
sg10
I2665
sg11
g12
(g14
S'\xe1\x12\x18\xe6\x9b\xbd\x92('
tRp622
sba(ibeta_strands
Comp
p623
(dp624
g5
S'I'
sg6
((I0
I0
ttp625
sg8
I72173
sg9
F0.72413262897951125
sg10
I2602
sg11
g12
(g14
S'\xe9$\x01m\xb8\xcfs1'
tRp626
sba(ibeta_strands
Comp
p627
(dp628
g5
S'L'
sg6
((I0
I0
ttp629
sg8
I83159
sg9
F0.60486280871286946
sg10
I2490
sg11
g12
(g14
S'\xd7\xe4A\xaffw\xbe\x1d'
tRp630
sba(ibeta_strands
Comp
p631
(dp632
g5
S'I'
sg6
((NNttp633
sg8
I69201
sg9
F0.6909013758670679
sg10
I2383
sg11
g12
(g14
S"\xc3q'\xbb\x83\xda|."
tRp634
sba(ibeta_strands
Comp
p635
(dp636
g5
S'S'
sg6
((NNttp637
sg8
I40098
sg9
F1.1600747654560211
sg10
I2374
sg11
g12
(g14
S'\x85\xd1%\xcb\xf0\x90\x1c='
tRp638
sba(ibeta_strands
Comp
p639
(dp640
g5
S'S'
sg6
((I0
I0
ttp641
sg8
I44713
sg9
F0.98213416159182321
sg10
I2219
sg11
g12
(g14
S'\x86\x8d31\xbe\x15\xd8?'
tRp642
sba(ibeta_strands
Comp
p643
(dp644
g5
S'Y'
sg6
((NNttp645
sg8
I41459
sg9
F1.0150755004319891
sg10
I2132
sg11
g12
(g14
S'\x00\n\xed\xea\xf2I\xde?'
tRp646
sba(ibeta_strands
Comp
p647
(dp648
g5
S'A'
sg6
((I0
I0
ttp649
sg8
I52879
sg9
F0.66409216282633576
sg10
I1743
sg11
g12
(g14
S'C\xfeI\xcb\xe8\x0e\xab0'
tRp650
sba(ibeta_strands
Comp
p651
(dp652
g5
S'F'
sg6
((NNttp653
sg8
I42237
sg9
F0.81481956467491923
sg10
I1726
sg11
g12
(g14
S'v1!t\x80\x06\x14<'
tRp654
sba(ibeta_strands
Comp
p655
(dp656
g5
S'E'
sg6
((I0
I0
ttp657
sg8
I38740
sg9
F0.83493123903248911
sg10
I1619
sg11
g12
(g14
S'S\xeazQ*\xce\x1b='
tRp658
sba(ibeta_strands
Comp
p659
(dp660
g5
S'Y'
sg6
((I0
I0
ttp661
sg8
I48960
sg9
F0.65242863413777008
sg10
I1588
sg11
g12
(g14
S'?\xc2\x19\xebX\xa6\xd90'
tRp662
sba(ibeta_strands
Comp
p663
(dp664
g5
S'E'
sg6
((NNttp665
sg8
I36276
sg9
F0.85676325924714347
sg10
I1562
sg11
g12
(g14
S'\xabN\x13\xb2\xc4\x93\xe3='
tRp666
sba(ibeta_strands
Comp
p667
(dp668
g5
S'N'
sg6
((I0
I0
ttp669
sg8
I17287
sg9
F1.6741462822303419
sg10
I1514
sg11
g12
(g14
S'r%\xe5\x05\t\xf0\xc2+'
tRp670
sba(ibeta_strands
Comp
p671
(dp672
g5
S'Q'
sg6
((NNttp673
sg8
I22126
sg9
F1.3201449414088946
sg10
I1503
sg11
g12
(g14
S'yvE\xc3\xe6\xf9\x02:'
tRp674
sba(ibeta_strands
Comp
p675
(dp676
g5
S'A'
sg6
((NNttp677
sg8
I46658
sg9
F0.62303441515338498
sg10
I1444
sg11
g12
(g14
S'\xb5A\xa9\xbb\xacN\x0c/'
tRp678
sba(ibeta_strands
Comp
p679
(dp680
g5
S'F'
sg6
((I0
I0
ttp681
sg8
I50861
sg9
F0.5555409490584895
sg10
I1398
sg11
g12
(g14
S'B\x9b\xcbJ;6\x8b&'
tRp682
sba(ibeta_strands
Comp
p683
(dp684
g5
S'Q'
sg6
((I0
I0
ttp685
sg8
I26593
sg9
F1.0136405625356801
sg10
I1361
sg11
g12
(g14
S'\xf9\x9a\x7f\x8d\x01\x98\xe3?'
tRp686
sba(ibeta_strands
Comp
p687
(dp688
g5
S'G'
sg6
((I0
I0
ttp689
sg8
I44018
sg9
F0.55583509151588062
sg10
I1209
sg11
g12
(g14
S'+e,\x83\x04Y.*'
tRp690
sba(ibeta_strands
Comp
p691
(dp692
g5
S'D'
sg6
((I0
I0
ttp693
sg8
I22120
sg9
F1.0381597181894879
sg10
I1162
sg11
g12
(g14
S'\xb4\x9c\xd3\x17^H\xc8?'
tRp694
sba(ibeta_strands
Comp
p695
(dp696
g5
S'H'
sg6
((I0
I0
ttp697
sg8
I18883
sg9
F1.1893937691727532
sg10
I1145
sg11
g12
(g14
S'9\x8fB\xdb"\xc5\x14>'
tRp698
sba(ibeta_strands
Comp
p699
(dp700
g5
S'N'
sg6
((NNttp701
sg8
I18181
sg9
F1.0984197186249327
sg10
I1016
sg11
g12
(g14
S'\x15\x88\xbfXxp`?'
tRp702
sba(ibeta_strands
Comp
p703
(dp704
g5
S'P'
sg6
((NNttp705
sg8
I19953
sg9
F0.96123274500973188
sg10
I969
sg11
g12
(g14
S'\x80\xb75n:x\xca?'
tRp706
sba(ibeta_strands
Comp
p707
(dp708
g5
S'G'
sg6
((NNttp709
sg8
I27664
sg9
F0.69816556828682363
sg10
I963
sg11
g12
(g14
S'\xd6*R\xb7q\xe0\x869'
tRp710
sba(ibeta_strands
Comp
p711
(dp712
g5
S'H'
sg6
((NNttp713
sg8
I14538
sg9
F1.2453113546806605
sg10
I928
sg11
g12
(g14
S'\x9aQ\xf3\xc8\x1c\xc7\x94='
tRp714
sba(ibeta_strands
Comp
p715
(dp716
g5
S'C'
sg6
((NNttp717
sg8
I17829
sg9
F0.82279347393462887
sg10
I736
sg11
g12
(g14
S'\xdaM\xf9Wj\xc5f>'
tRp718
sba(ibeta_strands
Comp
p719
(dp720
g5
S'D'
sg6
((NNttp721
sg8
I19563
sg9
F0.69023721497607893
sg10
I673
sg11
g12
(g14
S'\xceJ\xe1e\xdc\xc9+;'
tRp722
sba(ibeta_strands
Comp
p723
(dp724
g5
S'W'
sg6
((NNttp725
sg8
I18560
sg9
F0.69076484530572313
sg10
I639
sg11
g12
(g14
S'\x01U\xa4\x08L\xbcm;'
tRp726
sba(ibeta_strands
Comp
p727
(dp728
g5
S'M'
sg6
((NNttp729
sg8
I14843
sg9
F0.74156188159867376
sg10
I550
sg11
g12
(g14
S'I\x98\xdb\xdb&\xe0Y='
tRp730
sba(ibeta_strands
Comp
p731
(dp732
g5
S'C'
sg6
((I0
I0
ttp733
sg8
I16212
sg9
F0.60759378584196921
sg10
I489
sg11
g12
(g14
S'UJ\xd5\x93m\xc2\xb89'
tRp734
sba(ibeta_strands
Comp
p735
(dp736
g5
S'W'
sg6
((I0
I0
ttp737
sg8
I15759
sg9
F0.61512048363878302
sg10
I481
sg11
g12
(g14
S'\x11\x85\xfd[\xa8\x98\x1f:'
tRp738
sba(ibeta_strands
Comp
p739
(dp740
g5
S'M'
sg6
((I0
I0
ttp741
sg8
I15940
sg9
F0.55877704575477027
sg10
I440
sg11
g12
(g14
S'\xc45$6[\x17M8'
tRp742
sba(ibeta_strands
Comp
p743
(dp744
g5
S'Y'
sg6
((NI0
ttp745
sg8
I1834
sg10
I98
sba(ibeta_strands
Comp
p746
(dp747
g5
S'F'
sg6
((NI0
ttp748
sg8
I1714
sg10
I76
sba(ibeta_strands
Comp
p749
(dp750
g5
S'L'
sg6
((NI0
ttp751
sg8
I2374
sg10
I76
sba(ibeta_strands
Comp
p752
(dp753
g5
S'V'
sg6
((NI0
ttp754
sg8
I3021
sg10
I73
sba(ibeta_strands
Comp
p755
(dp756
g5
S'I'
sg6
((NI0
ttp757
sg8
I1955
sg10
I71
sba(ibeta_strands
Comp
p758
(dp759
g5
S'V'
sg6
((I0
Nttp760
sg8
I3656
sg10
I63
sba(ibeta_strands
Comp
p761
(dp762
g5
S'K'
sg6
((NI0
ttp763
sg8
I406
sg10
I54
sba(ibeta_strands
Comp
p764
(dp765
g5
S'R'
sg6
((NI0
ttp766
sg8
I471
sg10
I50
sba(ibeta_strands
Comp
p767
(dp768
g5
S'A'
sg6
((NI0
ttp769
sg8
I1012
sg10
I47
sba(ibeta_strands
Comp
p770
(dp771
g5
S'I'
sg6
((I0
Nttp772
sg8
I2916
sg10
I45
sba(ibeta_strands
Comp
p773
(dp774
g5
S'T'
sg6
((I0
Nttp775
sg8
I872
sg10
I44
sba(ibeta_strands
Comp
p776
(dp777
g5
S'S'
sg6
((NI0
ttp778
sg8
I767
sg10
I34
sba(ibeta_strands
Comp
p779
(dp780
g5
S'K'
sg6
((I0
Nttp781
sg8
I660
sg10
I31
sba(ibeta_strands
Comp
p782
(dp783
g5
S'T'
sg6
((NI0
ttp784
sg8
I1005
sg10
I31
sba(ibeta_strands
Comp
p785
(dp786
g5
S'L'
sg6
((I0
Nttp787
sg8
I2476
sg10
I30
sba(ibeta_strands
Comp
p788
(dp789
g5
S'P'
sg6
((I0
Nttp790
sg8
I1225
sg10
I29
sba(ibeta_strands
Comp
p791
(dp792
g5
S'R'
sg6
((I0
Nttp793
sg8
I500
sg10
I28
sba(ibeta_strands
Comp
p794
(dp795
g5
S'S'
sg6
((I0
Nttp796
sg8
I503
sg10
I26
sba(ibeta_strands
Comp
p797
(dp798
g5
S'E'
sg6
((NI0
ttp799
sg8
I425
sg10
I25
sba(ibeta_strands
Comp
p800
(dp801
g5
S'E'
sg6
((I0
Nttp802
sg8
I740
sg10
I25
sba(ibeta_strands
Comp
p803
(dp804
g5
S'Y'
sg6
((I0
Nttp805
sg8
I580
sg10
I21
sba(ibeta_strands
Comp
p806
(dp807
g5
S'W'
sg6
((NI0
ttp808
sg8
I606
sg10
I21
sba(ibeta_strands
Comp
p809
(dp810
g5
S'N'
sg6
((I0
Nttp811
sg8
I256
sg10
I20
sba(ibeta_strands
Comp
p812
(dp813
g5
S'H'
sg6
((NI0
ttp814
sg8
I254
sg10
I18
sba(ibeta_strands
Comp
p815
(dp816
g5
S'Q'
sg6
((NI0
ttp817
sg8
I317
sg10
I18
sba(ibeta_strands
Comp
p818
(dp819
g5
S'M'
sg6
((NI0
ttp820
sg8
I360
sg10
I18
sba(ibeta_strands
Comp
p821
(dp822
g5
S'G'
sg6
((NI0
ttp823
sg8
I683
sg10
I18
sba(ibeta_strands
Comp
p824
(dp825
g5
S'N'
sg6
((NI0
ttp826
sg8
I209
sg10
I16
sba(ibeta_strands
Comp
p827
(dp828
g5
S'Q'
sg6
((I0
Nttp829
sg8
I418
sg10
I16
sba(ibeta_strands
Comp
p830
(dp831
g5
S'A'
sg6
((I0
Nttp832
sg8
I872
sg10
I16
sba(ibeta_strands
Comp
p833
(dp834
g5
S'C'
sg6
((NI0
ttp835
sg8
I411
sg10
I15
sba(ibeta_strands
Comp
p836
(dp837
g5
S'D'
sg6
((I0
Nttp838
sg8
I289
sg10
I13
sba(ibeta_strands
Comp
p839
(dp840
g5
S'F'
sg6
((I0
Nttp841
sg8
I920
sg10
I13
sba(ibeta_strands
Comp
p842
(dp843
g5
S'H'
sg6
((I0
Nttp844
sg8
I315
sg10
I7
sba(ibeta_strands
Comp
p845
(dp846
g5
S'W'
sg6
((I0
Nttp847
sg8
I460
sg10
I7
sba(ibeta_strands
Comp
p848
(dp849
g5
S'G'
sg6
((I0
Nttp850
sg8
I290
sg10
I6
sba(ibeta_strands
Comp
p851
(dp852
g5
S'C'
sg6
((I0
Nttp853
sg8
I296
sg10
I6
sba(ibeta_strands
Comp
p854
(dp855
g5
S'D'
sg6
((NI0
ttp856
sg8
I309
sg10
I6
sba(ibeta_strands
Comp
p857
(dp858
g5
S'M'
sg6
((I0
Nttp859
sg8
I300
sg10
I4
sba(ibeta_strands
Comp
p860
(dp861
g5
S'L'
sg6
((I-1
I0
ttp862
sg8
I-1
sg10
I1
sba(ibeta_strands
Comp
p863
(dp864
g5
S'G'
sg6
((I1
I1
ttp865
sg8
I2
sg10
I1
sbasS'D'
(lp866
(ibeta_strands
Comp
p867
(dp868
g5
S'T'
sg6
((I0
I0
ttp869
sg8
I52488
sg9
F1.8413079871613753
sg10
I2827
sg11
g12
(g14
S'\xbf\xc3\xeb$-\xdd\xb1\t'
tRp870
sba(ibeta_strands
Comp
p871
(dp872
g5
S'R'
sg6
((NNttp873
sg8
I34480
sg9
F2.5106468277606488
sg10
I2385
sg11
g12
(g14
S'\x00\x00\x00\x00\x00\x00\x00\x00'
tRp874
sba(ibeta_strands
Comp
p875
(dp876
g5
S'V'
sg6
((I0
I0
ttp877
sg8
I108143
sg9
F0.76652261377408548
sg10
I2350
sg11
g12
(g14
S'\xe3\xb3\xf7\xf9\x00\x90\xc36'
tRp878
sba(ibeta_strands
Comp
p879
(dp880
g5
S'K'
sg6
((NNttp881
sg8
I34470
sg9
F2.4274242481013943
sg10
I2300
sg11
g12
(g14
S'\x00\x00\x00\x00\x00\x00\x00\x00'
tRp882
sba(ibeta_strands
Comp
p883
(dp884
g5
S'R'
sg6
((I0
I0
ttp885
sg8
I39314
sg9
F1.8568241373507637
sg10
I2134
sg11
g12
(g14
S'\\M%\xfe\x88\xc8\x7f\x16'
tRp886
sba(ibeta_strands
Comp
p887
(dp888
g5
S'K'
sg6
((I0
I0
ttp889
sg8
I39624
sg9
F1.813735014745582
sg10
I2098
sg11
g12
(g14
S'ie<?\x15#G\x1a'
tRp890
sba(ibeta_strands
Comp
p891
(dp892
g5
S'T'
sg6
((NNttp893
sg8
I56599
sg9
F1.2687659262012598
sg10
I1913
sg11
g12
(g14
S'\x16\xcf!\xa9k\x82C:'
tRp894
sba(ibeta_strands
Comp
p895
(dp896
g5
S'S'
sg6
((I0
I0
ttp897
sg8
I45266
sg9
F1.2774464275658592
sg10
I1666
sg11
g12
(g14
S'\xcf\xcee\x84\xd6D\xc8:'
tRp898
sba(ibeta_strands
Comp
p899
(dp900
g5
S'S'
sg6
((NNttp901
sg8
I40819
sg9
F1.5103639841823537
sg10
I1653
sg11
g12
(g14
S'\x93\xb6\x19^\x9e\xb3\xbb1'
tRp902
sba(ibeta_strands
Comp
p903
(dp904
g5
S'L'
sg6
((I0
I0
ttp905
sg8
I84316
sg9
F0.56097288264606027
sg10
I1333
sg11
g12
(g14
S'\x9c\x18{\xbb\xcd\xcb\x01('
tRp906
sba(ibeta_strands
Comp
p907
(dp908
g5
S'I'
sg6
((I0
I0
ttp909
sg8
I73464
sg9
F0.63207367122353075
sg10
I1311
sg11
g12
(g14
S'AD\x10\xe2\xb0\xefa1'
tRp910
sba(ibeta_strands
Comp
p911
(dp912
g5
S'V'
sg6
((NNttp913
sg8
I100432
sg9
F0.48912377275517788
sg10
I1282
sg11
g12
(g14
S'\xf2\x0b\xaf\xd8\xceCE\x1b'
tRp914
sba(ibeta_strands
Comp
p915
(dp916
g5
S'A'
sg6
((I0
I0
ttp917
sg8
I53352
sg9
F0.83827955228287721
sg10
I1270
sg11
g12
(g14
S'u%\x91\x95\xc7q\xc8='
tRp918
sba(ibeta_strands
Comp
p919
(dp920
g5
S'G'
sg6
((I0
I0
ttp921
sg8
I43990
sg9
F0.98524342270293075
sg10
I1237
sg11
g12
(g14
S'\x0e<1\xac\xd0\x10\xe3?'
tRp922
sba(ibeta_strands
Comp
p923
(dp924
g5
S'E'
sg6
((I0
I0
ttp925
sg8
I39197
sg9
F1.0381597181894879
sg10
I1162
sg11
g12
(g14
S'\xb4\x9c\xd3\x17^H\xc8?'
tRp926
sba(ibeta_strands
Comp
p927
(dp928
g5
S'L'
sg6
((NNttp929
sg8
I81533
sg9
F0.5272503194161392
sg10
I1123
sg11
g12
(g14
S"\x1e\xf7|\xd9\xa23\x08'"
tRp930
sba(ibeta_strands
Comp
p931
(dp932
g5
S'N'
sg6
((NNttp933
sg8
I18094
sg9
F2.2297369319881315
sg10
I1103
sg11
g12
(g14
S'\x96\x9f-\xb3\xfa90\x1c'
tRp934
sba(ibeta_strands
Comp
p935
(dp936
g5
S'Q'
sg6
((NNttp937
sg8
I22624
sg9
F1.6505633562056521
sg10
I1005
sg11
g12
(g14
S'\x18\xa2\xf9\x1f\xcf\x08e3'
tRp938
sba(ibeta_strands
Comp
p939
(dp940
g5
S'Q'
sg6
((I0
I0
ttp941
sg8
I26976
sg9
F1.2618824337985719
sg10
I978
sg11
g12
(g14
S'J\xd6\x8c)C\xc71='
tRp942
sba(ibeta_strands
Comp
p943
(dp944
g5
S'I'
sg6
((NNttp945
sg8
I70628
sg9
F0.51826682462543239
sg10
I956
sg11
g12
(g14
S'C).\xa2\xfe\x05\xdd)'
tRp946
sba(ibeta_strands
Comp
p947
(dp948
g5
S'Y'
sg6
((NNttp949
sg8
I42641
sg9
F0.84574269042925565
sg10
I950
sg11
g12
(g14
S'\xe99\xadw\xf3\xa9t>'
tRp950
sba(ibeta_strands
Comp
p951
(dp952
g5
S'D'
sg6
((I0
I0
ttp953
sg8
I22337
sg9
F1.4626622005360264
sg10
I945
sg11
g12
(g14
S'm\xf1\xf1"r\xbd\x1d9'
tRp954
sba(ibeta_strands
Comp
p955
(dp956
g5
S'Y'
sg6
((I0
I0
ttp957
sg8
I49679
sg9
F0.61852388576773765
sg10
I869
sg11
g12
(g14
S"s\xcf\xdfF\\'\x995"
tRp958
sba(ibeta_strands
Comp
p959
(dp960
g5
S'N'
sg6
((I0
I0
ttp961
sg8
I17968
sg9
F1.5957568335852033
sg10
I833
sg11
g12
(g14
S'\t\x8a(\xffH7\xea6'
tRp962
sba(ibeta_strands
Comp
p963
(dp964
g5
S'F'
sg6
((NNttp965
sg8
I43130
sg9
F0.7353077789627378
sg10
I833
sg11
g12
(g14
S'\xc7\xa6\xfbY\\\x19\xd5;'
tRp966
sba(ibeta_strands
Comp
p967
(dp968
g5
S'H'
sg6
((NNttp969
sg8
I14647
sg9
F2.0550262591322817
sg10
I819
sg11
g12
(g14
S'\xd2>\xfa\x96\t\xb2\xbf*'
tRp970
sba(ibeta_strands
Comp
p971
(dp972
g5
S'F'
sg6
((I0
I0
ttp973
sg8
I51481
sg9
F0.53560261151384658
sg10
I778
sg11
g12
(g14
S'\x9d\xb6\xb0q\xeeB/0'
tRp974
sba(ibeta_strands
Comp
p975
(dp976
g5
S'A'
sg6
((NNttp977
sg8
I47371
sg9
F0.589746976077693
sg10
I731
sg11
g12
(g14
S'\x12"\x87\x92\xdc\x17g5'
tRp978
sba(ibeta_strands
Comp
p979
(dp980
g5
S'G'
sg6
((NNttp981
sg8
I27897
sg9
F0.98959730035892601
sg10
I730
sg11
g12
(g14
S'wc\xbcR\xf1\x1f\xe9?'
tRp982
sba(ibeta_strands
Comp
p983
(dp984
g5
S'E'
sg6
((NNttp985
sg8
I37165
sg9
F0.69023721497607893
sg10
I673
sg11
g12
(g14
S'\xceJ\xe1e\xdc\xc9+;'
tRp986
sba(ibeta_strands
Comp
p987
(dp988
g5
S'H'
sg6
((I0
I0
ttp989
sg8
I19402
sg9
F1.1265453764628419
sg10
I626
sg11
g12
(g14
S'\xd3\x12z\xd11^c?'
tRp990
sba(ibeta_strands
Comp
p991
(dp992
g5
S'P'
sg6
((NNttp993
sg8
I20409
sg9
F0.95153692734876716
sg10
I513
sg11
g12
(g14
S'\xb6\x89]\xe8.s\xd0?'
tRp994
sba(ibeta_strands
Comp
p995
(dp996
g5
S'D'
sg6
((NNttp997
sg8
I19752
sg9
F0.92817992402049576
sg10
I484
sg11
g12
(g14
S';\xc6[\xdc\x0c\xc3\xb8?'
tRp998
sba(ibeta_strands
Comp
p999
(dp1000
g5
S'W'
sg6
((NNttp1001
sg8
I18843
sg9
F0.71958627144432408
sg10
I356
sg11
g12
(g14
S'\xd2\xee\xc8\xd9\xdd2\xe9='
tRp1002
sba(ibeta_strands
Comp
p1003
(dp1004
g5
S'C'
sg6
((I0
I0
ttp1005
sg8
I16373
sg9
F0.70604517905551079
sg10
I328
sg11
g12
(g14
S'\xc1\xe9\xb9\x8d)\x89\xdb='
tRp1006
sba(ibeta_strands
Comp
p1007
(dp1008
g5
S'M'
sg6
((I0
I0
ttp1009
sg8
I16091
sg9
F0.63582545016043701
sg10
I289
sg11
g12
(g14
S'B\x8e\x10So\x16\xe4<'
tRp1010
sba(ibeta_strands
Comp
p1011
(dp1012
g5
S'M'
sg6
((NNttp1013
sg8
I15132
sg9
F0.6580042788026641
sg10
I261
sg11
g12
(g14
S':\xdd\\\x84\xc0\xcc\x90='
tRp1014
sba(ibeta_strands
Comp
p1015
(dp1016
g5
S'W'
sg6
((I0
I0
ttp1017
sg8
I15992
sg9
F0.54944089095707538
sg10
I248
sg11
g12
(g14
S'\xba\xfdlU|\xeed;'
tRp1018
sba(ibeta_strands
Comp
p1019
(dp1020
g5
S'C'
sg6
((NNttp1021
sg8
I18399
sg9
F0.34699611644272776
sg10
I166
sg11
g12
(g14
S'"2\xee@\xec#\x086'
tRp1022
sba(ibeta_strands
Comp
p1023
(dp1024
g5
S'I'
sg6
((I0
Nttp1025
sg8
I2909
sg10
I52
sba(ibeta_strands
Comp
p1026
(dp1027
g5
S'A'
sg6
((NI0
ttp1028
sg8
I1015
sg10
I44
sba(ibeta_strands
Comp
p1029
(dp1030
g5
S'R'
sg6
((NI0
ttp1031
sg8
I478
sg10
I43
sba(ibeta_strands
Comp
p1032
(dp1033
g5
S'K'
sg6
((NI0
ttp1034
sg8
I423
sg10
I37
sba(ibeta_strands
Comp
p1035
(dp1036
g5
S'V'
sg6
((NI0
ttp1037
sg8
I3057
sg10
I37
sba(ibeta_strands
Comp
p1038
(dp1039
g5
S'R'
sg6
((I0
Nttp1040
sg8
I496
sg10
I32
sba(ibeta_strands
Comp
p1041
(dp1042
g5
S'P'
sg6
((I0
Nttp1043
sg8
I1223
sg10
I31
sba(ibeta_strands
Comp
p1044
(dp1045
g5
S'V'
sg6
((I0
Nttp1046
sg8
I3691
sg10
I28
sba(ibeta_strands
Comp
p1047
(dp1048
g5
S'L'
sg6
((I0
Nttp1049
sg8
I2486
sg10
I20
sba(ibeta_strands
Comp
p1050
(dp1051
g5
S'S'
sg6
((I0
Nttp1052
sg8
I510
sg10
I19
sba(ibeta_strands
Comp
p1053
(dp1054
g5
S'Q'
sg6
((NI0
ttp1055
sg8
I319
sg10
I16
sba(ibeta_strands
Comp
p1056
(dp1057
g5
S'F'
sg6
((I0
Nttp1058
sg8
I917
sg10
I16
sba(ibeta_strands
Comp
p1059
(dp1060
g5
S'T'
sg6
((NI0
ttp1061
sg8
I1020
sg10
I16
sba(ibeta_strands
Comp
p1062
(dp1063
g5
S'L'
sg6
((NI0
ttp1064
sg8
I2434
sg10
I16
sba(ibeta_strands
Comp
p1065
(dp1066
g5
S'T'
sg6
((I0
Nttp1067
sg8
I901
sg10
I15
sba(ibeta_strands
Comp
p1068
(dp1069
g5
S'K'
sg6
((I0
Nttp1070
sg8
I677
sg10
I14
sba(ibeta_strands
Comp
p1071
(dp1072
g5
S'G'
sg6
((NI0
ttp1073
sg8
I687
sg10
I14
sba(ibeta_strands
Comp
p1074
(dp1075
g5
S'G'
sg6
((I0
Nttp1076
sg8
I283
sg10
I13
sba(ibeta_strands
Comp
p1077
(dp1078
g5
S'E'
sg6
((NI0
ttp1079
sg8
I437
sg10
I13
sba(ibeta_strands
Comp
p1080
(dp1081
g5
S'Y'
sg6
((I0
Nttp1082
sg8
I588
sg10
I13
sba(ibeta_strands
Comp
p1083
(dp1084
g5
S'S'
sg6
((NI0
ttp1085
sg8
I788
sg10
I13
sba(ibeta_strands
Comp
p1086
(dp1087
g5
S'Q'
sg6
((I0
Nttp1088
sg8
I422
sg10
I12
sba(ibeta_strands
Comp
p1089
(dp1090
g5
S'N'
sg6
((I0
Nttp1091
sg8
I265
sg10
I11
sba(ibeta_strands
Comp
p1092
(dp1093
g5
S'A'
sg6
((I0
Nttp1094
sg8
I877
sg10
I11
sba(ibeta_strands
Comp
p1095
(dp1096
g5
S'Y'
sg6
((NI0
ttp1097
sg8
I1922
sg10
I10
sba(ibeta_strands
Comp
p1098
(dp1099
g5
S'I'
sg6
((NI0
ttp1100
sg8
I2017
sg10
I9
sba(ibeta_strands
Comp
p1101
(dp1102
g5
S'F'
sg6
((NI0
ttp1103
sg8
I1782
sg10
I8
sba(ibeta_strands
Comp
p1104
(dp1105
g5
S'W'
sg6
((NI0
ttp1106
sg8
I620
sg10
I7
sba(ibeta_strands
Comp
p1107
(dp1108
g5
S'E'
sg6
((I0
Nttp1109
sg8
I759
sg10
I6
sba(ibeta_strands
Comp
p1110
(dp1111
g5
S'H'
sg6
((NI0
ttp1112
sg8
I267
sg10
I5
sba(ibeta_strands
Comp
p1113
(dp1114
g5
S'D'
sg6
((I0
Nttp1115
sg8
I297
sg10
I5
sba(ibeta_strands
Comp
p1116
(dp1117
g5
S'M'
sg6
((I0
Nttp1118
sg8
I299
sg10
I5
sba(ibeta_strands
Comp
p1119
(dp1120
g5
S'D'
sg6
((NI0
ttp1121
sg8
I310
sg10
I5
sba(ibeta_strands
Comp
p1122
(dp1123
g5
S'H'
sg6
((I0
Nttp1124
sg8
I317
sg10
I5
sba(ibeta_strands
Comp
p1125
(dp1126
g5
S'C'
sg6
((I0
Nttp1127
sg8
I298
sg10
I4
sba(ibeta_strands
Comp
p1128
(dp1129
g5
S'N'
sg6
((NI0
ttp1130
sg8
I222
sg10
I3
sba(ibeta_strands
Comp
p1131
(dp1132
g5
S'M'
sg6
((NI0
ttp1133
sg8
I375
sg10
I3
sba(ibeta_strands
Comp
p1134
(dp1135
g5
S'C'
sg6
((NI0
ttp1136
sg8
I423
sg10
I3
sba(ibeta_strands
Comp
p1137
(dp1138
g5
S'W'
sg6
((I0
Nttp1139
sg8
I464
sg10
I3
sba(ibeta_strands
Comp
p1140
(dp1141
g5
S'P'
sg6
((NI1
ttp1142
sg8
I-1
sg10
I1
sba(ibeta_strands
Comp
p1143
(dp1144
g5
S'Q'
sg6
((I-1
I-1
ttp1145
sg8
I-1
sg10
I1
sba(ibeta_strands
Comp
p1146
(dp1147
g5
S'Y'
sg6
((NI-1
ttp1148
sg8
I-1
sg10
I1
sbasS'G'
(lp1149
(ibeta_strands
Comp
p1150
(dp1151
g5
S'V'
sg6
((I0
I0
ttp1152
sg8
I103041
sg9
F1.2508106513586557
sg10
I7452
sg11
g12
(g14
S'\x81\x98\xd4.\xa0E\x16+'
tRp1153
sba(ibeta_strands
Comp
p1154
(dp1155
g5
S'L'
sg6
((I0
I0
ttp1156
sg8
I81065
sg9
F0.99269981886105241
sg10
I4584
sg11
g12
(g14
S'\xe2!\xba\x03U\x12\xe3?'
tRp1157
sba(ibeta_strands
Comp
p1158
(dp1159
g5
S'I'
sg6
((I0
I0
ttp1160
sg8
I70668
sg9
F1.0189463702172874
sg10
I4107
sg11
g12
(g14
S'`Z\xa1\xd3\xf0Y\xc9?'
tRp1161
sba(ibeta_strands
Comp
p1162
(dp1163
g5
S'F'
sg6
((I0
I0
ttp1164
sg8
I48351
sg9
F1.3844563226603748
sg10
I3908
sg11
g12
(g14
S'\x01\x04N\xfe\xe4\xe5s*'
tRp1165
sba(ibeta_strands
Comp
p1166
(dp1167
g5
S'L'
sg6
((NNttp1168
sg8
I79122
sg9
F1.172877008791072
sg10
I3534
sg11
g12
(g14
S'N\xf6\xe2\xea+<\x01;'
tRp1169
sba(ibeta_strands
Comp
p1170
(dp1171
g5
S'V'
sg6
((NNttp1172
sg8
I98355
sg9
F0.90591944709383065
sg10
I3359
sg11
g12
(g14
S'\x94\x01L\x9ce\xe2\xfc='
tRp1173
sba(ibeta_strands
Comp
p1174
(dp1175
g5
S'Y'
sg6
((I0
I0
ttp1176
sg8
I47328
sg9
F1.1793811601103492
sg10
I3220
sg11
g12
(g14
S'\xaf\x08tbd\x9eB;'
tRp1177
sba(ibeta_strands
Comp
p1178
(dp1179
g5
S'T'
sg6
((I0
I0
ttp1180
sg8
I52326
sg9
F1.001816450089918
sg10
I2989
sg11
g12
(g14
S'\xfej/\xee\xc6\x8e\xed?'
tRp1181
sba(ibeta_strands
Comp
p1182
(dp1183
g5
S'A'
sg6
((I0
I0
ttp1184
sg8
I51676
sg9
F1.0006438012840662
sg10
I2946
sg11
g12
(g14
S'\x02\xdd\x8f\xbaMM\xef?'
tRp1185
sba(ibeta_strands
Comp
p1186
(dp1187
g5
S'G'
sg6
((I0
I0
ttp1188
sg8
I42440
sg9
F1.142279620089375
sg10
I2787
sg11
g12
(g14
S'\xf5\xc7\xc3\xca\x0f\xd5@='
tRp1189
sba(ibeta_strands
Comp
p1190
(dp1191
g5
S'I'
sg6
((NNttp1192
sg8
I69122
sg9
F0.94347934887676099
sg10
I2462
sg11
g12
(g14
S',\x179\xacA@a?'
tRp1193
sba(ibeta_strands
Comp
p1194
(dp1195
g5
S'S'
sg6
((I0
I0
ttp1196
sg8
I44859
sg9
F0.81795350212739537
sg10
I2073
sg11
g12
(g14
S'|\x8fT`\xdd\xfdy;'
tRp1197
sba(ibeta_strands
Comp
p1198
(dp1199
g5
S'S'
sg6
((NNttp1200
sg8
I40487
sg9
F1.2820888145348783
sg10
I1985
sg11
g12
(g14
S'\x03PIk\x0f\xb2\x9c9'
tRp1201
sba(ibeta_strands
Comp
p1202
(dp1203
g5
S'A'
sg6
((NNttp1204
sg8
I46161
sg9
F1.1069365148401178
sg10
I1941
sg11
g12
(g14
S'\xe3\x02>\xb7\xafG\xc6>'
tRp1205
sba(ibeta_strands
Comp
p1206
(dp1207
g5
S'F'
sg6
((NNttp1208
sg8
I42042
sg9
F1.1986719889138238
sg10
I1921
sg11
g12
(g14
S'\xc4\xf7\xe7xA\x15\x98<'
tRp1209
sba(ibeta_strands
Comp
p1210
(dp1211
g5
S'Y'
sg6
((NNttp1212
sg8
I41692
sg9
F1.1950565185835478
sg10
I1899
sg11
g12
(g14
S'\xf9\xd2c\x1b>\x12\xbd<'
tRp1213
sba(ibeta_strands
Comp
p1214
(dp1215
g5
S'G'
sg6
((NNttp1216
sg8
I26896
sg9
F1.6587523163628668
sg10
I1731
sg11
g12
(g14
S'\x1a\xfeL@o2\xad)'
tRp1217
sba(ibeta_strands
Comp
p1218
(dp1219
g5
S'T'
sg6
((NNttp1220
sg8
I56932
sg9
F0.74075135817356985
sg10
I1580
sg11
g12
(g14
S'6\x83v\x16[\x05s8'
tRp1221
sba(ibeta_strands
Comp
p1222
(dp1223
g5
S'W'
sg6
((I0
I0
ttp1224
sg8
I14718
sg9
F1.7351841197105413
sg10
I1522
sg11
g12
(g14
S'f~H\x88a\xdd\xa1('
tRp1225
sba(ibeta_strands
Comp
p1226
(dp1227
g5
S'R'
sg6
((I0
I0
ttp1228
sg8
I40098
sg9
F0.60446581039266767
sg10
I1350
sg11
g12
(g14
S'\xf3\\\xc8\xc2cd&.'
tRp1229
sba(ibeta_strands
Comp
p1230
(dp1231
g5
S'D'
sg6
((I0
I0
ttp1232
sg8
I22045
sg9
F0.98524342270293075
sg10
I1237
sg11
g12
(g14
S'\x0e<1\xac\xd0\x10\xe3?'
tRp1233
sba(ibeta_strands
Comp
p1234
(dp1235
g5
S'E'
sg6
((I0
I0
ttp1236
sg8
I39150
sg9
F0.55583509151588062
sg10
I1209
sg11
g12
(g14
S'+e,\x83\x04Y.*'
tRp1237
sba(ibeta_strands
Comp
p1238
(dp1239
g5
S'N'
sg6
((I0
I0
ttp1240
sg8
I17609
sg9
F1.1750587531804679
sg10
I1192
sg11
g12
(g14
S'\xb7\x01\xa0D\x91\xe2?>'
tRp1241
sba(ibeta_strands
Comp
p1242
(dp1243
g5
S'K'
sg6
((I0
I0
ttp1244
sg8
I40699
sg9
F0.45509870760527832
sg10
I1023
sg11
g12
(g14
S'\xc8}\xc4\xc0\x05T.\x1e'
tRp1245
sba(ibeta_strands
Comp
p1246
(dp1247
g5
S'R'
sg6
((NNttp1248
sg8
I35882
sg9
F0.73147517594080402
sg10
I983
sg11
g12
(g14
S'\xffzl1,\x11\xf5:'
tRp1249
sba(ibeta_strands
Comp
p1250
(dp1251
g5
S'E'
sg6
((NNttp1252
sg8
I36874
sg9
F0.69889055849272896
sg10
I964
sg11
g12
(g14
S'\xcd\xd8\xbd\xe8\xc8\xd7\x8f9'
tRp1253
sba(ibeta_strands
Comp
p1254
(dp1255
g5
S'C'
sg6
((I0
I0
ttp1256
sg8
I15751
sg9
F1.0523104146537341
sg10
I950
sg11
g12
(g14
S'\xddg\xe1\xd3\x818\xbb?'
tRp1257
sba(ibeta_strands
Comp
p1258
(dp1259
g5
S'H'
sg6
((I0
I0
ttp1260
sg8
I19084
sg9
F0.8741942903445411
sg10
I944
sg11
g12
(g14
S'=@\x90\n\xd4\x15\xf3>'
tRp1261
sba(ibeta_strands
Comp
p1262
(dp1263
g5
S'Q'
sg6
((I0
I0
ttp1264
sg8
I27014
sg9
F0.62412202456328969
sg10
I940
sg11
g12
(g14
S'\x0bj\x8f\xcdf\xac25'
tRp1265
sba(ibeta_strands
Comp
p1266
(dp1267
g5
S'P'
sg6
((NNttp1268
sg8
I20040
sg9
F1.1564469094991945
sg10
I882
sg11
g12
(g14
S'\xfaNz\xad\x82\xa2\xe2>'
tRp1269
sba(ibeta_strands
Comp
p1270
(dp1271
g5
S'M'
sg6
((I0
I0
ttp1272
sg8
I15586
sg9
F0.89892235760896433
sg10
I794
sg11
g12
(g14
S'\xe2\xd0\xa2G\xc2\x8d_?'
tRp1273
sba(ibeta_strands
Comp
p1274
(dp1275
g5
S'Q'
sg6
((NNttp1276
sg8
I22858
sg9
F0.89509544737043867
sg10
I771
sg11
g12
(g14
S'wW\xbc\xb0\xbf7Y?'
tRp1277
sba(ibeta_strands
Comp
p1278
(dp1279
g5
S'D'
sg6
((NNttp1280
sg8
I19506
sg9
F0.98959730035892601
sg10
I730
sg11
g12
(g14
S'wc\xbcR\xf1\x1f\xe9?'
tRp1281
sba(ibeta_strands
Comp
p1282
(dp1283
g5
S'K'
sg6
((NNttp1284
sg8
I36051
sg9
F0.53640840349583152
sg10
I719
sg11
g12
(g14
S'a\xe2\xd2\xb2\xf9\xc6\x881'
tRp1285
sba(ibeta_strands
Comp
p1286
(dp1287
g5
S'N'
sg6
((NNttp1288
sg8
I18498
sg9
F0.99885885337921632
sg10
I699
sg11
g12
(g14
S'\x00\xa7\xac8\xe9\xb3\xef?'
tRp1289
sba(ibeta_strands
Comp
p1290
(dp1291
g5
S'W'
sg6
((NNttp1292
sg8
I18542
sg9
F0.9387437821270328
sg10
I657
sg11
g12
(g14
S'\xd0\x7fn\xf8\xeb9\xb9?'
tRp1293
sba(ibeta_strands
Comp
p1294
(dp1295
g5
S'M'
sg6
((NNttp1296
sg8
I14757
sg9
F1.1334285782774605
sg10
I636
sg11
g12
(g14
S'\xcd\x0c\xa8K\x12DT?'
tRp1297
sba(ibeta_strands
Comp
p1298
(dp1299
g5
S'C'
sg6
((NNttp1300
sg8
I17938
sg9
F0.92647328255995365
sg10
I627
sg11
g12
(g14
S'~q\xfd\\\xb0\x10\xaa?'
tRp1301
sba(ibeta_strands
Comp
p1302
(dp1303
g5
S'H'
sg6
((NNttp1304
sg8
I14919
sg9
F0.97021868213124907
sg10
I547
sg11
g12
(g14
S'\x06j\x03\xd33\xbc\xde?'
tRp1305
sba(ibeta_strands
Comp
p1306
(dp1307
g5
S'V'
sg6
((I0
Nttp1308
sg8
I3578
sg10
I141
sba(ibeta_strands
Comp
p1309
(dp1310
g5
S'I'
sg6
((I0
Nttp1311
sg8
I2826
sg10
I135
sba(ibeta_strands
Comp
p1312
(dp1313
g5
S'L'
sg6
((I0
Nttp1314
sg8
I2412
sg10
I94
sba(ibeta_strands
Comp
p1315
(dp1316
g5
S'P'
sg6
((I0
Nttp1317
sg8
I1177
sg10
I77
sba(ibeta_strands
Comp
p1318
(dp1319
g5
S'A'
sg6
((I0
Nttp1320
sg8
I850
sg10
I38
sba(ibeta_strands
Comp
p1321
(dp1322
g5
S'F'
sg6
((NI0
ttp1323
sg8
I1756
sg10
I34
sba(ibeta_strands
Comp
p1324
(dp1325
g5
S'G'
sg6
((I0
Nttp1326
sg8
I264
sg10
I32
sba(ibeta_strands
Comp
p1327
(dp1328
g5
S'G'
sg6
((NI0
ttp1329
sg8
I669
sg10
I32
sba(ibeta_strands
Comp
p1330
(dp1331
g5
S'I'
sg6
((NI0
ttp1332
sg8
I1994
sg10
I32
sba(ibeta_strands
Comp
p1333
(dp1334
g5
S'L'
sg6
((NI0
ttp1335
sg8
I2418
sg10
I32
sba(ibeta_strands
Comp
p1336
(dp1337
g5
S'F'
sg6
((I0
Nttp1338
sg8
I906
sg10
I27
sba(ibeta_strands
Comp
p1339
(dp1340
g5
S'V'
sg6
((NI0
ttp1341
sg8
I3067
sg10
I27
sba(ibeta_strands
Comp
p1342
(dp1343
g5
S'S'
sg6
((NI0
ttp1344
sg8
I776
sg10
I25
sba(ibeta_strands
Comp
p1345
(dp1346
g5
S'T'
sg6
((I0
Nttp1347
sg8
I892
sg10
I24
sba(ibeta_strands
Comp
p1348
(dp1349
g5
S'A'
sg6
((NI0
ttp1350
sg8
I1038
sg10
I21
sba(ibeta_strands
Comp
p1351
(dp1352
g5
S'E'
sg6
((I0
Nttp1353
sg8
I747
sg10
I18
sba(ibeta_strands
Comp
p1354
(dp1355
g5
S'M'
sg6
((I0
Nttp1356
sg8
I289
sg10
I15
sba(ibeta_strands
Comp
p1357
(dp1358
g5
S'S'
sg6
((I0
Nttp1359
sg8
I514
sg10
I15
sba(ibeta_strands
Comp
p1360
(dp1361
g5
S'D'
sg6
((I0
Nttp1362
sg8
I288
sg10
I14
sba(ibeta_strands
Comp
p1363
(dp1364
g5
S'Y'
sg6
((NI0
ttp1365
sg8
I1918
sg10
I14
sba(ibeta_strands
Comp
p1366
(dp1367
g5
S'N'
sg6
((I0
Nttp1368
sg8
I263
sg10
I13
sba(ibeta_strands
Comp
p1369
(dp1370
g5
S'D'
sg6
((NI0
ttp1371
sg8
I302
sg10
I13
sba(ibeta_strands
Comp
p1372
(dp1373
g5
S'Q'
sg6
((I0
Nttp1374
sg8
I422
sg10
I12
sba(ibeta_strands
Comp
p1375
(dp1376
g5
S'N'
sg6
((NI0
ttp1377
sg8
I214
sg10
I11
sba(ibeta_strands
Comp
p1378
(dp1379
g5
S'C'
sg6
((NI0
ttp1380
sg8
I416
sg10
I10
sba(ibeta_strands
Comp
p1381
(dp1382
g5
S'W'
sg6
((I0
Nttp1383
sg8
I457
sg10
I10
sba(ibeta_strands
Comp
p1384
(dp1385
g5
S'R'
sg6
((NI0
ttp1386
sg8
I511
sg10
I10
sba(ibeta_strands
Comp
p1387
(dp1388
g5
S'Y'
sg6
((I0
Nttp1389
sg8
I591
sg10
I10
sba(ibeta_strands
Comp
p1390
(dp1391
g5
S'W'
sg6
((NI0
ttp1392
sg8
I617
sg10
I10
sba(ibeta_strands
Comp
p1393
(dp1394
g5
S'H'
sg6
((I0
Nttp1395
sg8
I314
sg10
I8
sba(ibeta_strands
Comp
p1396
(dp1397
g5
S'R'
sg6
((I0
Nttp1398
sg8
I521
sg10
I7
sba(ibeta_strands
Comp
p1399
(dp1400
g5
S'T'
sg6
((NI0
ttp1401
sg8
I1029
sg10
I7
sba(ibeta_strands
Comp
p1402
(dp1403
g5
S'C'
sg6
((I0
Nttp1404
sg8
I296
sg10
I6
sba(ibeta_strands
Comp
p1405
(dp1406
g5
S'Q'
sg6
((NI0
ttp1407
sg8
I329
sg10
I6
sba(ibeta_strands
Comp
p1408
(dp1409
g5
S'E'
sg6
((NI0
ttp1410
sg8
I444
sg10
I6
sba(ibeta_strands
Comp
p1411
(dp1412
g5
S'K'
sg6
((I0
Nttp1413
sg8
I686
sg10
I5
sba(ibeta_strands
Comp
p1414
(dp1415
g5
S'G'
sg6
((I1
I1
ttp1416
sg8
I0
sg10
I3
sba(ibeta_strands
Comp
p1417
(dp1418
g5
S'M'
sg6
((NI0
ttp1419
sg8
I375
sg10
I3
sba(ibeta_strands
Comp
p1420
(dp1421
g5
S'Y'
sg6
((NI-1
ttp1422
sg8
I-2
sg10
I2
sba(ibeta_strands
Comp
p1423
(dp1424
g5
S'H'
sg6
((NI0
ttp1425
sg8
I270
sg10
I2
sba(ibeta_strands
Comp
p1426
(dp1427
g5
S'P'
sg6
((I0
I-1
ttp1428
sg8
I-1
sg10
I1
sba(ibeta_strands
Comp
p1429
(dp1430
g5
S'V'
sg6
((I0
I1
ttp1431
sg8
I-1
sg10
I1
sba(ibeta_strands
Comp
p1432
(dp1433
g5
S'P'
sg6
((I0
I1
ttp1434
sg8
I-1
sg10
I1
sba(ibeta_strands
Comp
p1435
(dp1436
g5
S'A'
sg6
((I-1
Nttp1437
sg8
I-1
sg10
I1
sba(ibeta_strands
Comp
p1438
(dp1439
g5
S'K'
sg6
((NI0
ttp1440
sg8
I459
sg10
I1
sbasS'F'
(lp1441
(ibeta_strands
Comp
p1442
(dp1443
g5
S'V'
sg6
((I0
I0
ttp1444
sg8
I102143
sg9
F1.2114191770474054
sg10
I8350
sg11
g12
(g14
S'R\xd6\x98K\x9a\xa2\x99.'
tRp1445
sba(ibeta_strands
Comp
p1446
(dp1447
g5
S'L'
sg6
((I0
I0
ttp1448
sg8
I79703
sg9
F1.1129803141086059
sg10
I5946
sg11
g12
(g14
S'\\\x97\xb4]|\x04\x12<'
tRp1449
sba(ibeta_strands
Comp
p1450
(dp1451
g5
S'V'
sg6
((NNttp1452
sg8
I95926
sg9
F1.0164748053765507
sg10
I5788
sg11
g12
(g14
S'lA\x10\xc7\xa7\x15\xc6?'
tRp1453
sba(ibeta_strands
Comp
p1454
(dp1455
g5
S'I'
sg6
((I0
I0
ttp1456
sg8
I69167
sg9
F1.2026074029529268
sg10
I5608
sg11
g12
(g14
S'\x83\xcfx\xe7`\xa8\x935'
tRp1457
sba(ibeta_strands
Comp
p1458
(dp1459
g5
S'L'
sg6
((NNttp1460
sg8
I77434
sg9
F1.1285253337571932
sg10
I5222
sg11
g12
(g14
S't7r\x1e\xcf\xea\xa2;'
tRp1461
sba(ibeta_strands
Comp
p1462
(dp1463
g5
S'F'
sg6
((I0
I0
ttp1464
sg8
I47338
sg9
F1.5068406001000727
sg10
I4921
sg11
g12
(g14
S'\xeb6Y\x96\xa3s\x9d\x14'
tRp1465
sba(ibeta_strands
Comp
p1466
(dp1467
g5
S'I'
sg6
((NNttp1468
sg8
I67137
sg9
F1.1096857187081091
sg10
I4447
sg11
g12
(g14
S'\xe1\xce\xf2\xca\xa9\xb63='
tRp1469
sba(ibeta_strands
Comp
p1470
(dp1471
g5
S'Y'
sg6
((I0
I0
ttp1472
sg8
I46596
sg9
F1.2511359244900333
sg10
I3952
sg11
g12
(g14
S' \xa3\xe8\xe2iw}5'
tRp1473
sba(ibeta_strands
Comp
p1474
(dp1475
g5
S'G'
sg6
((I0
I0
ttp1476
sg8
I41319
sg9
F1.3844563226603748
sg10
I3908
sg11
g12
(g14
S'\x01\x04N\xfe\xe4\xe5s*'
tRp1477
sba(ibeta_strands
Comp
p1478
(dp1479
g5
S'A'
sg6
((NNttp1480
sg8
I44617
sg9
F1.2941615071771135
sg10
I3485
sg11
g12
(g14
S'?.R(u\x9d\xd23'
tRp1481
sba(ibeta_strands
Comp
p1482
(dp1483
g5
S'A'
sg6
((I0
I0
ttp1484
sg8
I51343
sg9
F0.96266997746550231
sg10
I3279
sg11
g12
(g14
S'\xe7\xc2[PG\xf6\x94?'
tRp1485
sba(ibeta_strands
Comp
p1486
(dp1487
g5
S'F'
sg6
((NNttp1488
sg8
I40702
sg9
F1.3249891072433351
sg10
I3261
sg11
g12
(g14
S'\xb6\xea\x92I\xce\x95\x852'
tRp1489
sba(ibeta_strands
Comp
p1490
(dp1491
g5
S'Y'
sg6
((NNttp1492
sg8
I41036
sg9
F1.0469908884722439
sg10
I2555
sg11
g12
(g14
S'oQ.M\x9fr\x8d?'
tRp1493
sba(ibeta_strands
Comp
p1494
(dp1495
g5
S'T'
sg6
((I0
I0
ttp1496
sg8
I53090
sg9
F0.64458694173119613
sg10
I2225
sg11
g12
(g14
S'\xc1\xf7\x14\xd0\xc2?5)'
tRp1497
sba(ibeta_strands
Comp
p1498
(dp1499
g5
S'S'
sg6
((I0
I0
ttp1500
sg8
I44919
sg9
F0.68653444752237958
sg10
I2013
sg11
g12
(g14
S'\x8a]\x13\xc4/\x94\xff0'
tRp1501
sba(ibeta_strands
Comp
p1502
(dp1503
g5
S'G'
sg6
((NNttp1504
sg8
I26706
sg9
F1.1986719889138238
sg10
I1921
sg11
g12
(g14
S'\xc4\xf7\xe7xA\x15\x98<'
tRp1505
sba(ibeta_strands
Comp
p1506
(dp1507
g5
S'S'
sg6
((NNttp1508
sg8
I40609
sg9
F0.78353603104585023
sg10
I1863
sg11
g12
(g14
S'\xdc\xee/\x046\x84\x14:'
tRp1509
sba(ibeta_strands
Comp
p1510
(dp1511
g5
S'T'
sg6
((NNttp1512
sg8
I56741
sg9
F0.54065776903305052
sg10
I1771
sg11
g12
(g14
S'\xf6\xe4Z\xca3?\xf8\x1b'
tRp1513
sba(ibeta_strands
Comp
p1514
(dp1515
g5
S'E'
sg6
((NNttp1516
sg8
I36112
sg9
F0.81481956467491923
sg10
I1726
sg11
g12
(g14
S'v1!t\x80\x06\x14<'
tRp1517
sba(ibeta_strands
Comp
p1518
(dp1519
g5
S'R'
sg6
((I0
I0
ttp1520
sg8
I39745
sg9
F0.65908566389630274
sg10
I1703
sg11
g12
(g14
S'\xba\x80\x0c\xdf^\xebz0'
tRp1521
sba(ibeta_strands
Comp
p1522
(dp1523
g5
S'R'
sg6
((NNttp1524
sg8
I35177
sg9
F0.81791285477940601
sg10
I1688
sg11
g12
(g14
S'\xac\xdb=Y\xf41L<'
tRp1525
sba(ibeta_strands
Comp
p1526
(dp1527
g5
S'P'
sg6
((NNttp1528
sg8
I19310
sg9
F1.3762922664176092
sg10
I1612
sg11
g12
(g14
S'\xf8\xe8\xe9\xb7\x018\x907'
tRp1529
sba(ibeta_strands
Comp
p1530
(dp1531
g5
S'K'
sg6
((NNttp1532
sg8
I35272
sg9
F0.72772452836031654
sg10
I1498
sg11
g12
(g14
S'\xc2N5\xdf\xbf\xc6\x0c8'
tRp1533
sba(ibeta_strands
Comp
p1534
(dp1535
g5
S'K'
sg6
((I0
I0
ttp1536
sg8
I40246
sg9
F0.56755188473406948
sg10
I1476
sg11
g12
(g14
S"\x83\x00\xcf\x7fH\xf1\x0b'"
tRp1537
sba(ibeta_strands
Comp
p1538
(dp1539
g5
S'M'
sg6
((NNttp1540
sg8
I13956
sg9
F1.6675633001268546
sg10
I1437
sg11
g12
(g14
S'\xe9g6c\x1d*\xf7,'
tRp1541
sba(ibeta_strands
Comp
p1542
(dp1543
g5
S'E'
sg6
((I0
I0
ttp1544
sg8
I38959
sg9
F0.55633571436472484
sg10
I1400
sg11
g12
(g14
S'\xbe\xb5Q[Jl\xa2&'
tRp1545
sba(ibeta_strands
Comp
p1546
(dp1547
g5
S'C'
sg6
((I0
I0
ttp1548
sg8
I15445
sg9
F1.2025389361218035
sg10
I1256
sg11
g12
(g14
S'J}\xae\xb26/\xa5='
tRp1549
sba(ibeta_strands
Comp
p1550
(dp1551
g5
S'W'
sg6
((I0
I0
ttp1552
sg8
I14994
sg9
F1.2278298815170769
sg10
I1246
sg11
g12
(g14
S'\xfd[\n\x0f\xee\x15(='
tRp1553
sba(ibeta_strands
Comp
p1554
(dp1555
g5
S'Q'
sg6
((I0
I0
ttp1556
sg8
I26766
sg9
F0.68178483965564962
sg10
I1188
sg11
g12
(g14
S'\xfb\xe4o\xe0OE\xea6'
tRp1557
sba(ibeta_strands
Comp
p1558
(dp1559
g5
S'W'
sg6
((NNttp1560
sg8
I18013
sg9
F1.1034557198949184
sg10
I1186
sg11
g12
(g14
S'\x05@\xbe\x1d\x96s<?'
tRp1561
sba(ibeta_strands
Comp
p1562
(dp1563
g5
S'Q'
sg6
((NNttp1564
sg8
I22488
sg9
F0.86255963742732589
sg10
I1141
sg11
g12
(g14
S'\xce\x83\x0c?\xedc\x89>'
tRp1565
sba(ibeta_strands
Comp
p1566
(dp1567
g5
S'M'
sg6
((I0
I0
ttp1568
sg8
I15275
sg9
F1.081317426162933
sg10
I1105
sg11
g12
(g14
S'I\xbcr\xd9*\xdb|?'
tRp1569
sba(ibeta_strands
Comp
p1570
(dp1571
g5
S'H'
sg6
((I0
I0
ttp1572
sg8
I18982
sg9
F0.83725336199917277
sg10
I1046
sg11
g12
(g14
S'\x85\xc1\xee\xe8\x95/!>'
tRp1573
sba(ibeta_strands
Comp
p1574
(dp1575
g5
S'C'
sg6
((NNttp1576
sg8
I17564
sg9
F0.96313674858395093
sg10
I1001
sg11
g12
(g14
S'Ln\xdfe\x8fd\xcc?'
tRp1577
sba(ibeta_strands
Comp
p1578
(dp1579
g5
S'N'
sg6
((I0
I0
ttp1580
sg8
I17942
sg9
F0.7319235729637773
sg10
I859
sg11
g12
(g14
S'__u\xb7\x1d\xea\x92;'
tRp1581
sba(ibeta_strands
Comp
p1582
(dp1583
g5
S'D'
sg6
((NNttp1584
sg8
I19403
sg9
F0.7353077789627378
sg10
I833
sg11
g12
(g14
S'\xc7\xa6\xfbY\\\x19\xd5;'
tRp1585
sba(ibeta_strands
Comp
p1586
(dp1587
g5
S'N'
sg6
((NNttp1588
sg8
I18395
sg9
F0.74625943194919164
sg10
I802
sg11
g12
(g14
S'm\xfaY\xafpSW<'
tRp1589
sba(ibeta_strands
Comp
p1590
(dp1591
g5
S'D'
sg6
((I0
I0
ttp1592
sg8
I22504
sg9
F0.53560261151384658
sg10
I778
sg11
g12
(g14
S'\x9d\xb6\xb0q\xeeB/0'
tRp1593
sba(ibeta_strands
Comp
p1594
(dp1595
g5
S'H'
sg6
((NNttp1596
sg8
I14740
sg9
F0.83850845219675707
sg10
I726
sg11
g12
(g14
S'\\K1\xc3!\xc0\xac>'
tRp1597
sba(ibeta_strands
Comp
p1598
(dp1599
g5
S'L'
sg6
((I0
Nttp1600
sg8
I2176
sg10
I330
sba(ibeta_strands
Comp
p1601
(dp1602
g5
S'V'
sg6
((I0
Nttp1603
sg8
I3429
sg10
I290
sba(ibeta_strands
Comp
p1604
(dp1605
g5
S'I'
sg6
((I0
Nttp1606
sg8
I2695
sg10
I266
sba(ibeta_strands
Comp
p1607
(dp1608
g5
S'P'
sg6
((I0
Nttp1609
sg8
I1099
sg10
I155
sba(ibeta_strands
Comp
p1610
(dp1611
g5
S'L'
sg6
((NI0
ttp1612
sg8
I2312
sg10
I138
sba(ibeta_strands
Comp
p1613
(dp1614
g5
S'V'
sg6
((NI0
ttp1615
sg8
I2957
sg10
I137
sba(ibeta_strands
Comp
p1616
(dp1617
g5
S'F'
sg6
((NI0
ttp1618
sg8
I1655
sg10
I135
sba(ibeta_strands
Comp
p1619
(dp1620
g5
S'F'
sg6
((I0
Nttp1621
sg8
I799
sg10
I134
sba(ibeta_strands
Comp
p1622
(dp1623
g5
S'Y'
sg6
((NI0
ttp1624
sg8
I1809
sg10
I123
sba(ibeta_strands
Comp
p1625
(dp1626
g5
S'I'
sg6
((NI0
ttp1627
sg8
I1926
sg10
I100
sba(ibeta_strands
Comp
p1628
(dp1629
g5
S'E'
sg6
((I0
Nttp1630
sg8
I691
sg10
I74
sba(ibeta_strands
Comp
p1631
(dp1632
g5
S'K'
sg6
((I0
Nttp1633
sg8
I618
sg10
I73
sba(ibeta_strands
Comp
p1634
(dp1635
g5
S'A'
sg6
((NI0
ttp1636
sg8
I990
sg10
I69
sba(ibeta_strands
Comp
p1637
(dp1638
g5
S'A'
sg6
((I0
Nttp1639
sg8
I827
sg10
I61
sba(ibeta_strands
Comp
p1640
(dp1641
g5
S'Y'
sg6
((I0
Nttp1642
sg8
I545
sg10
I56
sba(ibeta_strands
Comp
p1643
(dp1644
g5
S'S'
sg6
((I0
Nttp1645
sg8
I474
sg10
I55
sba(ibeta_strands
Comp
p1646
(dp1647
g5
S'R'
sg6
((I0
Nttp1648
sg8
I483
sg10
I45
sba(ibeta_strands
Comp
p1649
(dp1650
g5
S'H'
sg6
((I0
Nttp1651
sg8
I283
sg10
I39
sba(ibeta_strands
Comp
p1652
(dp1653
g5
S'T'
sg6
((I0
Nttp1654
sg8
I878
sg10
I38
sba(ibeta_strands
Comp
p1655
(dp1656
g5
S'G'
sg6
((I0
Nttp1657
sg8
I262
sg10
I34
sba(ibeta_strands
Comp
p1658
(dp1659
g5
S'W'
sg6
((NI0
ttp1660
sg8
I593
sg10
I34
sba(ibeta_strands
Comp
p1661
(dp1662
g5
S'Q'
sg6
((I0
Nttp1663
sg8
I401
sg10
I33
sba(ibeta_strands
Comp
p1664
(dp1665
g5
S'W'
sg6
((I0
Nttp1666
sg8
I434
sg10
I33
sba(ibeta_strands
Comp
p1667
(dp1668
g5
S'M'
sg6
((I0
Nttp1669
sg8
I276
sg10
I28
sba(ibeta_strands
Comp
p1670
(dp1671
g5
S'C'
sg6
((I0
Nttp1672
sg8
I275
sg10
I27
sba(ibeta_strands
Comp
p1673
(dp1674
g5
S'G'
sg6
((NI0
ttp1675
sg8
I674
sg10
I27
sba(ibeta_strands
Comp
p1676
(dp1677
g5
S'R'
sg6
((NI0
ttp1678
sg8
I496
sg10
I25
sba(ibeta_strands
Comp
p1679
(dp1680
g5
S'T'
sg6
((NI0
ttp1681
sg8
I1012
sg10
I24
sba(ibeta_strands
Comp
p1682
(dp1683
g5
S'M'
sg6
((NI0
ttp1684
sg8
I357
sg10
I21
sba(ibeta_strands
Comp
p1685
(dp1686
g5
S'P'
sg6
((NI1
ttp1687
sg8
I-19
sg10
I19
sba(ibeta_strands
Comp
p1688
(dp1689
g5
S'S'
sg6
((NI0
ttp1690
sg8
I783
sg10
I18
sba(ibeta_strands
Comp
p1691
(dp1692
g5
S'D'
sg6
((NI0
ttp1693
sg8
I299
sg10
I16
sba(ibeta_strands
Comp
p1694
(dp1695
g5
S'K'
sg6
((NI0
ttp1696
sg8
I444
sg10
I16
sba(ibeta_strands
Comp
p1697
(dp1698
g5
S'C'
sg6
((NI0
ttp1699
sg8
I411
sg10
I15
sba(ibeta_strands
Comp
p1700
(dp1701
g5
S'E'
sg6
((NI0
ttp1702
sg8
I437
sg10
I13
sba(ibeta_strands
Comp
p1703
(dp1704
g5
S'N'
sg6
((I0
Nttp1705
sg8
I265
sg10
I11
sba(ibeta_strands
Comp
p1706
(dp1707
g5
S'P'
sg6
((I0
I1
ttp1708
sg8
I-10
sg10
I10
sba(ibeta_strands
Comp
p1709
(dp1710
g5
S'H'
sg6
((NI0
ttp1711
sg8
I263
sg10
I9
sba(ibeta_strands
Comp
p1712
(dp1713
g5
S'N'
sg6
((NI0
ttp1714
sg8
I217
sg10
I8
sba(ibeta_strands
Comp
p1715
(dp1716
g5
S'D'
sg6
((I0
Nttp1717
sg8
I294
sg10
I8
sba(ibeta_strands
Comp
p1718
(dp1719
g5
S'Q'
sg6
((NI0
ttp1720
sg8
I330
sg10
I5
sba(ibeta_strands
Comp
p1721
(dp1722
g5
S'F'
sg6
((NI1
ttp1723
sg8
I-2
sg10
I2
sba(ibeta_strands
Comp
p1724
(dp1725
g5
S'Y'
sg6
((I0
I1
ttp1726
sg8
I-2
sg10
I2
sba(ibeta_strands
Comp
p1727
(dp1728
g5
S'L'
sg6
((I0
I-1
ttp1729
sg8
I-1
sg10
I1
sbasS'I'
(lp1730
(ibeta_strands
Comp
p1731
(dp1732
g5
S'V'
sg6
((NNttp1733
sg8
I88547
sg9
F1.4201240748929902
sg10
I13167
sg11
g12
(g14
S'\x00\x00\x00\x00\x00\x00\x00\x00'
tRp1734
sba(ibeta_strands
Comp
p1735
(dp1736
g5
S'I'
sg6
((NNttp1737
sg8
I60457
sg9
F1.7052274444427613
sg10
I11127
sg11
g12
(g14
S'\x00\x00\x00\x00\x00\x00\x00\x00'
tRp1738
sba(ibeta_strands
Comp
p1739
(dp1740
g5
S'L'
sg6
((I0
I0
ttp1741
sg8
I75672
sg9
F1.3078696743803353
sg10
I9977
sg11
g12
(g14
S'\x93\xa3\xf8h \xb4\xc7\x17'
tRp1742
sba(ibeta_strands
Comp
p1743
(dp1744
g5
S'V'
sg6
((I0
I0
ttp1745
sg8
I100587
sg9
F1.006487098379909
sg10
I9906
sg11
g12
(g14
S'\x82\x0b\xff|7C\xde?'
tRp1746
sba(ibeta_strands
Comp
p1747
(dp1748
g5
S'I'
sg6
((I0
I0
ttp1749
sg8
I65018
sg9
F1.4653254504517619
sg10
I9757
sg11
g12
(g14
S'\x00\x00\x00\x00\x00\x00\x00\x00'
tRp1750
sba(ibeta_strands
Comp
p1751
(dp1752
g5
S'L'
sg6
((NNttp1753
sg8
I73752
sg9
F1.1817645413336677
sg10
I8904
sg11
g12
(g14
S'<\xf9Qo\xde\x9b\xdd1'
tRp1754
sba(ibeta_strands
Comp
p1755
(dp1756
g5
S'F'
sg6
((I0
I0
ttp1757
sg8
I46650
sg9
F1.2028218479249226
sg10
I5609
sg11
g12
(g14
S' +\x97\xa0R\xfb\x8e5'
tRp1758
sba(ibeta_strands
Comp
p1759
(dp1760
g5
S'A'
sg6
((NNttp1761
sg8
I42549
sg9
F1.2664403163045514
sg10
I5553
sg11
g12
(g14
S'\xaa\x89\\\x19\x03\x0e6/'
tRp1762
sba(ibeta_strands
Comp
p1763
(dp1764
g5
S'A'
sg6
((I0
I0
ttp1765
sg8
I49304
sg9
F1.0934181128896578
sg10
I5318
sg11
g12
(g14
S'{W\x1f\x08%9\x7f='
tRp1766
sba(ibeta_strands
Comp
p1767
(dp1768
g5
S'Y'
sg6
((I0
I0
ttp1769
sg8
I45644
sg9
F1.0872763454669263
sg10
I4904
sg11
g12
(g14
S'\xcb\x80\xb2\t\xcb4\xf1='
tRp1770
sba(ibeta_strands
Comp
p1771
(dp1772
g5
S'F'
sg6
((NNttp1773
sg8
I39521
sg9
F1.1084380396899978
sg10
I4442
sg11
g12
(g14
S'\xcd\x89\x05\x84\xe9\xcdB='
tRp1774
sba(ibeta_strands
Comp
p1775
(dp1776
g5
S'G'
sg6
((I0
I0
ttp1777
sg8
I41120
sg9
F1.0189463702172874
sg10
I4107
sg11
g12
(g14
S'`Z\xa1\xd3\xf0Y\xc9?'
tRp1778
sba(ibeta_strands
Comp
p1779
(dp1780
g5
S'T'
sg6
((I0
I0
ttp1781
sg8
I51658
sg9
F0.74195637027684891
sg10
I3657
sg11
g12
(g14
S'5\xf5t%\xb1FE.'
tRp1782
sba(ibeta_strands
Comp
p1783
(dp1784
g5
S'T'
sg6
((NNttp1785
sg8
I55035
sg9
F0.65189843097072941
sg10
I3477
sg11
g12
(g14
S'Q\xa2\x13\x14!\x17\xfe\x1c'
tRp1786
sba(ibeta_strands
Comp
p1787
(dp1788
g5
S'Y'
sg6
((NNttp1789
sg8
I40466
sg9
F0.78645409421129175
sg10
I3125
sg11
g12
(g14
S'\xbc\x05xL\xddI*6'
tRp1790
sba(ibeta_strands
Comp
p1791
(dp1792
g5
S'K'
sg6
((I0
I0
ttp1793
sg8
I38722
sg9
F0.80787168563159284
sg10
I3000
sg11
g12
(g14
S't\xaa\xb3\xc6\xcf[\x8f8'
tRp1794
sba(ibeta_strands
Comp
p1795
(dp1796
g5
S'R'
sg6
((I0
I0
ttp1797
sg8
I38747
sg9
F0.73207187308130084
sg10
I2701
sg11
g12
(g14
S'\x1f\xa1H\xfa\xf5#\xe21'
tRp1798
sba(ibeta_strands
Comp
p1799
(dp1800
g5
S'S'
sg6
((I0
I0
ttp1801
sg8
I44293
sg9
F0.6303182305919296
sg10
I2639
sg11
g12
(g14
S'\xdeF\xf0\xfe\xc9\x10\xa5!'
tRp1802
sba(ibeta_strands
Comp
p1803
(dp1804
g5
S'E'
sg6
((I0
I0
ttp1805
sg8
I37757
sg9
F0.72413262897951125
sg10
I2602
sg11
g12
(g14
S'\xe9$\x01m\xb8\xcfs1'
tRp1806
sba(ibeta_strands
Comp
p1807
(dp1808
g5
S'R'
sg6
((NNttp1809
sg8
I34330
sg9
F0.7543691394364328
sg10
I2535
sg11
g12
(g14
S'\xa4\x85\xa9\xc0\xd8\x07!5'
tRp1810
sba(ibeta_strands
Comp
p1811
(dp1812
g5
S'S'
sg6
((NNttp1813
sg8
I39957
sg9
F0.64961413342039942
sg10
I2515
sg11
g12
(g14
S']\xed\xb2\xff\xc5\x15\xb8&'
tRp1814
sba(ibeta_strands
Comp
p1815
(dp1816
g5
S'G'
sg6
((NNttp1817
sg8
I26165
sg9
F0.94347934887676099
sg10
I2462
sg11
g12
(g14
S',\x179\xacA@a?'
tRp1818
sba(ibeta_strands
Comp
p1819
(dp1820
g5
S'K'
sg6
((NNttp1821
sg8
I34368
sg9
F0.71663755148807073
sg10
I2402
sg11
g12
(g14
S'\xb4\x06\xec8\x95l\xa91'
tRp1822
sba(ibeta_strands
Comp
p1823
(dp1824
g5
S'E'
sg6
((NNttp1825
sg8
I35454
sg9
F0.69119130510578675
sg10
I2384
sg11
g12
(g14
S'6_*\xfa\xa1\xa2\x84.'
tRp1826
sba(ibeta_strands
Comp
p1827
(dp1828
g5
S'M'
sg6
((I0
I0
ttp1829
sg8
I14317
sg9
F1.413813328845974
sg10
I2063
sg11
g12
(g14
S'\xcc\xe5f\xce\x86\xe1\x113'
tRp1830
sba(ibeta_strands
Comp
p1831
(dp1832
g5
S'Q'
sg6
((I0
I0
ttp1833
sg8
I26138
sg9
F0.72987529400490991
sg10
I1816
sg11
g12
(g14
S'\xa3\xac\xd3\xbd\x06od6'
tRp1834
sba(ibeta_strands
Comp
p1835
(dp1836
g5
S'W'
sg6
((I0
I0
ttp1837
sg8
I14517
sg9
F1.1890698119517051
sg10
I1723
sg11
g12
(g14
S'\xa8#g\xab\xab\x98 ='
tRp1838
sba(ibeta_strands
Comp
p1839
(dp1840
g5
S'H'
sg6
((I0
I0
ttp1841
sg8
I18500
sg9
F0.85654560214602338
sg10
I1528
sg11
g12
(g14
S'\x98R\x0f\t\xf6\xae\xe3='
tRp1842
sba(ibeta_strands
Comp
p1843
(dp1844
g5
S'M'
sg6
((NNttp1845
sg8
I13891
sg9
F1.0704511457829018
sg10
I1502
sg11
g12
(g14
S'\xdaY\xa9#S(v?'
tRp1846
sba(ibeta_strands
Comp
p1847
(dp1848
g5
S'P'
sg6
((NNttp1849
sg8
I19549
sg9
F0.71992545168086486
sg10
I1373
sg11
g12
(g14
S'\x97\x10\xe4\xce\xd6z\x128'
tRp1850
sba(ibeta_strands
Comp
p1851
(dp1852
g5
S'C'
sg6
((NNttp1853
sg8
I17224
sg9
F0.79241741658811882
sg10
I1341
sg11
g12
(g14
S'_w\x1fJ\x9d\xa7\x04<'
tRp1854
sba(ibeta_strands
Comp
p1855
(dp1856
g5
S'D'
sg6
((I0
I0
ttp1857
sg8
I21971
sg9
F0.63207367122353075
sg10
I1311
sg11
g12
(g14
S'AD\x10\xe2\xb0\xefa1'
tRp1858
sba(ibeta_strands
Comp
p1859
(dp1860
g5
S'Q'
sg6
((NNttp1861
sg8
I22353
sg9
F0.59241428220434744
sg10
I1276
sg11
g12
(g14
S'=Q\xa6x\x1d\x17]-'
tRp1862
sba(ibeta_strands
Comp
p1863
(dp1864
g5
S'C'
sg6
((I0
I0
ttp1865
sg8
I15530
sg9
F0.78517836130330154
sg10
I1171
sg11
g12
(g14
S'\xd9\xea\x1f]\xc6\x15A<'
tRp1866
sba(ibeta_strands
Comp
p1867
(dp1868
g5
S'H'
sg6
((NNttp1869
sg8
I14411
sg9
F0.74833256007048155
sg10
I1055
sg11
g12
(g14
S'9\xa9\xe0\xe6\xa8\xff2;'
tRp1870
sba(ibeta_strands
Comp
p1871
(dp1872
g5
S'W'
sg6
((NNttp1873
sg8
I18192
sg9
F0.57540157989411567
sg10
I1007
sg11
g12
(g14
S'\x8b>N\xed\xe9\xf1\xa0/'
tRp1874
sba(ibeta_strands
Comp
p1875
(dp1876
g5
S'N'
sg6
((I0
I0
ttp1877
sg8
I17815
sg9
F0.58837119874292088
sg10
I986
sg11
g12
(g14
S'\xa5+\xdf\x01%;M1'
tRp1878
sba(ibeta_strands
Comp
p1879
(dp1880
g5
S'N'
sg6
((NNttp1881
sg8
I18216
sg9
F0.56060353318155787
sg10
I981
sg11
g12
(g14
S'#N\xe8\x04(A}.'
tRp1882
sba(ibeta_strands
Comp
p1883
(dp1884
g5
S'D'
sg6
((NNttp1885
sg8
I19280
sg9
F0.51826682462543239
sg10
I956
sg11
g12
(g14
S'C).\xa2\xfe\x05\xdd)'
tRp1886
sba(ibeta_strands
Comp
p1887
(dp1888
g5
S'V'
sg6
((NI0
ttp1889
sg8
I2477
sg10
I617
sba(ibeta_strands
Comp
p1890
(dp1891
g5
S'V'
sg6
((I0
Nttp1892
sg8
I3220
sg10
I499
sba(ibeta_strands
Comp
p1893
(dp1894
g5
S'L'
sg6
((NI0
ttp1895
sg8
I2019
sg10
I431
sba(ibeta_strands
Comp
p1896
(dp1897
g5
S'I'
sg6
((NI0
ttp1898
sg8
I1616
sg10
I410
sba(ibeta_strands
Comp
p1899
(dp1900
g5
S'I'
sg6
((I0
Nttp1901
sg8
I2554
sg10
I407
sba(ibeta_strands
Comp
p1902
(dp1903
g5
S'F'
sg6
((NI0
ttp1904
sg8
I1519
sg10
I271
sba(ibeta_strands
Comp
p1905
(dp1906
g5
S'L'
sg6
((I0
Nttp1907
sg8
I2257
sg10
I249
sba(ibeta_strands
Comp
p1908
(dp1909
g5
S'A'
sg6
((NI0
ttp1910
sg8
I860
sg10
I199
sba(ibeta_strands
Comp
p1911
(dp1912
g5
S'T'
sg6
((NI0
ttp1913
sg8
I859
sg10
I177
sba(ibeta_strands
Comp
p1914
(dp1915
g5
S'Y'
sg6
((NI0
ttp1916
sg8
I1758
sg10
I174
sba(ibeta_strands
Comp
p1917
(dp1918
g5
S'G'
sg6
((NI0
ttp1919
sg8
I565
sg10
I136
sba(ibeta_strands
Comp
p1920
(dp1921
g5
S'T'
sg6
((I0
Nttp1922
sg8
I810
sg10
I106
sba(ibeta_strands
Comp
p1923
(dp1924
g5
S'S'
sg6
((NI0
ttp1925
sg8
I699
sg10
I102
sba(ibeta_strands
Comp
p1926
(dp1927
g5
S'F'
sg6
((I0
Nttp1928
sg8
I834
sg10
I99
sba(ibeta_strands
Comp
p1929
(dp1930
g5
S'A'
sg6
((I0
Nttp1931
sg8
I812
sg10
I76
sba(ibeta_strands
Comp
p1932
(dp1933
g5
S'C'
sg6
((NI0
ttp1934
sg8
I354
sg10
I72
sba(ibeta_strands
Comp
p1935
(dp1936
g5
S'E'
sg6
((I0
Nttp1937
sg8
I695
sg10
I70
sba(ibeta_strands
Comp
p1938
(dp1939
g5
S'W'
sg6
((I0
Nttp1940
sg8
I400
sg10
I67
sba(ibeta_strands
Comp
p1941
(dp1942
g5
S'P'
sg6
((I0
Nttp1943
sg8
I1187
sg10
I67
sba(ibeta_strands
Comp
p1944
(dp1945
g5
S'M'
sg6
((NI0
ttp1946
sg8
I312
sg10
I66
sba(ibeta_strands
Comp
p1947
(dp1948
g5
S'R'
sg6
((NI0
ttp1949
sg8
I461
sg10
I60
sba(ibeta_strands
Comp
p1950
(dp1951
g5
S'S'
sg6
((I0
Nttp1952
sg8
I473
sg10
I56
sba(ibeta_strands
Comp
p1953
(dp1954
g5
S'D'
sg6
((NI0
ttp1955
sg8
I263
sg10
I52
sba(ibeta_strands
Comp
p1956
(dp1957
g5
S'Y'
sg6
((I0
Nttp1958
sg8
I549
sg10
I52
sba(ibeta_strands
Comp
p1959
(dp1960
g5
S'K'
sg6
((NI0
ttp1961
sg8
I409
sg10
I51
sba(ibeta_strands
Comp
p1962
(dp1963
g5
S'K'
sg6
((I0
Nttp1964
sg8
I645
sg10
I46
sba(ibeta_strands
Comp
p1965
(dp1966
g5
S'E'
sg6
((NI0
ttp1967
sg8
I405
sg10
I45
sba(ibeta_strands
Comp
p1968
(dp1969
g5
S'M'
sg6
((I0
Nttp1970
sg8
I261
sg10
I43
sba(ibeta_strands
Comp
p1971
(dp1972
g5
S'R'
sg6
((I0
Nttp1973
sg8
I485
sg10
I43
sba(ibeta_strands
Comp
p1974
(dp1975
g5
S'W'
sg6
((NI0
ttp1976
sg8
I585
sg10
I42
sba(ibeta_strands
Comp
p1977
(dp1978
g5
S'H'
sg6
((I0
Nttp1979
sg8
I287
sg10
I35
sba(ibeta_strands
Comp
p1980
(dp1981
g5
S'G'
sg6
((I0
Nttp1982
sg8
I265
sg10
I31
sba(ibeta_strands
Comp
p1983
(dp1984
g5
S'C'
sg6
((I0
Nttp1985
sg8
I272
sg10
I30
sba(ibeta_strands
Comp
p1986
(dp1987
g5
S'Q'
sg6
((I0
Nttp1988
sg8
I410
sg10
I24
sba(ibeta_strands
Comp
p1989
(dp1990
g5
S'Q'
sg6
((NI0
ttp1991
sg8
I312
sg10
I23
sba(ibeta_strands
Comp
p1992
(dp1993
g5
S'H'
sg6
((NI0
ttp1994
sg8
I255
sg10
I17
sba(ibeta_strands
Comp
p1995
(dp1996
g5
S'N'
sg6
((I0
Nttp1997
sg8
I259
sg10
I17
sba(ibeta_strands
Comp
p1998
(dp1999
g5
S'N'
sg6
((NI0
ttp2000
sg8
I209
sg10
I16
sba(ibeta_strands
Comp
p2001
(dp2002
g5
S'D'
sg6
((I0
Nttp2003
sg8
I293
sg10
I9
sba(ibeta_strands
Comp
p2004
(dp2005
g5
S'L'
sg6
((I0
I1
ttp2006
sg8
I-2
sg10
I2
sba(ibeta_strands
Comp
p2007
(dp2008
g5
S'V'
sg6
((I-1
I-1
ttp2009
sg8
I-1
sg10
I1
sba(ibeta_strands
Comp
p2010
(dp2011
g5
S'I'
sg6
((NI-1
ttp2012
sg8
I-1
sg10
I1
sba(ibeta_strands
Comp
p2013
(dp2014
g5
S'H'
sg6
((I1
Nttp2015
sg8
I0
sg10
I1
sbasS'H'
(lp2016
(ibeta_strands
Comp
p2017
(dp2018
g5
S'V'
sg6
((I0
I0
ttp2019
sg8
I108035
sg9
F0.9321828631903899
sg10
I2458
sg11
g12
(g14
S'\xbf>\xdb\xb6\xf2C%?'
tRp2020
sba(ibeta_strands
Comp
p2021
(dp2022
g5
S'T'
sg6
((I0
I0
ttp2023
sg8
I53358
sg9
F1.4820183495984158
sg10
I1957
sg11
g12
(g14
S'\xdbxl\xb4\x0f\xcc\x810'
tRp2024
sba(ibeta_strands
Comp
p2025
(dp2026
g5
S'T'
sg6
((NNttp2027
sg8
I56931
sg9
F1.3719714422660645
sg10
I1581
sg11
g12
(g14
S'\xfb\x19L\xbe_\x14\xc67'
tRp2028
sba(ibeta_strands
Comp
p2029
(dp2030
g5
S'I'
sg6
((I0
I0
ttp2031
sg8
I73247
sg9
F0.85654560214602338
sg10
I1528
sg11
g12
(g14
S'\x98R\x0f\t\xf6\xae\xe3='
tRp2032
sba(ibeta_strands
Comp
p2033
(dp2034
g5
S'S'
sg6
((I0
I0
ttp2035
sg8
I45412
sg9
F1.3551064539350579
sg10
I1520
sg11
g12
(g14
S'\x92\xbd\xf8\xe0u6\xc88'
tRp2036
sba(ibeta_strands
Comp
p2037
(dp2038
g5
S'L'
sg6
((I0
I0
ttp2039
sg8
I84208
sg9
F0.70507907505466749
sg10
I1441
sg11
g12
(g14
S'\xb6\x94,\x00\x00\x16\x8c6'
tRp2040
sba(ibeta_strands
Comp
p2041
(dp2042
g5
S'V'
sg6
((NNttp2043
sg8
I100353
sg9
F0.67941563395716054
sg10
I1361
sg11
g12
(g14
S'\x93E\x11\xde?\xe7\xce4'
tRp2044
sba(ibeta_strands
Comp
p2045
(dp2046
g5
S'S'
sg6
((NNttp2047
sg8
I41251
sg9
F1.4597251687799266
sg10
I1221
sg11
g12
(g14
S'\xab\xac\xc58JL\x1a7'
tRp2048
sba(ibeta_strands
Comp
p2049
(dp2050
g5
S'A'
sg6
((I0
I0
ttp2051
sg8
I53405
sg9
F0.93398060274195149
sg10
I1217
sg11
g12
(g14
S'\xab=\x9e\xd9\xe1\xe8\x8a?'
tRp2052
sba(ibeta_strands
Comp
p2053
(dp2054
g5
S'L'
sg6
((NNttp2055
sg8
I81476
sg9
F0.72487941590958282
sg10
I1180
sg11
g12
(g14
S'\xeaW\xa2\x9au\xd8_9'
tRp2056
sba(ibeta_strands
Comp
p2057
(dp2058
g5
S'E'
sg6
((I0
I0
ttp2059
sg8
I39214
sg9
F1.1893937691727532
sg10
I1145
sg11
g12
(g14
S'9\x8fB\xdb"\xc5\x14>'
tRp2060
sba(ibeta_strands
Comp
p2061
(dp2062
g5
S'R'
sg6
((I0
I0
ttp2063
sg8
I40362
sg9
F1.0986726408545597
sg10
I1086
sg11
g12
(g14
S'A\x8d\xd4\xe6#9V?'
tRp2064
sba(ibeta_strands
Comp
p2065
(dp2066
g5
S'I'
sg6
((NNttp2067
sg8
I70528
sg9
F0.74904188003263361
sg10
I1056
sg11
g12
(g14
S'6?\x17\x8a\xf1?9;'
tRp2068
sba(ibeta_strands
Comp
p2069
(dp2070
g5
S'F'
sg6
((I0
I0
ttp2071
sg8
I51213
sg9
F0.83725336199917277
sg10
I1046
sg11
g12
(g14
S'\x85\xc1\xee\xe8\x95/!>'
tRp2072
sba(ibeta_strands
Comp
p2073
(dp2074
g5
S'Y'
sg6
((I0
I0
ttp2075
sg8
I49519
sg9
F0.8515579358953117
sg10
I1029
sg11
g12
(g14
S'\xa9\xf9\xae9\x83\xd6t>'
tRp2076
sba(ibeta_strands
Comp
p2077
(dp2078
g5
S'G'
sg6
((I0
I0
ttp2079
sg8
I44283
sg9
F0.8741942903445411
sg10
I944
sg11
g12
(g14
S'=@\x90\n\xd4\x15\xf3>'
tRp2080
sba(ibeta_strands
Comp
p2081
(dp2082
g5
S'Y'
sg6
((NNttp2083
sg8
I42655
sg9
F1.0902777802705239
sg10
I936
sg11
g12
(g14
S'\x00\x0e\xd4\x0e.\xd8y?'
tRp2084
sba(ibeta_strands
Comp
p2085
(dp2086
g5
S'E'
sg6
((NNttp2087
sg8
I36909
sg9
F1.246653285019756
sg10
I929
sg11
g12
(g14
S'\x02L{\x80\xdf\xc7\x8f='
tRp2088
sba(ibeta_strands
Comp
p2089
(dp2090
g5
S'K'
sg6
((I0
I0
ttp2091
sg8
I40829
sg9
F0.89759812972858255
sg10
I893
sg11
g12
(g14
S'3{>\x0eL\xc2K?'
tRp2092
sba(ibeta_strands
Comp
p2093
(dp2094
g5
S'A'
sg6
((NNttp2095
sg8
I47231
sg9
F0.91941834661089139
sg10
I871
sg11
g12
(g14
S'\xaa\x8bu|\x0c\xeb\x84?'
tRp2096
sba(ibeta_strands
Comp
p2097
(dp2098
g5
S'D'
sg6
((NNttp2099
sg8
I19417
sg9
F2.0550262591322817
sg10
I819
sg11
g12
(g14
S'\xd2>\xfa\x96\t\xb2\xbf*'
tRp2100
sba(ibeta_strands
Comp
p2101
(dp2102
g5
S'H'
sg6
((I0
I0
ttp2103
sg8
I19227
sg9
F1.6759806456430721
sg10
I801
sg11
g12
(g14
S'&\xbf$\xd7\xc4\xae^5'
tRp2104
sba(ibeta_strands
Comp
p2105
(dp2106
g5
S'F'
sg6
((NNttp2107
sg8
I43237
sg9
F0.83850845219675707
sg10
I726
sg11
g12
(g14
S'\\K1\xc3!\xc0\xac>'
tRp2108
sba(ibeta_strands
Comp
p2109
(dp2110
g5
S'R'
sg6
((NNttp2111
sg8
I36152
sg9
F0.98204962977639954
sg10
I713
sg11
g12
(g14
S'\xa2\xd2D\xa8\r,\xe4?'
tRp2112
sba(ibeta_strands
Comp
p2113
(dp2114
g5
S'K'
sg6
((NNttp2115
sg8
I36088
sg9
F0.94177875540971878
sg10
I682
sg11
g12
(g14
S'\x97\x19d9\x9c\xf7\xbb?'
tRp2116
sba(ibeta_strands
Comp
p2117
(dp2118
g5
S'D'
sg6
((I0
I0
ttp2119
sg8
I22656
sg9
F1.1265453764628419
sg10
I626
sg11
g12
(g14
S'\xd3\x12z\xd11^c?'
tRp2120
sba(ibeta_strands
Comp
p2121
(dp2122
g5
S'Q'
sg6
((I0
I0
ttp2123
sg8
I27345
sg9
F0.91360708588294026
sg10
I609
sg11
g12
(g14
S'\x9fOk\xb4\xa6b\x97?'
tRp2124
sba(ibeta_strands
Comp
p2125
(dp2126
g5
S'G'
sg6
((NNttp2127
sg8
I28080
sg9
F0.97021868213124907
sg10
I547
sg11
g12
(g14
S'\x06j\x03\xd33\xbc\xde?'
tRp2128
sba(ibeta_strands
Comp
p2129
(dp2130
g5
S'P'
sg6
((NNttp2131
sg8
I20382
sg9
F1.3105352496021598
sg10
I540
sg11
g12
(g14
S'p&Bi~\xc9\xe1='
tRp2132
sba(ibeta_strands
Comp
p2133
(dp2134
g5
S'N'
sg6
((I0
I0
ttp2135
sg8
I18295
sg9
F1.1270270896281798
sg10
I506
sg11
g12
(g14
S'\xd1~\x96\xeb$\xdby?'
tRp2136
sba(ibeta_strands
Comp
p2137
(dp2138
g5
S'Q'
sg6
((NNttp2139
sg8
I23123
sg9
F1.0873348785971768
sg10
I506
sg11
g12
(g14
S'\xb6\xe3\xa3QW\xd9\xac?'
tRp2140
sba(ibeta_strands
Comp
p2141
(dp2142
g5
S'N'
sg6
((NNttp2143
sg8
I18702
sg9
F1.3092722969471804
sg10
I495
sg11
g12
(g14
S'r4\x9bj\xc2\x8f\x0f>'
tRp2144
sba(ibeta_strands
Comp
p2145
(dp2146
g5
S'W'
sg6
((I0
I0
ttp2147
sg8
I15762
sg9
F1.231287073736516
sg10
I478
sg11
g12
(g14
S'\xfd\xd8\xa3\xbd\xc6j\xce>'
tRp2148
sba(ibeta_strands
Comp
p2149
(dp2150
g5
S'H'
sg6
((NNttp2151
sg8
I15049
sg9
F1.3690401778857271
sg10
I417
sg11
g12
(g14
S'8f\xeaU\xb1\xcf\xd0='
tRp2152
sba(ibeta_strands
Comp
p2153
(dp2154
g5
S'W'
sg6
((NNttp2155
sg8
I18787
sg9
F1.0896242299248486
sg10
I412
sg11
g12
(g14
S'\xc0N\x81\x96jA\xb4?'
tRp2156
sba(ibeta_strands
Comp
p2157
(dp2158
g5
S'M'
sg6
((I0
I0
ttp2159
sg8
I16002
sg9
F0.96692767629484633
sg10
I378
sg11
g12
(g14
S'\x9d\xef\xba\xdc!\xa8\xe0?'
tRp2160
sba(ibeta_strands
Comp
p2161
(dp2162
g5
S'C'
sg6
((I0
I0
ttp2163
sg8
I16335
sg9
F0.91601347066680139
sg10
I366
sg11
g12
(g14
S'\xdd\xe63P\xbeC\xb7?'
tRp2164
sba(ibeta_strands
Comp
p2165
(dp2166
g5
S'M'
sg6
((NNttp2167
sg8
I15148
sg9
F0.8081667148587518
sg10
I245
sg11
g12
(g14
S'6\x02\x06 \x10\xf3G?'
tRp2168
sba(ibeta_strands
Comp
p2169
(dp2170
g5
S'C'
sg6
((NNttp2171
sg8
I18336
sg9
F0.62632345160730485
sg10
I229
sg11
g12
(g14
S'q\x10\x8c\x8f\xff\x10X='
tRp2172
sba(ibeta_strands
Comp
p2173
(dp2174
g5
S'V'
sg6
((I0
Nttp2175
sg8
I3667
sg10
I52
sba(ibeta_strands
Comp
p2176
(dp2177
g5
S'F'
sg6
((NI0
ttp2178
sg8
I1751
sg10
I39
sba(ibeta_strands
Comp
p2179
(dp2180
g5
S'I'
sg6
((NI0
ttp2181
sg8
I1991
sg10
I35
sba(ibeta_strands
Comp
p2182
(dp2183
g5
S'Y'
sg6
((NI0
ttp2184
sg8
I1898
sg10
I34
sba(ibeta_strands
Comp
p2185
(dp2186
g5
S'L'
sg6
((I0
Nttp2187
sg8
I2472
sg10
I34
sba(ibeta_strands
Comp
p2188
(dp2189
g5
S'V'
sg6
((NI0
ttp2190
sg8
I3063
sg10
I31
sba(ibeta_strands
Comp
p2191
(dp2192
g5
S'R'
sg6
((NI0
ttp2193
sg8
I491
sg10
I30
sba(ibeta_strands
Comp
p2194
(dp2195
g5
S'A'
sg6
((NI0
ttp2196
sg8
I1036
sg10
I23
sba(ibeta_strands
Comp
p2197
(dp2198
g5
S'P'
sg6
((I0
Nttp2199
sg8
I1231
sg10
I23
sba(ibeta_strands
Comp
p2200
(dp2201
g5
S'K'
sg6
((I0
Nttp2202
sg8
I669
sg10
I22
sba(ibeta_strands
Comp
p2203
(dp2204
g5
S'Q'
sg6
((NI0
ttp2205
sg8
I314
sg10
I21
sba(ibeta_strands
Comp
p2206
(dp2207
g5
S'T'
sg6
((I0
Nttp2208
sg8
I895
sg10
I21
sba(ibeta_strands
Comp
p2209
(dp2210
g5
S'N'
sg6
((NI0
ttp2211
sg8
I208
sg10
I17
sba(ibeta_strands
Comp
p2212
(dp2213
g5
S'R'
sg6
((I0
Nttp2214
sg8
I511
sg10
I17
sba(ibeta_strands
Comp
p2215
(dp2216
g5
S'E'
sg6
((I0
Nttp2217
sg8
I748
sg10
I17
sba(ibeta_strands
Comp
p2218
(dp2219
g5
S'I'
sg6
((I0
Nttp2220
sg8
I2944
sg10
I17
sba(ibeta_strands
Comp
p2221
(dp2222
g5
S'S'
sg6
((NI0
ttp2223
sg8
I785
sg10
I16
sba(ibeta_strands
Comp
p2224
(dp2225
g5
S'L'
sg6
((NI0
ttp2226
sg8
I2436
sg10
I14
sba(ibeta_strands
Comp
p2227
(dp2228
g5
S'A'
sg6
((I0
Nttp2229
sg8
I876
sg10
I12
sba(ibeta_strands
Comp
p2230
(dp2231
g5
S'T'
sg6
((NI0
ttp2232
sg8
I1025
sg10
I11
sba(ibeta_strands
Comp
p2233
(dp2234
g5
S'Q'
sg6
((I0
Nttp2235
sg8
I425
sg10
I9
sba(ibeta_strands
Comp
p2236
(dp2237
g5
S'W'
sg6
((NI0
ttp2238
sg8
I618
sg10
I9
sba(ibeta_strands
Comp
p2239
(dp2240
g5
S'F'
sg6
((I0
Nttp2241
sg8
I924
sg10
I9
sba(ibeta_strands
Comp
p2242
(dp2243
g5
S'H'
sg6
((NI0
ttp2244
sg8
I264
sg10
I8
sba(ibeta_strands
Comp
p2245
(dp2246
g5
S'H'
sg6
((I0
Nttp2247
sg8
I314
sg10
I8
sba(ibeta_strands
Comp
p2248
(dp2249
g5
S'Y'
sg6
((I0
Nttp2250
sg8
I593
sg10
I8
sba(ibeta_strands
Comp
p2251
(dp2252
g5
S'G'
sg6
((NI0
ttp2253
sg8
I693
sg10
I8
sba(ibeta_strands
Comp
p2254
(dp2255
g5
S'E'
sg6
((NI0
ttp2256
sg8
I443
sg10
I7
sba(ibeta_strands
Comp
p2257
(dp2258
g5
S'M'
sg6
((I0
Nttp2259
sg8
I298
sg10
I6
sba(ibeta_strands
Comp
p2260
(dp2261
g5
S'D'
sg6
((I0
Nttp2262
sg8
I297
sg10
I5
sba(ibeta_strands
Comp
p2263
(dp2264
g5
S'D'
sg6
((NI0
ttp2265
sg8
I310
sg10
I5
sba(ibeta_strands
Comp
p2266
(dp2267
g5
S'M'
sg6
((NI0
ttp2268
sg8
I373
sg10
I5
sba(ibeta_strands
Comp
p2269
(dp2270
g5
S'C'
sg6
((NI0
ttp2271
sg8
I421
sg10
I5
sba(ibeta_strands
Comp
p2272
(dp2273
g5
S'C'
sg6
((I0
Nttp2274
sg8
I298
sg10
I4
sba(ibeta_strands
Comp
p2275
(dp2276
g5
S'K'
sg6
((NI0
ttp2277
sg8
I456
sg10
I4
sba(ibeta_strands
Comp
p2278
(dp2279
g5
S'S'
sg6
((I0
Nttp2280
sg8
I525
sg10
I4
sba(ibeta_strands
Comp
p2281
(dp2282
g5
S'G'
sg6
((I0
Nttp2283
sg8
I294
sg10
I2
sba(ibeta_strands
Comp
p2284
(dp2285
g5
S'W'
sg6
((I0
Nttp2286
sg8
I465
sg10
I2
sba(ibeta_strands
Comp
p2287
(dp2288
g5
S'P'
sg6
((I0
I-1
ttp2289
sg8
I-1
sg10
I1
sba(ibeta_strands
Comp
p2290
(dp2291
g5
S'P'
sg6
((NI1
ttp2292
sg8
I-1
sg10
I1
sbasS'K'
(lp2293
(ibeta_strands
Comp
p2294
(dp2295
g5
S'E'
sg6
((I0
I0
ttp2296
sg8
I35143
sg9
F2.6028656510394419
sg10
I5216
sg11
g12
(g14
S'\x00\x00\x00\x00\x00\x00\x00\x00'
tRp2297
sba(ibeta_strands
Comp
p2298
(dp2299
g5
S'T'
sg6
((NNttp2300
sg8
I53781
sg9
F1.7268337402892244
sg10
I4731
sg11
g12
(g14
S'\x00\x00\x00\x00\x00\x00\x00\x00'
tRp2301
sba(ibeta_strands
Comp
p2302
(dp2303
g5
S'V'
sg6
((I0
I0
ttp2304
sg8
I105995
sg9
F0.81946929315792527
sg10
I4498
sg11
g12
(g14
S'\x91>\xd5\x99\x87^\xe85'
tRp2305
sba(ibeta_strands
Comp
p2306
(dp2307
g5
S'E'
sg6
((NNttp2308
sg8
I33446
sg9
F2.4790008700188055
sg10
I4392
sg11
g12
(g14
S'\x00\x00\x00\x00\x00\x00\x00\x00'
tRp2309
sba(ibeta_strands
Comp
p2310
(dp2311
g5
S'S'
sg6
((I0
I0
ttp2312
sg8
I43478
sg9
F1.479265593773214
sg10
I3454
sg11
g12
(g14
S'r\xb8\x80_[\x03\xb3$'
tRp2313
sba(ibeta_strands
Comp
p2314
(dp2315
g5
S'Y'
sg6
((NNttp2316
sg8
I40179
sg9
F1.6716860218711516
sg10
I3412
sg11
g12
(g14
S'\xe6\xa3\x8b\xbby\xc4\x84\x11'
tRp2317
sba(ibeta_strands
Comp
p2318
(dp2319
g5
S'T'
sg6
((I0
I0
ttp2320
sg8
I51919
sg9
F1.2354478955219659
sg10
I3396
sg11
g12
(g14
S'A$P\x1a\x9f*\xf47'
tRp2321
sba(ibeta_strands
Comp
p2322
(dp2323
g5
S'V'
sg6
((NNttp2324
sg8
I98524
sg9
F0.66981129996986277
sg10
I3190
sg11
g12
(g14
S"=\xcd\x1f\x14'\xdam#"
tRp2325
sba(ibeta_strands
Comp
p2326
(dp2327
g5
S'L'
sg6
((I0
I0
ttp2328
sg8
I82603
sg9
F0.7159748076310869
sg10
I3046
sg11
g12
(g14
S'\x18c\xb9/\x96\x1c\x87-'
tRp2329
sba(ibeta_strands
Comp
p2330
(dp2331
g5
S'I'
sg6
((I0
I0
ttp2332
sg8
I71773
sg9
F0.80841026675534722
sg10
I3002
sg11
g12
(g14
S'3\xf8@\xcc\xb1{\x988'
tRp2333
sba(ibeta_strands
Comp
p2334
(dp2335
g5
S'K'
sg6
((I0
I0
ttp2336
sg8
I39145
sg9
F1.2443395238481536
sg10
I2577
sg11
g12
(g14
S'\x8c\xf8\x8b\xa4\x0b\xb8\x879'
tRp2337
sba(ibeta_strands
Comp
p2338
(dp2339
g5
S'I'
sg6
((NNttp2340
sg8
I69184
sg9
F0.71604085077908819
sg10
I2400
sg11
g12
(g14
S'\xed\x91\x94Q\xa1^\x9a1'
tRp2341
sba(ibeta_strands
Comp
p2342
(dp2343
g5
S'D'
sg6
((NNttp2344
sg8
I17936
sg9
F2.4274242481013943
sg10
I2300
sg11
g12
(g14
S'\x00\x00\x00\x00\x00\x00\x00\x00'
tRp2345
sba(ibeta_strands
Comp
p2346
(dp2347
g5
S'S'
sg6
((NNttp2348
sg8
I40209
sg9
F1.1379530973081409
sg10
I2263
sg11
g12
(g14
S'\xe3\xbd3\xe6Sx\xdb='
tRp2349
sba(ibeta_strands
Comp
p2350
(dp2351
g5
S'Q'
sg6
((I0
I0
ttp2352
sg8
I25811
sg9
F1.5443948147466331
sg10
I2143
sg11
g12
(g14
S'\x1f\xf5\xf7W\xa9v|+'
tRp2353
sba(ibeta_strands
Comp
p2354
(dp2355
g5
S'D'
sg6
((I0
I0
ttp2356
sg8
I21184
sg9
F1.813735014745582
sg10
I2098
sg11
g12
(g14
S'ie<?\x15#G\x1a'
tRp2357
sba(ibeta_strands
Comp
p2358
(dp2359
g5
S'L'
sg6
((NNttp2360
sg8
I80572
sg9
F0.53847537917373811
sg10
I2084
sg11
g12
(g14
S'\xaf\x1a\xcc2\xb2\xce\x0c\x14'
tRp2361
sba(ibeta_strands
Comp
p2362
(dp2363
g5
S'Y'
sg6
((I0
I0
ttp2364
sg8
I48510
sg9
F0.81020888718721296
sg10
I2038
sg11
g12
(g14
S'[_\xe2\xad$\xb8#;'
tRp2365
sba(ibeta_strands
Comp
p2366
(dp2367
g5
S'A'
sg6
((I0
I0
ttp2368
sg8
I52816
sg9
F0.66582335015669203
sg10
I1806
sg11
g12
(g14
S'#5\xd4`s\xc6L0'
tRp2369
sba(ibeta_strands
Comp
p2370
(dp2371
g5
S'R'
sg6
((I0
I0
ttp2372
sg8
I39802
sg9
F0.79994902353252395
sg10
I1646
sg11
g12
(g14
S'\xb4R\xcb\xec`I\x9c;'
tRp2373
sba(ibeta_strands
Comp
p2374
(dp2375
g5
S'F'
sg6
((NNttp2376
sg8
I42465
sg9
F0.72772452836031654
sg10
I1498
sg11
g12
(g14
S'\xc2N5\xdf\xbf\xc6\x0c8'
tRp2377
sba(ibeta_strands
Comp
p2378
(dp2379
g5
S'F'
sg6
((I0
I0
ttp2380
sg8
I50783
sg9
F0.56755188473406948
sg10
I1476
sg11
g12
(g14
S"\x83\x00\xcf\x7fH\xf1\x0b'"
tRp2381
sba(ibeta_strands
Comp
p2382
(dp2383
g5
S'N'
sg6
((NNttp2384
sg8
I17746
sg9
F1.6142714583964732
sg10
I1451
sg11
g12
(g14
S"_j\x98\t'\x99;/"
tRp2385
sba(ibeta_strands
Comp
p2386
(dp2387
g5
S'A'
sg6
((NNttp2388
sg8
I46660
sg9
F0.64024271716049141
sg10
I1442
sg11
g12
(g14
S'^j\x06\x9a\xe2\xa9\xfb0'
tRp2389
sba(ibeta_strands
Comp
p2390
(dp2391
g5
S'Q'
sg6
((NNttp2392
sg8
I22283
sg9
F1.2165843857280101
sg10
I1346
sg11
g12
(g14
S'\xf0\xc7 \xa9fm5='
tRp2393
sba(ibeta_strands
Comp
p2394
(dp2395
g5
S'K'
sg6
((NNttp2396
sg8
I35468
sg9
F0.75624040065888931
sg10
I1302
sg11
g12
(g14
S'\x91U\x9d\x89!\xbc\xa2:'
tRp2397
sba(ibeta_strands
Comp
p2398
(dp2399
g5
S'C'
sg6
((I0
I0
ttp2400
sg8
I15425
sg9
F1.5341415999551915
sg10
I1276
sg11
g12
(g14
S'\xca*\x03/\x9d\xde34'
tRp2401
sba(ibeta_strands
Comp
p2402
(dp2403
g5
S'R'
sg6
((NNttp2404
sg8
I35773
sg9
F0.6326316576505483
sg10
I1092
sg11
g12
(g14
S'\x054\xe6\xd5\x8a\x89\x1f4'
tRp2405
sba(ibeta_strands
Comp
p2406
(dp2407
g5
S'W'
sg6
((NNttp2408
sg8
I18171
sg9
F1.1435549198202817
sg10
I1028
sg11
g12
(g14
S'\x88I\xcd\xdf\x94T\xe2>'
tRp2409
sba(ibeta_strands
Comp
p2410
(dp2411
g5
S'G'
sg6
((I0
I0
ttp2412
sg8
I44204
sg9
F0.45509870760527832
sg10
I1023
sg11
g12
(g14
S'\xc8}\xc4\xc0\x05T.\x1e'
tRp2413
sba(ibeta_strands
Comp
p2414
(dp2415
g5
S'H'
sg6
((I0
I0
ttp2416
sg8
I19135
sg9
F0.89759812972858255
sg10
I893
sg11
g12
(g14
S'3{>\x0eL\xc2K?'
tRp2417
sba(ibeta_strands
Comp
p2418
(dp2419
g5
S'N'
sg6
((I0
I0
ttp2420
sg8
I17927
sg9
F0.9351672042248651
sg10
I874
sg11
g12
(g14
S'3\xc8\xfa\xf3\\5\xa5?'
tRp2421
sba(ibeta_strands
Comp
p2422
(dp2423
g5
S'M'
sg6
((I0
I0
ttp2424
sg8
I15655
sg9
F0.89091074130904147
sg10
I725
sg11
g12
(g14
S'\n\xdbV{s\x15V?'
tRp2425
sba(ibeta_strands
Comp
p2426
(dp2427
g5
S'G'
sg6
((NNttp2428
sg8
I27909
sg9
F0.53566235564674136
sg10
I718
sg11
g12
(g14
S'&\xcb\x18\xd2\x9a\xdd}1'
tRp2429
sba(ibeta_strands
Comp
p2430
(dp2431
g5
S'H'
sg6
((NNttp2432
sg8
I14784
sg9
F0.94177875540971878
sg10
I682
sg11
g12
(g14
S'\x97\x19d9\x9c\xf7\xbb?'
tRp2433
sba(ibeta_strands
Comp
p2434
(dp2435
g5
S'P'
sg6
((NNttp2436
sg8
I20261
sg9
F0.67474672038393668
sg10
I661
sg11
g12
(g14
S'\x07[\\;\x01\xaf\xae:'
tRp2437
sba(ibeta_strands
Comp
p2438
(dp2439
g5
S'W'
sg6
((I0
I0
ttp2440
sg8
I15705
sg9
F0.66203233647246729
sg10
I535
sg11
g12
(g14
S'5\xb4(\x85R\xf2A;'
tRp2441
sba(ibeta_strands
Comp
p2442
(dp2443
g5
S'M'
sg6
((NNttp2444
sg8
I14926
sg9
F0.64794199956780962
sg10
I467
sg11
g12
(g14
S'^\xc0\xb1\xba\xbe\xc4i;'
tRp2445
sba(ibeta_strands
Comp
p2446
(dp2447
g5
S'C'
sg6
((NNttp2448
sg8
I18254
sg9
F0.35777332412099261
sg10
I311
sg11
g12
(g14
S'\xe3\xddM\xbd~jO.'
tRp2449
sba(ibeta_strands
Comp
p2450
(dp2451
g5
S'Y'
sg6
((NI0
ttp2452
sg8
I1781
sg10
I151
sba(ibeta_strands
Comp
p2453
(dp2454
g5
S'F'
sg6
((NI0
ttp2455
sg8
I1717
sg10
I73
sba(ibeta_strands
Comp
p2456
(dp2457
g5
S'V'
sg6
((I0
Nttp2458
sg8
I3654
sg10
I65
sba(ibeta_strands
Comp
p2459
(dp2460
g5
S'V'
sg6
((NI0
ttp2461
sg8
I3033
sg10
I61
sba(ibeta_strands
Comp
p2462
(dp2463
g5
S'W'
sg6
((NI0
ttp2464
sg8
I569
sg10
I58
sba(ibeta_strands
Comp
p2465
(dp2466
g5
S'E'
sg6
((I0
Nttp2467
sg8
I711
sg10
I54
sba(ibeta_strands
Comp
p2468
(dp2469
g5
S'I'
sg6
((I0
Nttp2470
sg8
I2910
sg10
I51
sba(ibeta_strands
Comp
p2471
(dp2472
g5
S'L'
sg6
((NI0
ttp2473
sg8
I2403
sg10
I47
sba(ibeta_strands
Comp
p2474
(dp2475
g5
S'I'
sg6
((NI0
ttp2476
sg8
I1980
sg10
I46
sba(ibeta_strands
Comp
p2477
(dp2478
g5
S'T'
sg6
((NI0
ttp2479
sg8
I991
sg10
I45
sba(ibeta_strands
Comp
p2480
(dp2481
g5
S'D'
sg6
((I0
Nttp2482
sg8
I265
sg10
I37
sba(ibeta_strands
Comp
p2483
(dp2484
g5
S'S'
sg6
((NI0
ttp2485
sg8
I765
sg10
I36
sba(ibeta_strands
Comp
p2486
(dp2487
g5
S'T'
sg6
((I0
Nttp2488
sg8
I883
sg10
I33
sba(ibeta_strands
Comp
p2489
(dp2490
g5
S'E'
sg6
((NI0
ttp2491
sg8
I419
sg10
I31
sba(ibeta_strands
Comp
p2492
(dp2493
g5
S'L'
sg6
((I0
Nttp2494
sg8
I2478
sg10
I28
sba(ibeta_strands
Comp
p2495
(dp2496
g5
S'Y'
sg6
((I0
Nttp2497
sg8
I575
sg10
I26
sba(ibeta_strands
Comp
p2498
(dp2499
g5
S'N'
sg6
((I0
Nttp2500
sg8
I251
sg10
I25
sba(ibeta_strands
Comp
p2501
(dp2502
g5
S'Q'
sg6
((NI0
ttp2503
sg8
I311
sg10
I24
sba(ibeta_strands
Comp
p2504
(dp2505
g5
S'A'
sg6
((I0
Nttp2506
sg8
I865
sg10
I23
sba(ibeta_strands
Comp
p2507
(dp2508
g5
S'H'
sg6
((NI0
ttp2509
sg8
I250
sg10
I22
sba(ibeta_strands
Comp
p2510
(dp2511
g5
S'S'
sg6
((I0
Nttp2512
sg8
I510
sg10
I19
sba(ibeta_strands
Comp
p2513
(dp2514
g5
S'W'
sg6
((I0
Nttp2515
sg8
I450
sg10
I17
sba(ibeta_strands
Comp
p2516
(dp2517
g5
S'P'
sg6
((I0
Nttp2518
sg8
I1237
sg10
I17
sba(ibeta_strands
Comp
p2519
(dp2520
g5
S'N'
sg6
((NI0
ttp2521
sg8
I209
sg10
I16
sba(ibeta_strands
Comp
p2522
(dp2523
g5
S'F'
sg6
((I0
Nttp2524
sg8
I917
sg10
I16
sba(ibeta_strands
Comp
p2525
(dp2526
g5
S'A'
sg6
((NI0
ttp2527
sg8
I1044
sg10
I15
sba(ibeta_strands
Comp
p2528
(dp2529
g5
S'D'
sg6
((NI0
ttp2530
sg8
I301
sg10
I14
sba(ibeta_strands
Comp
p2531
(dp2532
g5
S'K'
sg6
((NI0
ttp2533
sg8
I446
sg10
I14
sba(ibeta_strands
Comp
p2534
(dp2535
g5
S'R'
sg6
((NI0
ttp2536
sg8
I507
sg10
I14
sba(ibeta_strands
Comp
p2537
(dp2538
g5
S'K'
sg6
((I0
Nttp2539
sg8
I677
sg10
I14
sba(ibeta_strands
Comp
p2540
(dp2541
g5
S'C'
sg6
((NI0
ttp2542
sg8
I413
sg10
I13
sba(ibeta_strands
Comp
p2543
(dp2544
g5
S'Q'
sg6
((I0
Nttp2545
sg8
I422
sg10
I12
sba(ibeta_strands
Comp
p2546
(dp2547
g5
S'R'
sg6
((I0
Nttp2548
sg8
I519
sg10
I9
sba(ibeta_strands
Comp
p2549
(dp2550
g5
S'M'
sg6
((I0
Nttp2551
sg8
I297
sg10
I7
sba(ibeta_strands
Comp
p2552
(dp2553
g5
S'M'
sg6
((NI0
ttp2554
sg8
I372
sg10
I6
sba(ibeta_strands
Comp
p2555
(dp2556
g5
S'G'
sg6
((NI0
ttp2557
sg8
I696
sg10
I5
sba(ibeta_strands
Comp
p2558
(dp2559
g5
S'H'
sg6
((I0
Nttp2560
sg8
I318
sg10
I4
sba(ibeta_strands
Comp
p2561
(dp2562
g5
S'C'
sg6
((I0
Nttp2563
sg8
I300
sg10
I2
sba(ibeta_strands
Comp
p2564
(dp2565
g5
S'G'
sg6
((I1
Nttp2566
sg8
I-1
sg10
I1
sba(ibeta_strands
Comp
p2567
(dp2568
g5
S'G'
sg6
((I0
Nttp2569
sg8
I295
sg10
I1
sbasS'M'
(lp2570
(ibeta_strands
Comp
p2571
(dp2572
g5
S'V'
sg6
((I0
I0
ttp2573
sg8
I108070
sg9
F1.1234101897465947
sg10
I2423
sg11
g12
(g14
S'\x0f\x9cX4\x9e\x80\x03>'
tRp2574
sba(ibeta_strands
Comp
p2575
(dp2576
g5
S'L'
sg6
((I0
I0
ttp2577
sg8
I83429
sg9
F1.3279830386142024
sg10
I2220
sg11
g12
(g14
S'}^p\x1f\x1d\x92{6'
tRp2578
sba(ibeta_strands
Comp
p2579
(dp2580
g5
S'I'
sg6
((I0
I0
ttp2581
sg8
I72712
sg9
F1.413813328845974
sg10
I2063
sg11
g12
(g14
S'\xcc\xe5f\xce\x86\xe1\x113'
tRp2582
sba(ibeta_strands
Comp
p2583
(dp2584
g5
S'L'
sg6
((NNttp2585
sg8
I80633
sg9
F1.2486317657587997
sg10
I2023
sg11
g12
(g14
S'\x1e\xa2\xb1@\xab\x08\x91:'
tRp2586
sba(ibeta_strands
Comp
p2587
(dp2588
g5
S'V'
sg6
((NNttp2589
sg8
I99950
sg9
F0.88477069200345371
sg10
I1764
sg11
g12
(g14
S'B\x01t\x91mg]>'
tRp2590
sba(ibeta_strands
Comp
p2591
(dp2592
g5
S'I'
sg6
((NNttp2593
sg8
I70083
sg9
F1.0697384619308494
sg10
I1501
sg11
g12
(g14
S'\xbc\xa6[5t*x?'
tRp2594
sba(ibeta_strands
Comp
p2595
(dp2596
g5
S'F'
sg6
((NNttp2597
sg8
I42526
sg9
F1.6675633001268546
sg10
I1437
sg11
g12
(g14
S'\xe9g6c\x1d*\xf7,'
tRp2598
sba(ibeta_strands
Comp
p2599
(dp2600
g5
S'F'
sg6
((I0
I0
ttp2601
sg8
I51154
sg9
F1.081317426162933
sg10
I1105
sg11
g12
(g14
S'I\xbcr\xd9*\xdb|?'
tRp2602
sba(ibeta_strands
Comp
p2603
(dp2604
g5
S'A'
sg6
((I0
I0
ttp2605
sg8
I53584
sg9
F0.97389097304230088
sg10
I1038
sg11
g12
(g14
S'H\x96\x85,\x90r\xd8?'
tRp2606
sba(ibeta_strands
Comp
p2607
(dp2608
g5
S'A'
sg6
((NNttp2609
sg8
I47112
sg9
F1.0499894652337765
sg10
I990
sg11
g12
(g14
S'\x1d\xf6\xde\x0cZ\x08\xbd?'
tRp2610
sba(ibeta_strands
Comp
p2611
(dp2612
g5
S'Y'
sg6
((I0
I0
ttp2613
sg8
I49682
sg9
F0.87615799088215729
sg10
I866
sg11
g12
(g14
S'\x92\xd1\xc5\x7fz\x14\x0c?'
tRp2614
sba(ibeta_strands
Comp
p2615
(dp2616
g5
S'T'
sg6
((NNttp2617
sg8
I57682
sg9
F0.72367910032510552
sg10
I830
sg11
g12
(g14
S'\x8f\xa4@Uh@_;'
tRp2618
sba(ibeta_strands
Comp
p2619
(dp2620
g5
S'G'
sg6
((I0
I0
ttp2621
sg8
I44433
sg9
F0.89892235760896433
sg10
I794
sg11
g12
(g14
S'\xe2\xd0\xa2G\xc2\x8d_?'
tRp2622
sba(ibeta_strands
Comp
p2623
(dp2624
g5
S'T'
sg6
((I0
I0
ttp2625
sg8
I54551
sg9
F0.70732958301169013
sg10
I764
sg11
g12
(g14
S'\xa7\xf6\xb7\x8e\xd5\xfd);'
tRp2626
sba(ibeta_strands
Comp
p2627
(dp2628
g5
S'S'
sg6
((I0
I0
ttp2629
sg8
I46191
sg9
F0.80763241632082039
sg10
I741
sg11
g12
(g14
S'\xd7\xb0\x82\xcb{\x9c\x1a>'
tRp2630
sba(ibeta_strands
Comp
p2631
(dp2632
g5
S'Y'
sg6
((NNttp2633
sg8
I42855
sg9
F0.86137817432226138
sg10
I736
sg11
g12
(g14
S'\x81\x0c\xbb`9\xda\xfc>'
tRp2634
sba(ibeta_strands
Comp
p2635
(dp2636
g5
S'K'
sg6
((I0
I0
ttp2637
sg8
I40997
sg9
F0.89091074130904147
sg10
I725
sg11
g12
(g14
S'\n\xdbV{s\x15V?'
tRp2638
sba(ibeta_strands
Comp
p2639
(dp2640
g5
S'P'
sg6
((NNttp2641
sg8
I20205
sg9
F1.7483518564401328
sg10
I717
sg11
g12
(g14
S'\x91sjc-}\xd94'
tRp2642
sba(ibeta_strands
Comp
p2643
(dp2644
g5
S'R'
sg6
((NNttp2645
sg8
I36172
sg9
F0.95902930366669137
sg10
I693
sg11
g12
(g14
S'\x9e\x9e\x15\xa7o\xcf\xd0?'
tRp2646
sba(ibeta_strands
Comp
p2647
(dp2648
g5
S'S'
sg6
((NNttp2649
sg8
I41779
sg9
F0.83242171971351897
sg10
I693
sg11
g12
(g14
S'!J\x85G\xfc\xf1\xa2>'
tRp2650
sba(ibeta_strands
Comp
p2651
(dp2652
g5
S'G'
sg6
((NNttp2653
sg8
I27991
sg9
F1.1334285782774605
sg10
I636
sg11
g12
(g14
S'\xcd\x0c\xa8K\x12DT?'
tRp2654
sba(ibeta_strands
Comp
p2655
(dp2656
g5
S'M'
sg6
((NNttp2657
sg8
I14789
sg9
F2.0018270358382613
sg10
I604
sg11
g12
(g14
S'\xd5\xe0\xa4f\xac\x14\x801'
tRp2658
sba(ibeta_strands
Comp
p2659
(dp2660
g5
S'R'
sg6
((I0
I0
ttp2661
sg8
I40861
sg9
F0.72600948435643131
sg10
I587
sg11
g12
(g14
S'\x13\x92~\xb4\x00\x90\xcd<'
tRp2662
sba(ibeta_strands
Comp
p2663
(dp2664
g5
S'M'
sg6
((I0
I0
ttp2665
sg8
I15829
sg9
F1.7231357726930394
sg10
I551
sg11
g12
(g14
S'\xfaF\x83})K\xe07'
tRp2666
sba(ibeta_strands
Comp
p2667
(dp2668
g5
S'E'
sg6
((NNttp2669
sg8
I37288
sg9
F0.74156188159867376
sg10
I550
sg11
g12
(g14
S'I\x98\xdb\xdb&\xe0Y='
tRp2670
sba(ibeta_strands
Comp
p2671
(dp2672
g5
S'Q'
sg6
((I0
I0
ttp2673
sg8
I27446
sg9
F0.93169032856157963
sg10
I508
sg11
g12
(g14
S'\x0b\x80\x8c\x94\x8b$\xbb?'
tRp2674
sba(ibeta_strands
Comp
p2675
(dp2676
g5
S'K'
sg6
((NNttp2677
sg8
I36303
sg9
F0.64794199956780962
sg10
I467
sg11
g12
(g14
S'^\xc0\xb1\xba\xbe\xc4i;'
tRp2678
sba(ibeta_strands
Comp
p2679
(dp2680
g5
S'E'
sg6
((I0
I0
ttp2681
sg8
I39919
sg9
F0.55877704575477027
sg10
I440
sg11
g12
(g14
S'\xc45$6[\x17M8'
tRp2682
sba(ibeta_strands
Comp
p2683
(dp2684
g5
S'H'
sg6
((I0
I0
ttp2685
sg8
I19650
sg9
F0.96692767629484633
sg10
I378
sg11
g12
(g14
S'\x9d\xef\xba\xdc!\xa8\xe0?'
tRp2686
sba(ibeta_strands
Comp
p2687
(dp2688
g5
S'C'
sg6
((I0
I0
ttp2689
sg8
I16340
sg9
F1.1045711230827175
sg10
I361
sg11
g12
(g14
S'H\xe3\xb5\xb4Qc\xad?'
tRp2690
sba(ibeta_strands
Comp
p2691
(dp2692
g5
S'Q'
sg6
((NNttp2693
sg8
I23285
sg9
F0.74272147520728626
sg10
I344
sg11
g12
(g14
S'\xcaoV\x06+\xceP>'
tRp2694
sba(ibeta_strands
Comp
p2695
(dp2696
g5
S'W'
sg6
((I0
I0
ttp2697
sg8
I15917
sg9
F1.0171843139863086
sg10
I323
sg11
g12
(g14
S'#E\x07\x87h\xda\xe8?'
tRp2698
sba(ibeta_strands
Comp
p2699
(dp2700
g5
S'C'
sg6
((NNttp2701
sg8
I18246
sg9
F0.87661442047076532
sg10
I319
sg11
g12
(g14
S'\x92\xf9\xb9bP\xc7\x91?'
tRp2702
sba(ibeta_strands
Comp
p2703
(dp2704
g5
S'W'
sg6
((NNttp2705
sg8
I18906
sg9
F0.77857757870416278
sg10
I293
sg11
g12
(g14
S':\xe2{\x8d\xd6\x8f\xea>'
tRp2706
sba(ibeta_strands
Comp
p2707
(dp2708
g5
S'N'
sg6
((NNttp2709
sg8
I18907
sg9
F0.77068607860317939
sg10
I290
sg11
g12
(g14
S'a\xbb?\x7f\x95\xae\xd9>'
tRp2710
sba(ibeta_strands
Comp
p2711
(dp2712
g5
S'D'
sg6
((I0
I0
ttp2713
sg8
I22993
sg9
F0.63582545016043701
sg10
I289
sg11
g12
(g14
S'B\x8e\x10So\x16\xe4<'
tRp2714
sba(ibeta_strands
Comp
p2715
(dp2716
g5
S'D'
sg6
((NNttp2717
sg8
I19975
sg9
F0.6580042788026641
sg10
I261
sg11
g12
(g14
S':\xdd\\\x84\xc0\xcc\x90='
tRp2718
sba(ibeta_strands
Comp
p2719
(dp2720
g5
S'H'
sg6
((NNttp2721
sg8
I15221
sg9
F0.8081667148587518
sg10
I245
sg11
g12
(g14
S'6\x02\x06 \x10\xf3G?'
tRp2722
sba(ibeta_strands
Comp
p2723
(dp2724
g5
S'N'
sg6
((I0
I0
ttp2725
sg8
I18597
sg9
F0.55549443692017542
sg10
I204
sg11
g12
(g14
S'.\x8e\xdd[\xe2BS<'
tRp2726
sba(ibeta_strands
Comp
p2727
(dp2728
g5
S'V'
sg6
((I0
Nttp2729
sg8
I3637
sg10
I82
sba(ibeta_strands
Comp
p2730
(dp2731
g5
S'I'
sg6
((I0
Nttp2732
sg8
I2895
sg10
I66
sba(ibeta_strands
Comp
p2733
(dp2734
g5
S'L'
sg6
((NI0
ttp2735
sg8
I2402
sg10
I48
sba(ibeta_strands
Comp
p2736
(dp2737
g5
S'I'
sg6
((NI0
ttp2738
sg8
I1982
sg10
I44
sba(ibeta_strands
Comp
p2739
(dp2740
g5
S'V'
sg6
((NI0
ttp2741
sg8
I3058
sg10
I36
sba(ibeta_strands
Comp
p2742
(dp2743
g5
S'L'
sg6
((I0
Nttp2744
sg8
I2472
sg10
I34
sba(ibeta_strands
Comp
p2745
(dp2746
g5
S'Y'
sg6
((NI0
ttp2747
sg8
I1899
sg10
I33
sba(ibeta_strands
Comp
p2748
(dp2749
g5
S'F'
sg6
((NI0
ttp2750
sg8
I1762
sg10
I28
sba(ibeta_strands
Comp
p2751
(dp2752
g5
S'T'
sg6
((I0
Nttp2753
sg8
I894
sg10
I22
sba(ibeta_strands
Comp
p2754
(dp2755
g5
S'F'
sg6
((I0
Nttp2756
sg8
I912
sg10
I21
sba(ibeta_strands
Comp
p2757
(dp2758
g5
S'P'
sg6
((I0
Nttp2759
sg8
I1233
sg10
I21
sba(ibeta_strands
Comp
p2760
(dp2761
g5
S'S'
sg6
((I0
Nttp2762
sg8
I511
sg10
I18
sba(ibeta_strands
Comp
p2763
(dp2764
g5
S'E'
sg6
((I0
Nttp2765
sg8
I747
sg10
I18
sba(ibeta_strands
Comp
p2766
(dp2767
g5
S'A'
sg6
((NI0
ttp2768
sg8
I1042
sg10
I17
sba(ibeta_strands
Comp
p2769
(dp2770
g5
S'A'
sg6
((I0
Nttp2771
sg8
I872
sg10
I16
sba(ibeta_strands
Comp
p2772
(dp2773
g5
S'G'
sg6
((NI0
ttp2774
sg8
I686
sg10
I15
sba(ibeta_strands
Comp
p2775
(dp2776
g5
S'N'
sg6
((I0
Nttp2777
sg8
I263
sg10
I13
sba(ibeta_strands
Comp
p2778
(dp2779
g5
S'M'
sg6
((I0
Nttp2780
sg8
I291
sg10
I13
sba(ibeta_strands
Comp
p2781
(dp2782
g5
S'M'
sg6
((NI0
ttp2783
sg8
I365
sg10
I13
sba(ibeta_strands
Comp
p2784
(dp2785
g5
S'Y'
sg6
((I0
Nttp2786
sg8
I588
sg10
I13
sba(ibeta_strands
Comp
p2787
(dp2788
g5
S'W'
sg6
((NI0
ttp2789
sg8
I615
sg10
I12
sba(ibeta_strands
Comp
p2790
(dp2791
g5
S'S'
sg6
((NI0
ttp2792
sg8
I791
sg10
I10
sba(ibeta_strands
Comp
p2793
(dp2794
g5
S'T'
sg6
((NI0
ttp2795
sg8
I1026
sg10
I10
sba(ibeta_strands
Comp
p2796
(dp2797
g5
S'R'
sg6
((I0
Nttp2798
sg8
I519
sg10
I9
sba(ibeta_strands
Comp
p2799
(dp2800
g5
S'R'
sg6
((NI0
ttp2801
sg8
I513
sg10
I8
sba(ibeta_strands
Comp
p2802
(dp2803
g5
S'K'
sg6
((NI0
ttp2804
sg8
I453
sg10
I7
sba(ibeta_strands
Comp
p2805
(dp2806
g5
S'H'
sg6
((NI0
ttp2807
sg8
I266
sg10
I6
sba(ibeta_strands
Comp
p2808
(dp2809
g5
S'Q'
sg6
((I0
Nttp2810
sg8
I428
sg10
I6
sba(ibeta_strands
Comp
p2811
(dp2812
g5
S'W'
sg6
((I0
Nttp2813
sg8
I461
sg10
I6
sba(ibeta_strands
Comp
p2814
(dp2815
g5
S'K'
sg6
((I0
Nttp2816
sg8
I685
sg10
I6
sba(ibeta_strands
Comp
p2817
(dp2818
g5
S'D'
sg6
((NI0
ttp2819
sg8
I310
sg10
I5
sba(ibeta_strands
Comp
p2820
(dp2821
g5
S'H'
sg6
((I0
Nttp2822
sg8
I317
sg10
I5
sba(ibeta_strands
Comp
p2823
(dp2824
g5
S'Q'
sg6
((NI0
ttp2825
sg8
I330
sg10
I5
sba(ibeta_strands
Comp
p2826
(dp2827
g5
S'E'
sg6
((NI0
ttp2828
sg8
I446
sg10
I4
sba(ibeta_strands
Comp
p2829
(dp2830
g5
S'G'
sg6
((I0
Nttp2831
sg8
I293
sg10
I3
sba(ibeta_strands
Comp
p2832
(dp2833
g5
S'D'
sg6
((I0
Nttp2834
sg8
I299
sg10
I3
sba(ibeta_strands
Comp
p2835
(dp2836
g5
S'C'
sg6
((I0
Nttp2837
sg8
I299
sg10
I3
sba(ibeta_strands
Comp
p2838
(dp2839
g5
S'N'
sg6
((NI0
ttp2840
sg8
I223
sg10
I2
sba(ibeta_strands
Comp
p2841
(dp2842
g5
S'C'
sg6
((NI0
ttp2843
sg8
I425
sg10
I1
sbasS'L'
(lp2844
(ibeta_strands
Comp
p2845
(dp2846
g5
S'V'
sg6
((I0
I0
ttp2847
sg8
I96825
sg9
F1.212164521766564
sg10
I13668
sg11
g12
(g14
S'\xd5\xda\xbf\x93\x99\x86K"'
tRp2848
sba(ibeta_strands
Comp
p2849
(dp2850
g5
S'L'
sg6
((NNttp2851
sg8
I69009
sg9
F1.5686446514798413
sg10
I13647
sg11
g12
(g14
S'\x00\x00\x00\x00\x00\x00\x00\x00'
tRp2852
sba(ibeta_strands
Comp
p2853
(dp2854
g5
S'L'
sg6
((I0
I0
ttp2855
sg8
I72902
sg9
F1.4585428527536834
sg10
I12747
sg11
g12
(g14
S'\x00\x00\x00\x00\x00\x00\x00\x00'
tRp2856
sba(ibeta_strands
Comp
p2857
(dp2858
g5
S'V'
sg6
((NNttp2859
sg8
I89531
sg9
F1.1379816956100659
sg10
I12183
sg11
g12
(g14
S'\xcbg\x8b\\\xea\x0b\xe03'
tRp2860
sba(ibeta_strands
Comp
p2861
(dp2862
g5
S'I'
sg6
((I0
I0
ttp2863
sg8
I64799
sg9
F1.3077385859094142
sg10
I9976
sg11
g12
(g14
S'\x07\x90\xd2\x11gE\xd1\x17'
tRp2864
sba(ibeta_strands
Comp
p2865
(dp2866
g5
S'I'
sg6
((NNttp2867
sg8
I62682
sg9
F1.1814990955696665
sg10
I8902
sg11
g12
(g14
S'\xa5\xc3\x19\xf5\xf5+\xe71'
tRp2868
sba(ibeta_strands
Comp
p2869
(dp2870
g5
S'A'
sg6
((NNttp2871
sg8
I40685
sg9
F1.464963860158323
sg10
I7417
sg11
g12
(g14
S'\x00?H\xb1zy\xdd\x04'
tRp2872
sba(ibeta_strands
Comp
p2873
(dp2874
g5
S'A'
sg6
((I0
I0
ttp2875
sg8
I48195
sg9
F1.153434509129017
sg10
I6427
sg11
g12
(g14
S'\xd0\xd2\xda\nz\x1b\xa68'
tRp2876
sba(ibeta_strands
Comp
p2877
(dp2878
g5
S'F'
sg6
((I0
I0
ttp2879
sg8
I46311
sg9
F1.1133546768109632
sg10
I5948
sg11
g12
(g14
S'Q\x01\r\xfa\x9fu\x0b<'
tRp2880
sba(ibeta_strands
Comp
p2881
(dp2882
g5
S'Y'
sg6
((I0
I0
ttp2883
sg8
I45278
sg9
F1.0198746647741084
sg10
I5270
sg11
g12
(g14
S'\xec\xe5\x9a\x98<)\xbf?'
tRp2884
sba(ibeta_strands
Comp
p2885
(dp2886
g5
S'F'
sg6
((NNttp2887
sg8
I38747
sg9
F1.12722867500527
sg10
I5216
sg11
g12
(g14
S'\xf4\x95\xd4\xc4\x10\xad\xb7;'
tRp2888
sba(ibeta_strands
Comp
p2889
(dp2890
g5
S'G'
sg6
((I0
I0
ttp2891
sg8
I40643
sg9
F0.99269981886105241
sg10
I4584
sg11
g12
(g14
S'\xe2!\xba\x03U\x12\xe3?'
tRp2892
sba(ibeta_strands
Comp
p2893
(dp2894
g5
S'Y'
sg6
((NNttp2895
sg8
I39191
sg9
F0.95899779896280624
sg10
I4400
sg11
g12
(g14
S'\xd0$1\xd6M.e?'
tRp2896
sba(ibeta_strands
Comp
p2897
(dp2898
g5
S'T'
sg6
((I0
I0
ttp2899
sg8
I51572
sg9
F0.66285714917271676
sg10
I3743
sg11
g12
(g14
S'\xae\xa9<\x18\xe7\x8d#\x1d'
tRp2900
sba(ibeta_strands
Comp
p2901
(dp2902
g5
S'G'
sg6
((NNttp2903
sg8
I25097
sg9
F1.1715494739763681
sg10
I3530
sg11
g12
(g14
S'^"\xb6\xd4`J\x13;'
tRp2904
sba(ibeta_strands
Comp
p2905
(dp2906
g5
S'S'
sg6
((NNttp2907
sg8
I39018
sg9
F0.77264747004735679
sg10
I3454
sg11
g12
(g14
S'b\xcd\xd1\x95\xe2e]3'
tRp2908
sba(ibeta_strands
Comp
p2909
(dp2910
g5
S'S'
sg6
((I0
I0
ttp2911
sg8
I43862
sg9
F0.64003771129625098
sg10
I3070
sg11
g12
(g14
S'lj3\xb41\x99\x95\x1e'
tRp2912
sba(ibeta_strands
Comp
p2913
(dp2914
g5
S'K'
sg6
((I0
I0
ttp2915
sg8
I38675
sg9
F0.7162098617373347
sg10
I3047
sg11
g12
(g14
S'\xe8\x8f\xfbL\x94 \x90-'
tRp2916
sba(ibeta_strands
Comp
p2917
(dp2918
g5
S'R'
sg6
((I0
I0
ttp2919
sg8
I38475
sg9
F0.70334880858076287
sg10
I2973
sg11
g12
(g14
S'\xf2\x7f\xd2\x89\x92A\x03,'
tRp2920
sba(ibeta_strands
Comp
p2921
(dp2922
g5
S'R'
sg6
((NNttp2923
sg8
I33894
sg9
F0.76568507111438555
sg10
I2971
sg11
g12
(g14
S'\xdag\x81\xce\x9b\x8ci4'
tRp2924
sba(ibeta_strands
Comp
p2925
(dp2926
g5
S'T'
sg6
((NNttp2927
sg8
I55606
sg9
F0.47185920641232809
sg10
I2906
sg11
g12
(g14
S'\x00\x00\x00\x00\x00\x00\x00\x00'
tRp2928
sba(ibeta_strands
Comp
p2929
(dp2930
g5
S'E'
sg6
((NNttp2931
sg8
I35174
sg9
F0.66891019259992124
sg10
I2664
sg11
g12
(g14
S'\x0f\x16E\xab\x81e\x89('
tRp2932
sba(ibeta_strands
Comp
p2933
(dp2934
g5
S'E'
sg6
((I0
I0
ttp2935
sg8
I37869
sg9
F0.60486280871286946
sg10
I2490
sg11
g12
(g14
S'\xd7\xe4A\xaffw\xbe\x1d'
tRp2936
sba(ibeta_strands
Comp
p2937
(dp2938
g5
S'Q'
sg6
((I0
I0
ttp2939
sg8
I25727
sg9
F0.78126747764057425
sg10
I2227
sg11
g12
(g14
S'\x025Il\xbb\xae\x9d8'
tRp2940
sba(ibeta_strands
Comp
p2941
(dp2942
g5
S'M'
sg6
((I0
I0
ttp2943
sg8
I14160
sg9
F1.3279830386142024
sg10
I2220
sg11
g12
(g14
S'}^p\x1f\x1d\x92{6'
tRp2944
sba(ibeta_strands
Comp
p2945
(dp2946
g5
S'W'
sg6
((NNttp2947
sg8
I17086
sg9
F1.0456411219848547
sg10
I2113
sg11
g12
(g14
S'5\xca\xf2\xdd\xbe\xa5\x9d?'
tRp2948
sba(ibeta_strands
Comp
p2949
(dp2950
g5
S'Q'
sg6
((NNttp2951
sg8
I21519
sg9
F0.84839652108137564
sg10
I2110
sg11
g12
(g14
S'\x9d\x98\x8f\x1d\x94\xfc\xc2<'
tRp2952
sba(ibeta_strands
Comp
p2953
(dp2954
g5
S'P'
sg6
((NNttp2955
sg8
I18838
sg9
F0.9463597979265056
sg10
I2084
sg11
g12
(g14
S'2\x9b\xfb\xac\xd9\xa1}?'
tRp2956
sba(ibeta_strands
Comp
p2957
(dp2958
g5
S'K'
sg6
((NNttp2959
sg8
I34686
sg9
F0.53847537917373811
sg10
I2084
sg11
g12
(g14
S'\xaf\x1a\xcc2\xb2\xce\x0c\x14'
tRp2960
sba(ibeta_strands
Comp
p2961
(dp2962
g5
S'M'
sg6
((NNttp2963
sg8
I13370
sg9
F1.2486317657587997
sg10
I2023
sg11
g12
(g14
S'\x1e\xa2\xb1@\xab\x08\x91:'
tRp2964
sba(ibeta_strands
Comp
p2965
(dp2966
g5
S'W'
sg6
((I0
I0
ttp2967
sg8
I14391
sg9
F1.1137961108196066
sg10
I1849
sg11
g12
(g14
S'\xef\xfd\x8b\x84M\xf0\xab>'
tRp2968
sba(ibeta_strands
Comp
p2969
(dp2970
g5
S'C'
sg6
((I0
I0
ttp2971
sg8
I14986
sg9
F1.0037423807950663
sg10
I1715
sg11
g12
(g14
S'\xd9Eb\x9eX"\xec?'
tRp2972
sba(ibeta_strands
Comp
p2973
(dp2974
g5
S'C'
sg6
((NNttp2975
sg8
I17077
sg9
F0.76149971237698599
sg10
I1488
sg11
g12
(g14
S'\\o\x1a3t\x05\xf89'
tRp2976
sba(ibeta_strands
Comp
p2977
(dp2978
g5
S'H'
sg6
((I0
I0
ttp2979
sg8
I18587
sg9
F0.70507907505466749
sg10
I1441
sg11
g12
(g14
S'\xb6\x94,\x00\x00\x16\x8c6'
tRp2980
sba(ibeta_strands
Comp
p2981
(dp2982
g5
S'D'
sg6
((I0
I0
ttp2983
sg8
I21949
sg9
F0.56097288264606027
sg10
I1333
sg11
g12
(g14
S'\x9c\x18{\xbb\xcd\xcb\x01('
tRp2984
sba(ibeta_strands
Comp
p2985
(dp2986
g5
S'H'
sg6
((NNttp2987
sg8
I14287
sg9
F0.72426511131982896
sg10
I1179
sg11
g12
(g14
S',\xf9\x8d\x88o8W9'
tRp2988
sba(ibeta_strands
Comp
p2989
(dp2990
g5
S'N'
sg6
((NNttp2991
sg8
I18036
sg9
F0.57459338362973744
sg10
I1161
sg11
g12
(g14
S'\xc2\r\x0e\x9bI[\xc6,'
tRp2992
sba(ibeta_strands
Comp
p2993
(dp2994
g5
S'D'
sg6
((NNttp2995
sg8
I19112
sg9
F0.52771982103627824
sg10
I1124
sg11
g12
(g14
S"\xb4\xc9s'\xb9\xd2\x14'"
tRp2996
sba(ibeta_strands
Comp
p2997
(dp2998
g5
S'N'
sg6
((I0
I0
ttp2999
sg8
I17880
sg9
F0.47971227419659607
sg10
I921
sg11
g12
(g14
S'PRW\xb9\xc9u\xf6$'
tRp3000
sba(ibeta_strands
Comp
p3001
(dp3002
g5
S'V'
sg6
((I0
Nttp3003
sg8
I3050
sg10
I669
sba(ibeta_strands
Comp
p3004
(dp3005
g5
S'Y'
sg6
((NI0
ttp3006
sg8
I1399
sg10
I533
sba(ibeta_strands
Comp
p3007
(dp3008
g5
S'I'
sg6
((I0
Nttp3009
sg8
I2531
sg10
I430
sba(ibeta_strands
Comp
p3010
(dp3011
g5
S'V'
sg6
((NI0
ttp3012
sg8
I2732
sg10
I362
sba(ibeta_strands
Comp
p3013
(dp3014
g5
S'F'
sg6
((NI0
ttp3015
sg8
I1455
sg10
I335
sba(ibeta_strands
Comp
p3016
(dp3017
g5
S'L'
sg6
((NI0
ttp3018
sg8
I2150
sg10
I300
sba(ibeta_strands
Comp
p3019
(dp3020
g5
S'L'
sg6
((I0
Nttp3021
sg8
I2212
sg10
I294
sba(ibeta_strands
Comp
p3022
(dp3023
g5
S'I'
sg6
((NI0
ttp3024
sg8
I1773
sg10
I253
sba(ibeta_strands
Comp
p3025
(dp3026
g5
S'A'
sg6
((I0
Nttp3027
sg8
I749
sg10
I139
sba(ibeta_strands
Comp
p3028
(dp3029
g5
S'F'
sg6
((I0
Nttp3030
sg8
I795
sg10
I138
sba(ibeta_strands
Comp
p3031
(dp3032
g5
S'T'
sg6
((I0
Nttp3033
sg8
I786
sg10
I130
sba(ibeta_strands
Comp
p3034
(dp3035
g5
S'W'
sg6
((NI0
ttp3036
sg8
I516
sg10
I111
sba(ibeta_strands
Comp
p3037
(dp3038
g5
S'T'
sg6
((NI0
ttp3039
sg8
I926
sg10
I110
sba(ibeta_strands
Comp
p3040
(dp3041
g5
S'A'
sg6
((NI0
ttp3042
sg8
I955
sg10
I104
sba(ibeta_strands
Comp
p3043
(dp3044
g5
S'G'
sg6
((NI0
ttp3045
sg8
I607
sg10
I94
sba(ibeta_strands
Comp
p3046
(dp3047
g5
S'P'
sg6
((I0
Nttp3048
sg8
I1160
sg10
I94
sba(ibeta_strands
Comp
p3049
(dp3050
g5
S'Y'
sg6
((I0
Nttp3051
sg8
I515
sg10
I86
sba(ibeta_strands
Comp
p3052
(dp3053
g5
S'E'
sg6
((I0
Nttp3054
sg8
I688
sg10
I77
sba(ibeta_strands
Comp
p3055
(dp3056
g5
S'R'
sg6
((I0
Nttp3057
sg8
I469
sg10
I59
sba(ibeta_strands
Comp
p3058
(dp3059
g5
S'S'
sg6
((I0
Nttp3060
sg8
I480
sg10
I49
sba(ibeta_strands
Comp
p3061
(dp3062
g5
S'M'
sg6
((I0
Nttp3063
sg8
I256
sg10
I48
sba(ibeta_strands
Comp
p3064
(dp3065
g5
S'R'
sg6
((NI0
ttp3066
sg8
I473
sg10
I48
sba(ibeta_strands
Comp
p3067
(dp3068
g5
S'S'
sg6
((NI0
ttp3069
sg8
I754
sg10
I47
sba(ibeta_strands
Comp
p3070
(dp3071
g5
S'W'
sg6
((I0
Nttp3072
sg8
I421
sg10
I46
sba(ibeta_strands
Comp
p3073
(dp3074
g5
S'K'
sg6
((I0
Nttp3075
sg8
I645
sg10
I46
sba(ibeta_strands
Comp
p3076
(dp3077
g5
S'H'
sg6
((NI0
ttp3078
sg8
I238
sg10
I34
sba(ibeta_strands
Comp
p3079
(dp3080
g5
S'G'
sg6
((I0
Nttp3081
sg8
I262
sg10
I34
sba(ibeta_strands
Comp
p3082
(dp3083
g5
S'M'
sg6
((NI0
ttp3084
sg8
I344
sg10
I34
sba(ibeta_strands
Comp
p3085
(dp3086
g5
S'Q'
sg6
((I0
Nttp3087
sg8
I400
sg10
I34
sba(ibeta_strands
Comp
p3088
(dp3089
g5
S'E'
sg6
((NI0
ttp3090
sg8
I419
sg10
I31
sba(ibeta_strands
Comp
p3091
(dp3092
g5
S'C'
sg6
((NI0
ttp3093
sg8
I396
sg10
I30
sba(ibeta_strands
Comp
p3094
(dp3095
g5
S'C'
sg6
((I0
Nttp3096
sg8
I274
sg10
I28
sba(ibeta_strands
Comp
p3097
(dp3098
g5
S'K'
sg6
((NI0
ttp3099
sg8
I432
sg10
I28
sba(ibeta_strands
Comp
p3100
(dp3101
g5
S'N'
sg6
((I0
Nttp3102
sg8
I257
sg10
I19
sba(ibeta_strands
Comp
p3103
(dp3104
g5
S'D'
sg6
((NI0
ttp3105
sg8
I296
sg10
I19
sba(ibeta_strands
Comp
p3106
(dp3107
g5
S'Q'
sg6
((NI0
ttp3108
sg8
I316
sg10
I19
sba(ibeta_strands
Comp
p3109
(dp3110
g5
S'D'
sg6
((I0
Nttp3111
sg8
I286
sg10
I16
sba(ibeta_strands
Comp
p3112
(dp3113
g5
S'N'
sg6
((NI0
ttp3114
sg8
I211
sg10
I14
sba(ibeta_strands
Comp
p3115
(dp3116
g5
S'H'
sg6
((I0
Nttp3117
sg8
I308
sg10
I14
sba(ibeta_strands
Comp
p3118
(dp3119
g5
S'P'
sg6
((I0
I1
ttp3120
sg8
I-3
sg10
I3
sba(ibeta_strands
Comp
p3121
(dp3122
g5
S'G'
sg6
((I1
I1
ttp3123
sg8
I1
sg10
I2
sba(ibeta_strands
Comp
p3124
(dp3125
g5
S'H'
sg6
((I-1
Nttp3126
sg8
I-1
sg10
I1
sba(ibeta_strands
Comp
p3127
(dp3128
g5
S'I'
sg6
((I-1
I-1
ttp3129
sg8
I0
sg10
I1
sbasS'N'
(lp3130
(ibeta_strands
Comp
p3131
(dp3132
g5
S'T'
sg6
((I0
I0
ttp3133
sg8
I52930
sg9
F1.9226423037382137
sg10
I2385
sg11
g12
(g14
S'\x14\xe74E\x02t\x82\x0b'
tRp3134
sba(ibeta_strands
Comp
p3135
(dp3136
g5
S'S'
sg6
((I0
I0
ttp3137
sg8
I44864
sg9
F1.9625815663119064
sg10
I2068
sg11
g12
(g14
S'.\xbd3\x14\xf9\xcc\xf3\x0f'
tRp3138
sba(ibeta_strands
Comp
p3139
(dp3140
g5
S'T'
sg6
((NNttp3141
sg8
I56640
sg9
F1.3087710715668888
sg10
I1872
sg11
g12
(g14
S'+\x1e\xed_\x8dE\xe48'
tRp3142
sba(ibeta_strands
Comp
p3143
(dp3144
g5
S'S'
sg6
((NNttp3145
sg8
I40638
sg9
F1.7664420909970424
sg10
I1834
sg11
g12
(g14
S'\xab\x9b\x98n(k\xdc!'
tRp3146
sba(ibeta_strands
Comp
p3147
(dp3148
g5
S'V'
sg6
((I0
I0
ttp3149
sg8
I108941
sg9
F0.62655371358847645
sg10
I1552
sg11
g12
(g14
S'\xaa1lcs\xdbQ-'
tRp3150
sba(ibeta_strands
Comp
p3151
(dp3152
g5
S'E'
sg6
((I0
I0
ttp3153
sg8
I38845
sg9
F1.6741462822303419
sg10
I1514
sg11
g12
(g14
S'r%\xe5\x05\t\xf0\xc2+'
tRp3154
sba(ibeta_strands
Comp
p3155
(dp3156
g5
S'K'
sg6
((NNttp3157
sg8
I35319
sg9
F1.6142714583964732
sg10
I1451
sg11
g12
(g14
S"_j\x98\t'\x99;/"
tRp3158
sba(ibeta_strands
Comp
p3159
(dp3160
g5
S'V'
sg6
((NNttp3161
sg8
I100272
sg9
F0.57994567272289732
sg10
I1442
sg11
g12
(g14
S'\xb1\x04\x8cS]\xe4\\('
tRp3162
sba(ibeta_strands
Comp
p3163
(dp3164
g5
S'G'
sg6
((I0
I0
ttp3165
sg8
I44035
sg9
F1.1750587531804679
sg10
I1192
sg11
g12
(g14
S'\xb7\x01\xa0D\x91\xe2?>'
tRp3166
sba(ibeta_strands
Comp
p3167
(dp3168
g5
S'L'
sg6
((NNttp3169
sg8
I81495
sg9
F0.57459338362973744
sg10
I1161
sg11
g12
(g14
S'\xc2\r\x0e\x9bI[\xc6,'
tRp3170
sba(ibeta_strands
Comp
p3171
(dp3172
g5
S'D'
sg6
((NNttp3173
sg8
I19133
sg9
F2.2297369319881315
sg10
I1103
sg11
g12
(g14
S'\x96\x9f-\xb3\xfa90\x1c'
tRp3174
sba(ibeta_strands
Comp
p3175
(dp3176
g5
S'R'
sg6
((NNttp3177
sg8
I35787
sg9
F1.1962096681702543
sg10
I1078
sg11
g12
(g14
S'$\xf9\xebI%=\x13>'
tRp3178
sba(ibeta_strands
Comp
p3179
(dp3180
g5
S'N'
sg6
((NNttp3181
sg8
I18157
sg9
F2.2161684099807784
sg10
I1040
sg11
g12
(g14
S'N|@r\x19\xeb\xca\x1e'
tRp3182
sba(ibeta_strands
Comp
p3183
(dp3184
g5
S'E'
sg6
((NNttp3185
sg8
I36822
sg9
F1.0984197186249327
sg10
I1016
sg11
g12
(g14
S'\x15\x88\xbfXxp`?'
tRp3186
sba(ibeta_strands
Comp
p3187
(dp3188
g5
S'Q'
sg6
((NNttp3189
sg8
I22640
sg9
F1.7121970122995289
sg10
I989
sg11
g12
(g14
S'yJ\xfa`-O\xba1'
tRp3190
sba(ibeta_strands
Comp
p3191
(dp3192
g5
S'I'
sg6
((I0
I0
ttp3193
sg8
I73789
sg9
F0.58837119874292088
sg10
I986
sg11
g12
(g14
S'\xa5+\xdf\x01%;M1'
tRp3194
sba(ibeta_strands
Comp
p3195
(dp3196
g5
S'I'
sg6
((NNttp3197
sg8
I70603
sg9
F0.56060353318155787
sg10
I981
sg11
g12
(g14
S'\x0eO\xe8\x04(A}.'
tRp3198
sba(ibeta_strands
Comp
p3199
(dp3200
g5
S'Y'
sg6
((NNttp3201
sg8
I42612
sg9
F0.91873158101854524
sg10
I979
sg11
g12
(g14
S'9\xe5\xcc%\xce\x93x?'
tRp3202
sba(ibeta_strands
Comp
p3203
(dp3204
g5
S'L'
sg6
((I0
I0
ttp3205
sg8
I84728
sg9
F0.47971227419659607
sg10
I921
sg11
g12
(g14
S'PRW\xb9\xc9u\xf6$'
tRp3206
sba(ibeta_strands
Comp
p3207
(dp3208
g5
S'A'
sg6
((I0
I0
ttp3209
sg8
I53721
sg9
F0.73607052057026068
sg10
I901
sg11
g12
(g14
S'\xdf\x13aAM\xd2\x83;'
tRp3210
sba(ibeta_strands
Comp
p3211
(dp3212
g5
S'Y'
sg6
((I0
I0
ttp3213
sg8
I49651
sg9
F0.79020290895395251
sg10
I897
sg11
g12
(g14
S'\xaa\xf8\x93\x88\xc4\x0bJ='
tRp3214
sba(ibeta_strands
Comp
p3215
(dp3216
g5
S'K'
sg6
((I0
I0
ttp3217
sg8
I40848
sg9
F0.9351672042248651
sg10
I874
sg11
g12
(g14
S'\x1d\xc8\xfa\xf3\\5\xa5?'
tRp3218
sba(ibeta_strands
Comp
p3219
(dp3220
g5
S'R'
sg6
((I0
I0
ttp3221
sg8
I40582
sg9
F0.93261786799546476
sg10
I866
sg11
g12
(g14
S'\xbb\x86\xb2\x9f5\xb9\xa1?'
tRp3222
sba(ibeta_strands
Comp
p3223
(dp3224
g5
S'F'
sg6
((I0
I0
ttp3225
sg8
I51400
sg9
F0.7319235729637773
sg10
I859
sg11
g12
(g14
S'__u\xb7\x1d\xea\x92;'
tRp3226
sba(ibeta_strands
Comp
p3227
(dp3228
g5
S'N'
sg6
((I0
I0
ttp3229
sg8
I17953
sg9
F2.0106063307066289
sg10
I848
sg11
g12
(g14
S'\x0c\xf4\xe7[n\xf2]+'
tRp3230
sba(ibeta_strands
Comp
p3231
(dp3232
g5
S'D'
sg6
((I0
I0
ttp3233
sg8
I22449
sg9
F1.5957568335852033
sg10
I833
sg11
g12
(g14
S'\t\x8a(\xffH7\xea6'
tRp3234
sba(ibeta_strands
Comp
p3235
(dp3236
g5
S'Q'
sg6
((I0
I0
ttp3237
sg8
I27135
sg9
F1.3078966386496043
sg10
I819
sg11
g12
(g14
S'6\xe2\x88\xe5\\+\xe8<'
tRp3238
sba(ibeta_strands
Comp
p3239
(dp3240
g5
S'A'
sg6
((NNttp3241
sg8
I47297
sg9
F0.68459785171959919
sg10
I805
sg11
g12
(g14
S'\xcf\xbb$\x15\x14f\xf39'
tRp3242
sba(ibeta_strands
Comp
p3243
(dp3244
g5
S'F'
sg6
((NNttp3245
sg8
I43161
sg9
F0.74625943194919164
sg10
I802
sg11
g12
(g14
S'm\xfaY\xafpSW<'
tRp3246
sba(ibeta_strands
Comp
p3247
(dp3248
g5
S'G'
sg6
((NNttp3249
sg8
I27928
sg9
F0.99885885337921632
sg10
I699
sg11
g12
(g14
S'\x00\xa7\xac8\xe9\xb3\xef?'
tRp3250
sba(ibeta_strands
Comp
p3251
(dp3252
g5
S'P'
sg6
((NNttp3253
sg8
I20352
sg9
F1.1144855539829517
sg10
I570
sg11
g12
(g14
S"\xe1\xe1'\x87dD\x81?"
tRp3254
sba(ibeta_strands
Comp
p3255
(dp3256
g5
S'H'
sg6
((I0
I0
ttp3257
sg8
I19522
sg9
F1.1270270896281798
sg10
I506
sg11
g12
(g14
S'\xd1~\x96\xeb$\xdby?'
tRp3258
sba(ibeta_strands
Comp
p3259
(dp3260
g5
S'H'
sg6
((NNttp3261
sg8
I14971
sg9
F1.3092722969471804
sg10
I495
sg11
g12
(g14
S'r4\x9bj\xc2\x8f\x0f>'
tRp3262
sba(ibeta_strands
Comp
p3263
(dp3264
g5
S'W'
sg6
((NNttp3265
sg8
I18793
sg9
F0.86506792703339952
sg10
I406
sg11
g12
(g14
S'%\xbb\nez-h?'
tRp3266
sba(ibeta_strands
Comp
p3267
(dp3268
g5
S'W'
sg6
((I0
I0
ttp3269
sg8
I15915
sg9
F0.89117324549608745
sg10
I325
sg11
g12
(g14
S'\x18,\xca\x16\x82{\xa2?'
tRp3270
sba(ibeta_strands
Comp
p3271
(dp3272
g5
S'M'
sg6
((NNttp3273
sg8
I15104
sg9
F0.76802854040109947
sg10
I289
sg11
g12
(g14
S'nsl\xd3\x14\xfe\xd3>'
tRp3274
sba(ibeta_strands
Comp
p3275
(dp3276
g5
S'C'
sg6
((I0
I0
ttp3277
sg8
I16450
sg9
F0.66871621125245417
sg10
I251
sg11
g12
(g14
S'\x88\xb8_\xcf\xf0\x00\xd2='
tRp3278
sba(ibeta_strands
Comp
p3279
(dp3280
g5
S'M'
sg6
((I0
I0
ttp3281
sg8
I16176
sg9
F0.55549443692017542
sg10
I204
sg11
g12
(g14
S'.\x8e\xdd[\xe2BS<'
tRp3282
sba(ibeta_strands
Comp
p3283
(dp3284
g5
S'C'
sg6
((NNttp3285
sg8
I18380
sg9
F0.40764259767056416
sg10
I185
sg11
g12
(g14
S'\xe8`C<\xcdX,8'
tRp3286
sba(ibeta_strands
Comp
p3287
(dp3288
g5
S'V'
sg6
((NI0
ttp3289
sg8
I3054
sg10
I40
sba(ibeta_strands
Comp
p3290
(dp3291
g5
S'P'
sg6
((I0
Nttp3292
sg8
I1219
sg10
I35
sba(ibeta_strands
Comp
p3293
(dp3294
g5
S'K'
sg6
((NI0
ttp3295
sg8
I435
sg10
I25
sba(ibeta_strands
Comp
p3296
(dp3297
g5
S'A'
sg6
((NI0
ttp3298
sg8
I1037
sg10
I22
sba(ibeta_strands
Comp
p3299
(dp3300
g5
S'E'
sg6
((NI0
ttp3301
sg8
I430
sg10
I20
sba(ibeta_strands
Comp
p3302
(dp3303
g5
S'V'
sg6
((I0
Nttp3304
sg8
I3699
sg10
I20
sba(ibeta_strands
Comp
p3305
(dp3306
g5
S'L'
sg6
((NI0
ttp3307
sg8
I2431
sg10
I19
sba(ibeta_strands
Comp
p3308
(dp3309
g5
S'T'
sg6
((I0
Nttp3310
sg8
I898
sg10
I18
sba(ibeta_strands
Comp
p3311
(dp3312
g5
S'H'
sg6
((I0
Nttp3313
sg8
I305
sg10
I17
sba(ibeta_strands
Comp
p3314
(dp3315
g5
S'Y'
sg6
((NI0
ttp3316
sg8
I1915
sg10
I17
sba(ibeta_strands
Comp
p3317
(dp3318
g5
S'I'
sg6
((NI0
ttp3319
sg8
I2009
sg10
I17
sba(ibeta_strands
Comp
p3320
(dp3321
g5
S'K'
sg6
((I0
Nttp3322
sg8
I675
sg10
I16
sba(ibeta_strands
Comp
p3323
(dp3324
g5
S'E'
sg6
((I0
Nttp3325
sg8
I749
sg10
I16
sba(ibeta_strands
Comp
p3326
(dp3327
g5
S'I'
sg6
((I0
Nttp3328
sg8
I2945
sg10
I16
sba(ibeta_strands
Comp
p3329
(dp3330
g5
S'S'
sg6
((NI0
ttp3331
sg8
I786
sg10
I15
sba(ibeta_strands
Comp
p3332
(dp3333
g5
S'M'
sg6
((NI0
ttp3334
sg8
I364
sg10
I14
sba(ibeta_strands
Comp
p3335
(dp3336
g5
S'T'
sg6
((NI0
ttp3337
sg8
I1022
sg10
I14
sba(ibeta_strands
Comp
p3338
(dp3339
g5
S'L'
sg6
((I0
Nttp3340
sg8
I2492
sg10
I14
sba(ibeta_strands
Comp
p3341
(dp3342
g5
S'G'
sg6
((NI0
ttp3343
sg8
I688
sg10
I13
sba(ibeta_strands
Comp
p3344
(dp3345
g5
S'Q'
sg6
((NI0
ttp3346
sg8
I323
sg10
I12
sba(ibeta_strands
Comp
p3347
(dp3348
g5
S'G'
sg6
((I0
Nttp3349
sg8
I285
sg10
I11
sba(ibeta_strands
Comp
p3350
(dp3351
g5
S'D'
sg6
((NI0
ttp3352
sg8
I304
sg10
I11
sba(ibeta_strands
Comp
p3353
(dp3354
g5
S'F'
sg6
((NI0
ttp3355
sg8
I1779
sg10
I11
sba(ibeta_strands
Comp
p3356
(dp3357
g5
S'Q'
sg6
((I0
Nttp3358
sg8
I424
sg10
I10
sba(ibeta_strands
Comp
p3359
(dp3360
g5
S'W'
sg6
((NI0
ttp3361
sg8
I617
sg10
I10
sba(ibeta_strands
Comp
p3362
(dp3363
g5
S'R'
sg6
((I0
Nttp3364
sg8
I520
sg10
I8
sba(ibeta_strands
Comp
p3365
(dp3366
g5
S'Y'
sg6
((I0
Nttp3367
sg8
I593
sg10
I8
sba(ibeta_strands
Comp
p3368
(dp3369
g5
S'F'
sg6
((I0
Nttp3370
sg8
I925
sg10
I8
sba(ibeta_strands
Comp
p3371
(dp3372
g5
S'S'
sg6
((I0
Nttp3373
sg8
I522
sg10
I7
sba(ibeta_strands
Comp
p3374
(dp3375
g5
S'A'
sg6
((I0
Nttp3376
sg8
I881
sg10
I7
sba(ibeta_strands
Comp
p3377
(dp3378
g5
S'C'
sg6
((NI0
ttp3379
sg8
I420
sg10
I6
sba(ibeta_strands
Comp
p3380
(dp3381
g5
S'N'
sg6
((NI0
ttp3382
sg8
I220
sg10
I5
sba(ibeta_strands
Comp
p3383
(dp3384
g5
S'N'
sg6
((I0
Nttp3385
sg8
I271
sg10
I5
sba(ibeta_strands
Comp
p3386
(dp3387
g5
S'R'
sg6
((NI0
ttp3388
sg8
I516
sg10
I5
sba(ibeta_strands
Comp
p3389
(dp3390
g5
S'D'
sg6
((I0
Nttp3391
sg8
I299
sg10
I3
sba(ibeta_strands
Comp
p3392
(dp3393
g5
S'C'
sg6
((I0
Nttp3394
sg8
I300
sg10
I2
sba(ibeta_strands
Comp
p3395
(dp3396
g5
S'M'
sg6
((I0
Nttp3397
sg8
I302
sg10
I2
sba(ibeta_strands
Comp
p3398
(dp3399
g5
S'W'
sg6
((I0
Nttp3400
sg8
I465
sg10
I2
sbasS'Q'
(lp3401
(ibeta_strands
Comp
p3402
(dp3403
g5
S'V'
sg6
((I0
I0
ttp3404
sg8
I107129
sg9
F0.91470469250191211
sg10
I3364
sg11
g12
(g14
S'\x8aD\x87\x00\x8d\xadR>'
tRp3405
sba(ibeta_strands
Comp
p3406
(dp3407
g5
S'T'
sg6
((NNttp3408
sg8
I55646
sg9
F1.6278787396474854
sg10
I2866
sg11
g12
(g14
S'\xd1\x97\xc1d$\x9e\xc8\x1c'
tRp3409
sba(ibeta_strands
Comp
p3410
(dp3411
g5
S'T'
sg6
((I0
I0
ttp3412
sg8
I52497
sg9
F1.5300634034468363
sg10
I2818
sg11
g12
(g14
S'\t\x1f\xdb\x029 \xd2%'
tRp3413
sba(ibeta_strands
Comp
p3414
(dp3415
g5
S'S'
sg6
((I0
I0
ttp3416
sg8
I44685
sg9
F1.4362782432743306
sg10
I2247
sg11
g12
(g14
S'Q\xc8\x1f\xacAm\xf60'
tRp3417
sba(ibeta_strands
Comp
p3418
(dp3419
g5
S'L'
sg6
((I0
I0
ttp3420
sg8
I83422
sg9
F0.78126747764057425
sg10
I2227
sg11
g12
(g14
S'\x025Il\xbb\xae\x9d8'
tRp3421
sba(ibeta_strands
Comp
p3422
(dp3423
g5
S'R'
sg6
((I0
I0
ttp3424
sg8
I39233
sg9
F1.6066374976221169
sg10
I2215
sg11
g12
(g14
S'\xa2%\xba\xe59\x13\xc5&'
tRp3425
sba(ibeta_strands
Comp
p3426
(dp3427
g5
S'K'
sg6
((I0
I0
ttp3428
sg8
I39579
sg9
F1.5443948147466331
sg10
I2143
sg11
g12
(g14
S'\x1f\xf5\xf7W\xa9v|+'
tRp3429
sba(ibeta_strands
Comp
p3430
(dp3431
g5
S'L'
sg6
((NNttp3432
sg8
I80548
sg9
F0.84759235376281505
sg10
I2108
sg11
g12
(g14
S'\x8e~\x1c\x959\xa0\xba<'
tRp3433
sba(ibeta_strands
Comp
p3434
(dp3435
g5
S'I'
sg6
((I0
I0
ttp3436
sg8
I72959
sg9
F0.72987529400490991
sg10
I1816
sg11
g12
(g14
S'\xf6\xac\xd3\xbd\x06od6'
tRp3437
sba(ibeta_strands
Comp
p3438
(dp3439
g5
S'S'
sg6
((NNttp3440
sg8
I40802
sg9
F1.3067862825450951
sg10
I1670
sg11
g12
(g14
S']\x0b\xb9[\xe6D\xcc9'
tRp3441
sba(ibeta_strands
Comp
p3442
(dp3443
g5
S'V'
sg6
((NNttp3444
sg8
I100053
sg9
F0.54272484957608635
sg10
I1661
sg11
g12
(g14
S'\xba\x96\x8b\xc8\xc8\xe1v\x1d'
tRp3445
sba(ibeta_strands
Comp
p3446
(dp3447
g5
S'A'
sg6
((I0
I0
ttp3448
sg8
I53095
sg9
F0.8402180348922027
sg10
I1527
sg11
g12
(g14
S'X\xcc>C\xe8\x0fn='
tRp3449
sba(ibeta_strands
Comp
p3450
(dp3451
g5
S'E'
sg6
((NNttp3452
sg8
I36335
sg9
F1.3201449414088946
sg10
I1503
sg11
g12
(g14
S'yvE\xc3\xe6\xf9\x02:'
tRp3453
sba(ibeta_strands
Comp
p3454
(dp3455
g5
S'R'
sg6
((NNttp3456
sg8
I35458
sg9
F1.2684421566973716
sg10
I1407
sg11
g12
(g14
S'\xfbev\xcd\xf4`\xd3;'
tRp3457
sba(ibeta_strands
Comp
p3458
(dp3459
g5
S'Y'
sg6
((NNttp3460
sg8
I42210
sg9
F1.052901282516354
sg10
I1381
sg11
g12
(g14
S'\xc6F\x17j\xdb\x01\xa8?'
tRp3461
sba(ibeta_strands
Comp
p3462
(dp3463
g5
S'E'
sg6
((I0
I0
ttp3464
sg8
I38998
sg9
F1.0136405625356801
sg10
I1361
sg11
g12
(g14
S'\xf9\x9a\x7f\x8d\x01\x98\xe3?'
tRp3465
sba(ibeta_strands
Comp
p3466
(dp3467
g5
S'K'
sg6
((NNttp3468
sg8
I35423
sg9
F1.2174882374261735
sg10
I1347
sg11
g12
(g14
S'\x1b4\x9d\xaeE\xe20='
tRp3469
sba(ibeta_strands
Comp
p3470
(dp3471
g5
S'I'
sg6
((NNttp3472
sg8
I70308
sg9
F0.59241428220434744
sg10
I1276
sg11
g12
(g14
S'=Q\xa6x\x1d\x17]-'
tRp3473
sba(ibeta_strands
Comp
p3474
(dp3475
g5
S'Q'
sg6
((I0
I0
ttp3476
sg8
I26738
sg9
F1.3079207361291056
sg10
I1216
sg11
g12
(g14
S'L\xdau.$\xf8w;'
tRp3477
sba(ibeta_strands
Comp
p3478
(dp3479
g5
S'F'
sg6
((I0
I0
ttp3480
sg8
I51071
sg9
F0.68178483965564962
sg10
I1188
sg11
g12
(g14
S'\xfb\xe4o\xe0OE\xea6'
tRp3481
sba(ibeta_strands
Comp
p3482
(dp3483
g5
S'Y'
sg6
((I0
I0
ttp3484
sg8
I49365
sg9
F0.70192264590862163
sg10
I1183
sg11
g12
(g14
S'\x91b\xfcv\x13\x03D8'
tRp3485
sba(ibeta_strands
Comp
p3486
(dp3487
g5
S'F'
sg6
((NNttp3488
sg8
I42822
sg9
F0.86255963742732589
sg10
I1141
sg11
g12
(g14
S'\xce\x83\x0c?\xedc\x89>'
tRp3489
sba(ibeta_strands
Comp
p3490
(dp3491
g5
S'D'
sg6
((NNttp3492
sg8
I19231
sg9
F1.6505633562056521
sg10
I1005
sg11
g12
(g14
S'\x18\xa2\xf9\x1f\xcf\x08e3'
tRp3493
sba(ibeta_strands
Comp
p3494
(dp3495
g5
S'N'
sg6
((NNttp3496
sg8
I18208
sg9
F1.7121970122995289
sg10
I989
sg11
g12
(g14
S'yJ\xfa`-O\xba1'
tRp3497
sba(ibeta_strands
Comp
p3498
(dp3499
g5
S'D'
sg6
((I0
I0
ttp3500
sg8
I22303
sg9
F1.2631727021357892
sg10
I979
sg11
g12
(g14
S'^\xcd\xcal[\xc8*='
tRp3501
sba(ibeta_strands
Comp
p3502
(dp3503
g5
S'G'
sg6
((I0
I0
ttp3504
sg8
I44287
sg9
F0.62412202456328969
sg10
I940
sg11
g12
(g14
S'\x0bj\x8f\xcdf\xac25'
tRp3505
sba(ibeta_strands
Comp
p3506
(dp3507
g5
S'A'
sg6
((NNttp3508
sg8
I47222
sg9
F0.60800947379513948
sg10
I880
sg11
g12
(g14
S'\x90\xd6\x17W\x1bF\xac4'
tRp3509
sba(ibeta_strands
Comp
p3510
(dp3511
g5
S'Q'
sg6
((NNttp3512
sg8
I22751
sg9
F1.2349232914897312
sg10
I878
sg11
g12
(g14
S'\xe2f\x8b\xc8\xf4\x86\xe0='
tRp3513
sba(ibeta_strands
Comp
p3514
(dp3515
g5
S'N'
sg6
((I0
I0
ttp3516
sg8
I17982
sg9
F1.3078966386496043
sg10
I819
sg11
g12
(g14
S'6\xe2\x88\xe5\\+\xe8<'
tRp3517
sba(ibeta_strands
Comp
p3518
(dp3519
g5
S'C'
sg6
((NNttp3520
sg8
I17750
sg9
F1.4589938571127519
sg10
I815
sg11
g12
(g14
S'`\x07W\xa1\xcd\xb2\x1d:'
tRp3521
sba(ibeta_strands
Comp
p3522
(dp3523
g5
S'G'
sg6
((NNttp3524
sg8
I27857
sg9
F0.89393449348279863
sg10
I770
sg11
g12
(g14
S'n\xb8\xc4k\x82SV?'
tRp3525
sba(ibeta_strands
Comp
p3526
(dp3527
g5
S'H'
sg6
((I0
I0
ttp3528
sg8
I19419
sg9
F0.91360708588294026
sg10
I609
sg11
g12
(g14
S'\x9fOk\xb4\xa6b\x97?'
tRp3529
sba(ibeta_strands
Comp
p3530
(dp3531
g5
S'W'
sg6
((NNttp3532
sg8
I18624
sg9
F0.99535967974089168
sg10
I575
sg11
g12
(g14
S'}$\xb9c=\x9f\xed?'
tRp3533
sba(ibeta_strands
Comp
p3534
(dp3535
g5
S'M'
sg6
((I0
I0
ttp3536
sg8
I15872
sg9
F0.93169032856157963
sg10
I508
sg11
g12
(g14
S'\x0b\x80\x8c\x94\x8b$\xbb?'
tRp3537
sba(ibeta_strands
Comp
p3538
(dp3539
g5
S'P'
sg6
((NNttp3540
sg8
I20414
sg9
F0.80695872699870352
sg10
I508
sg11
g12
(g14
S'C`\xa2\xef\xc0 \xa7>'
tRp3541
sba(ibeta_strands
Comp
p3542
(dp3543
g5
S'H'
sg6
((NNttp3544
sg8
I14961
sg9
F1.0851859954378937
sg10
I505
sg11
g12
(g14
S'\xee\xcfB:\xbd\x11\xb0?'
tRp3545
sba(ibeta_strands
Comp
p3546
(dp3547
g5
S'W'
sg6
((I0
I0
ttp3548
sg8
I15830
sg9
F0.75721806076470488
sg10
I410
sg11
g12
(g14
S'\x90\xdc\x9e\xab\x03\n@>'
tRp3549
sba(ibeta_strands
Comp
p3550
(dp3551
g5
S'C'
sg6
((I0
I0
ttp3552
sg8
I16317
sg9
F0.6890610204790607
sg10
I384
sg11
g12
(g14
S'W\x8f\xb7Y\xce\x08/='
tRp3553
sba(ibeta_strands
Comp
p3554
(dp3555
g5
S'M'
sg6
((NNttp3556
sg8
I15049
sg9
F0.74272147520728626
sg10
I344
sg11
g12
(g14
S'\xcaoV\x06+\xceP>'
tRp3557
sba(ibeta_strands
Comp
p3558
(dp3559
g5
S'Y'
sg6
((NI0
ttp3560
sg8
I1856
sg10
I76
sba(ibeta_strands
Comp
p3561
(dp3562
g5
S'W'
sg6
((NI0
ttp3563
sg8
I580
sg10
I47
sba(ibeta_strands
Comp
p3564
(dp3565
g5
S'V'
sg6
((NI0
ttp3566
sg8
I3055
sg10
I39
sba(ibeta_strands
Comp
p3567
(dp3568
g5
S'A'
sg6
((I0
Nttp3569
sg8
I853
sg10
I35
sba(ibeta_strands
Comp
p3570
(dp3571
g5
S'T'
sg6
((I0
Nttp3572
sg8
I881
sg10
I35
sba(ibeta_strands
Comp
p3573
(dp3574
g5
S'L'
sg6
((NI0
ttp3575
sg8
I2416
sg10
I34
sba(ibeta_strands
Comp
p3576
(dp3577
g5
S'F'
sg6
((NI0
ttp3578
sg8
I1757
sg10
I33
sba(ibeta_strands
Comp
p3579
(dp3580
g5
S'T'
sg6
((NI0
ttp3581
sg8
I1008
sg10
I28
sba(ibeta_strands
Comp
p3582
(dp3583
g5
S'Y'
sg6
((I0
Nttp3584
sg8
I574
sg10
I27
sba(ibeta_strands
Comp
p3585
(dp3586
g5
S'V'
sg6
((I0
Nttp3587
sg8
I3692
sg10
I27
sba(ibeta_strands
Comp
p3588
(dp3589
g5
S'K'
sg6
((I0
Nttp3590
sg8
I665
sg10
I26
sba(ibeta_strands
Comp
p3591
(dp3592
g5
S'I'
sg6
((NI0
ttp3593
sg8
I2002
sg10
I24
sba(ibeta_strands
Comp
p3594
(dp3595
g5
S'I'
sg6
((I0
Nttp3596
sg8
I2938
sg10
I23
sba(ibeta_strands
Comp
p3597
(dp3598
g5
S'H'
sg6
((I0
Nttp3599
sg8
I301
sg10
I21
sba(ibeta_strands
Comp
p3600
(dp3601
g5
S'A'
sg6
((NI0
ttp3602
sg8
I1038
sg10
I21
sba(ibeta_strands
Comp
p3603
(dp3604
g5
S'L'
sg6
((I0
Nttp3605
sg8
I2487
sg10
I19
sba(ibeta_strands
Comp
p3606
(dp3607
g5
S'E'
sg6
((I0
Nttp3608
sg8
I747
sg10
I18
sba(ibeta_strands
Comp
p3609
(dp3610
g5
S'S'
sg6
((NI0
ttp3611
sg8
I783
sg10
I18
sba(ibeta_strands
Comp
p3612
(dp3613
g5
S'D'
sg6
((I0
Nttp3614
sg8
I286
sg10
I16
sba(ibeta_strands
Comp
p3615
(dp3616
g5
S'C'
sg6
((NI0
ttp3617
sg8
I410
sg10
I16
sba(ibeta_strands
Comp
p3618
(dp3619
g5
S'E'
sg6
((NI0
ttp3620
sg8
I434
sg10
I16
sba(ibeta_strands
Comp
p3621
(dp3622
g5
S'N'
sg6
((I0
Nttp3623
sg8
I262
sg10
I14
sba(ibeta_strands
Comp
p3624
(dp3625
g5
S'Q'
sg6
((NI0
ttp3626
sg8
I321
sg10
I14
sba(ibeta_strands
Comp
p3627
(dp3628
g5
S'S'
sg6
((I0
Nttp3629
sg8
I515
sg10
I14
sba(ibeta_strands
Comp
p3630
(dp3631
g5
S'D'
sg6
((NI0
ttp3632
sg8
I303
sg10
I12
sba(ibeta_strands
Comp
p3633
(dp3634
g5
S'Q'
sg6
((I0
Nttp3635
sg8
I422
sg10
I12
sba(ibeta_strands
Comp
p3636
(dp3637
g5
S'G'
sg6
((NI0
ttp3638
sg8
I689
sg10
I12
sba(ibeta_strands
Comp
p3639
(dp3640
g5
S'P'
sg6
((I0
Nttp3641
sg8
I1242
sg10
I12
sba(ibeta_strands
Comp
p3642
(dp3643
g5
S'H'
sg6
((NI0
ttp3644
sg8
I262
sg10
I10
sba(ibeta_strands
Comp
p3645
(dp3646
g5
S'K'
sg6
((NI0
ttp3647
sg8
I450
sg10
I10
sba(ibeta_strands
Comp
p3648
(dp3649
g5
S'R'
sg6
((NI0
ttp3650
sg8
I511
sg10
I10
sba(ibeta_strands
Comp
p3651
(dp3652
g5
S'R'
sg6
((I0
Nttp3653
sg8
I519
sg10
I9
sba(ibeta_strands
Comp
p3654
(dp3655
g5
S'N'
sg6
((NI0
ttp3656
sg8
I217
sg10
I8
sba(ibeta_strands
Comp
p3657
(dp3658
g5
S'W'
sg6
((I0
Nttp3659
sg8
I459
sg10
I8
sba(ibeta_strands
Comp
p3660
(dp3661
g5
S'G'
sg6
((I0
Nttp3662
sg8
I290
sg10
I6
sba(ibeta_strands
Comp
p3663
(dp3664
g5
S'M'
sg6
((NI0
ttp3665
sg8
I372
sg10
I6
sba(ibeta_strands
Comp
p3666
(dp3667
g5
S'M'
sg6
((I0
Nttp3668
sg8
I299
sg10
I5
sba(ibeta_strands
Comp
p3669
(dp3670
g5
S'F'
sg6
((I0
Nttp3671
sg8
I928
sg10
I5
sba(ibeta_strands
Comp
p3672
(dp3673
g5
S'C'
sg6
((I0
Nttp3674
sg8
I299
sg10
I3
sba(ibeta_strands
Comp
p3675
(dp3676
g5
S'C'
sg6
((I0
I1
ttp3677
sg8
I-1
sg10
I1
sba(ibeta_strands
Comp
p3678
(dp3679
g5
S'G'
sg6
((I1
I1
ttp3680
sg8
I2
sg10
I1
sbasS'P'
(lp3681
(ibeta_strands
Comp
p3682
(dp3683
g5
S'V'
sg6
((NNttp3684
sg8
I99597
sg9
F0.78121950339012658
sg10
I2117
sg11
g12
(g14
S'2\xee\xc2\xf7\x11\xc4\xcb8'
tRp3685
sba(ibeta_strands
Comp
p3686
(dp3687
g5
S'L'
sg6
((NNttp3688
sg8
I80573
sg9
F0.94590569053786522
sg10
I2083
sg11
g12
(g14
S'\xc3\xbd\xf4\xf7\x0f\xab{?'
tRp3689
sba(ibeta_strands
Comp
p3690
(dp3691
g5
S'Y'
sg6
((NNttp3692
sg8
I41719
sg9
F1.6119143628394916
sg10
I1872
sg11
g12
(g14
S'\xc0\x87M\x99)\xa6V*'
tRp3693
sba(ibeta_strands
Comp
p3694
(dp3695
g5
S'F'
sg6
((NNttp3696
sg8
I42332
sg9
F1.3925140735279904
sg10
I1631
sg11
g12
(g14
S'\x84\x0cR\x1df\xb3\xd66'
tRp3697
sba(ibeta_strands
Comp
p3698
(dp3699
g5
S'T'
sg6
((NNttp3700
sg8
I56957
sg9
F0.9975126297261464
sg10
I1555
sg11
g12
(g14
S'\xbe\xbc\x94S\xaf\xb3\xed?'
tRp3701
sba(ibeta_strands
Comp
p3702
(dp3703
g5
S'I'
sg6
((NNttp3704
sg8
I70211
sg9
F0.71992545168086486
sg10
I1373
sg11
g12
(g14
S'\x97\x10\xe4\xce\xd6z\x128'
tRp3705
sba(ibeta_strands
Comp
p3706
(dp3707
g5
S'C'
sg6
((NNttp3708
sg8
I17593
sg9
F1.9651887264543284
sg10
I972
sg11
g12
(g14
S'MF\xa1T:f\xd2)'
tRp3709
sba(ibeta_strands
Comp
p3710
(dp3711
g5
S'E'
sg6
((NNttp3712
sg8
I36869
sg9
F0.96123274500973188
sg10
I969
sg11
g12
(g14
S'\x84\xb75n:x\xca?'
tRp3713
sba(ibeta_strands
Comp
p3714
(dp3715
g5
S'A'
sg6
((NNttp3716
sg8
I47140
sg9
F0.75066279371897282
sg10
I962
sg11
g12
(g14
S'\xccW\xf2M=\xac\xca;'
tRp3717
sba(ibeta_strands
Comp
p3718
(dp3719
g5
S'W'
sg6
((NNttp3720
sg8
I18279
sg9
F1.798631402167864
sg10
I920
sg11
g12
(g14
S'R\xc0\x06.2\xcc20'
tRp3721
sba(ibeta_strands
Comp
p3722
(dp3723
g5
S'S'
sg6
((NNttp3724
sg8
I41559
sg9
F0.80686526153730964
sg10
I913
sg11
g12
(g14
S'\xcd\xc8\xff\xdb ^\xaf='
tRp3725
sba(ibeta_strands
Comp
p3726
(dp3727
g5
S'G'
sg6
((NNttp3728
sg8
I27745
sg9
F1.1564469094991945
sg10
I882
sg11
g12
(g14
S'\xfaNz\xad\x82\xa2\xe2>'
tRp3729
sba(ibeta_strands
Comp
p3730
(dp3731
g5
S'R'
sg6
((NNttp3732
sg8
I36096
sg9
F0.78296987773190696
sg10
I769
sg11
g12
(g14
S'V\x05\xa4\xc2RI\x80='
tRp3733
sba(ibeta_strands
Comp
p3734
(dp3735
g5
S'M'
sg6
((NNttp3736
sg8
I14676
sg9
F1.7483518564401328
sg10
I717
sg11
g12
(g14
S'\x91sjc-}\xd94'
tRp3737
sba(ibeta_strands
Comp
p3738
(dp3739
g5
S'K'
sg6
((NNttp3740
sg8
I36109
sg9
F0.67474672038393668
sg10
I661
sg11
g12
(g14
S'\x07[\\;\x01\xaf\xae:'
tRp3741
sba(ibeta_strands
Comp
p3742
(dp3743
g5
S'N'
sg6
((NNttp3744
sg8
I18627
sg9
F1.1144855539829517
sg10
I570
sg11
g12
(g14
S"\xe1\xe1'\x87dD\x81?"
tRp3745
sba(ibeta_strands
Comp
p3746
(dp3747
g5
S'H'
sg6
((NNttp3748
sg8
I14925
sg9
F1.3129621667310527
sg10
I541
sg11
g12
(g14
S'\xdd\x88\xf7\xee\x1e\x80\xd9='
tRp3749
sba(ibeta_strands
Comp
p3750
(dp3751
g5
S'D'
sg6
((NNttp3752
sg8
I19722
sg9
F0.95339177516036322
sg10
I514
sg11
g12
(g14
S'Z\xf9\xd1a\xfa\xaa\xd1?'
tRp3753
sba(ibeta_strands
Comp
p3754
(dp3755
g5
S'Q'
sg6
((NNttp3756
sg8
I23121
sg9
F0.80695872699870352
sg10
I508
sg11
g12
(g14
S'C`\xa2\xef\xc0 \xa7>'
tRp3757
sba(ibeta_strands
Comp
p3758
(dp3759
g5
S'P'
sg6
((NNttp3760
sg8
I20529
sg9
F0.70505387744836845
sg10
I393
sg11
g12
(g14
S'+ZD\x81\xd1[q='
tRp3761
sba(ibeta_strands
Comp
p3762
(dp3763
g5
S'F'
sg6
((NI0
ttp3764
sg8
I1625
sg10
I165
sba(ibeta_strands
Comp
p3765
(dp3766
g5
S'Y'
sg6
((NI0
ttp3767
sg8
I1780
sg10
I152
sba(ibeta_strands
Comp
p3768
(dp3769
g5
S'V'
sg6
((NI0
ttp3770
sg8
I2961
sg10
I133
sba(ibeta_strands
Comp
p3771
(dp3772
g5
S'S'
sg6
((NI0
ttp3773
sg8
I674
sg10
I127
sba(ibeta_strands
Comp
p3774
(dp3775
g5
S'L'
sg6
((NI0
ttp3776
sg8
I2352
sg10
I98
sba(ibeta_strands
Comp
p3777
(dp3778
g5
S'T'
sg6
((NI0
ttp3779
sg8
I951
sg10
I85
sba(ibeta_strands
Comp
p3780
(dp3781
g5
S'G'
sg6
((NI0
ttp3782
sg8
I622
sg10
I79
sba(ibeta_strands
Comp
p3783
(dp3784
g5
S'I'
sg6
((NI0
ttp3785
sg8
I1959
sg10
I67
sba(ibeta_strands
Comp
p3786
(dp3787
g5
S'C'
sg6
((NI0
ttp3788
sg8
I363
sg10
I63
sba(ibeta_strands
Comp
p3789
(dp3790
g5
S'W'
sg6
((NI0
ttp3791
sg8
I578
sg10
I49
sba(ibeta_strands
Comp
p3792
(dp3793
g5
S'A'
sg6
((NI0
ttp3794
sg8
I1014
sg10
I45
sba(ibeta_strands
Comp
p3795
(dp3796
g5
S'N'
sg6
((NI0
ttp3797
sg8
I190
sg10
I35
sba(ibeta_strands
Comp
p3798
(dp3799
g5
S'D'
sg6
((NI0
ttp3800
sg8
I284
sg10
I31
sba(ibeta_strands
Comp
p3801
(dp3802
g5
S'E'
sg6
((NI0
ttp3803
sg8
I421
sg10
I29
sba(ibeta_strands
Comp
p3804
(dp3805
g5
S'H'
sg6
((NI0
ttp3806
sg8
I248
sg10
I24
sba(ibeta_strands
Comp
p3807
(dp3808
g5
S'R'
sg6
((NI0
ttp3809
sg8
I499
sg10
I22
sba(ibeta_strands
Comp
p3810
(dp3811
g5
S'M'
sg6
((NI0
ttp3812
sg8
I357
sg10
I21
sba(ibeta_strands
Comp
p3813
(dp3814
g5
S'K'
sg6
((NI0
ttp3815
sg8
I443
sg10
I17
sba(ibeta_strands
Comp
p3816
(dp3817
g5
S'Q'
sg6
((NI0
ttp3818
sg8
I323
sg10
I12
sba(ibeta_strands
Comp
p3819
(dp3820
g5
S'P'
sg6
((NI1
ttp3821
sg8
I-1
sg10
I1
sba(ibeta_strands
Comp
p3822
(dp3823
g5
S'A'
sg6
((NI-1
ttp3824
sg8
I-1
sg10
I1
sbasS'S'
(lp3825
(ibeta_strands
Comp
p3826
(dp3827
g5
S'T'
sg6
((NNttp3828
sg8
I52913
sg9
F1.7692897545799995
sg10
I5599
sg11
g12
(g14
S'\x00\x00\x00\x00\x00\x00\x00\x00'
tRp3829
sba(ibeta_strands
Comp
p3830
(dp3831
g5
S'S'
sg6
((I0
I0
ttp3832
sg8
I42222
sg9
F1.7891389711513066
sg10
I4710
sg11
g12
(g14
S'\x00\x00\x00\x00\x00\x00\x00\x00'
tRp3833
sba(ibeta_strands
Comp
p3834
(dp3835
g5
S'V'
sg6
((I0
I0
ttp3836
sg8
I106071
sg9
F0.71454785075064442
sg10
I4422
sg11
g12
(g14
S'\x1b`\xd42C\x17\xe9#'
tRp3837
sba(ibeta_strands
Comp
p3838
(dp3839
g5
S'T'
sg6
((I0
I0
ttp3840
sg8
I50970
sg9
F1.4019931082749415
sg10
I4345
sg11
g12
(g14
S'\x95\xd2\xb1\xb5\xa3e\x0b&'
tRp3841
sba(ibeta_strands
Comp
p3842
(dp3843
g5
S'V'
sg6
((NNttp3844
sg8
I98031
sg9
F0.66950592272262055
sg10
I3683
sg11
g12
(g14
S'h\xdd\x9e\xcap&\xbc\x1e'
tRp3845
sba(ibeta_strands
Comp
p3846
(dp3847
g5
S'S'
sg6
((NNttp3848
sg8
I38918
sg9
F1.5472060298083967
sg10
I3554
sg11
g12
(g14
S'\x12zf_|\x0c\xfc\x1c'
tRp3849
sba(ibeta_strands
Comp
p3850
(dp3851
g5
S'K'
sg6
((I0
I0
ttp3852
sg8
I38268
sg9
F1.479265593773214
sg10
I3454
sg11
g12
(g14
S'r\xb8\x80_[\x03\xb3$'
tRp3853
sba(ibeta_strands
Comp
p3854
(dp3855
g5
S'L'
sg6
((NNttp3856
sg8
I79202
sg9
F0.77264747004735679
sg10
I3454
sg11
g12
(g14
S'b\xcd\xd1\x95\xe2e]3'
tRp3857
sba(ibeta_strands
Comp
p3858
(dp3859
g5
S'L'
sg6
((I0
I0
ttp3860
sg8
I82578
sg9
F0.64024619263543547
sg10
I3071
sg11
g12
(g14
S'\x16\x1f\x0b\x90F\x84\xa0\x1e'
tRp3861
sba(ibeta_strands
Comp
p3862
(dp3863
g5
S'R'
sg6
((I0
I0
ttp3864
sg8
I38789
sg9
F1.1461729762062947
sg10
I2659
sg11
g12
(g14
S'c\xc2\xc1\xc5\xdch@='
tRp3865
sba(ibeta_strands
Comp
p3866
(dp3867
g5
S'I'
sg6
((I0
I0
ttp3868
sg8
I72136
sg9
F0.6303182305919296
sg10
I2639
sg11
g12
(g14
S'\xdeF\xf0\xfe\xc9\x10\xa5!'
tRp3869
sba(ibeta_strands
Comp
p3870
(dp3871
g5
S'I'
sg6
((NNttp3872
sg8
I69070
sg9
F0.64935583754229986
sg10
I2514
sg11
g12
(g14
S'\xf9(\xab\x94\xda\x02\xb0&'
tRp3873
sba(ibeta_strands
Comp
p3874
(dp3875
g5
S'Y'
sg6
((NNttp3876
sg8
I41130
sg9
F1.0438743344112409
sg10
I2461
sg11
g12
(g14
S'\x08\x06*^\x04\x80\x99?'
tRp3877
sba(ibeta_strands
Comp
p3878
(dp3879
g5
S'Y'
sg6
((I0
I0
ttp3880
sg8
I48169
sg9
F0.83885444596972691
sg10
I2379
sg11
g12
(g14
S'\x9eY&\xdcuc\xfa;'
tRp3881
sba(ibeta_strands
Comp
p3882
(dp3883
g5
S'A'
sg6
((I0
I0
ttp3884
sg8
I52249
sg9
F0.77595825818294628
sg10
I2373
sg11
g12
(g14
S' \x1f\xa2Z\x84\xc0\xd97'
tRp3885
sba(ibeta_strands
Comp
p3886
(dp3887
g5
S'E'
sg6
((NNttp3888
sg8
I35466
sg9
F1.1590974488886612
sg10
I2372
sg11
g12
(g14
S'\xd3\x93H\x86bx$='
tRp3889
sba(ibeta_strands
Comp
p3890
(dp3891
g5
S'K'
sg6
((NNttp3892
sg8
I34507
sg9
F1.1379530973081409
sg10
I2263
sg11
g12
(g14
S'\xe3\xbd3\xe6Sx\xdb='
tRp3893
sba(ibeta_strands
Comp
p3894
(dp3895
g5
S'Q'
sg6
((I0
I0
ttp3896
sg8
I25707
sg9
F1.4362782432743306
sg10
I2247
sg11
g12
(g14
S'Q\xc8\x1f\xacAm\xf60'
tRp3897
sba(ibeta_strands
Comp
p3898
(dp3899
g5
S'E'
sg6
((I0
I0
ttp3900
sg8
I38140
sg9
F0.98213416159182321
sg10
I2219
sg11
g12
(g14
S'\x86\x8d31\xbe\x15\xd8?'
tRp3901
sba(ibeta_strands
Comp
p3902
(dp3903
g5
S'G'
sg6
((I0
I0
ttp3904
sg8
I43154
sg9
F0.81795350212739537
sg10
I2073
sg11
g12
(g14
S'|\x8fT`\xdd\xfdy;'
tRp3905
sba(ibeta_strands
Comp
p3906
(dp3907
g5
S'N'
sg6
((I0
I0
ttp3908
sg8
I16733
sg9
F1.9625815663119064
sg10
I2068
sg11
g12
(g14
S'.\xbd3\x14\xf9\xcc\xf3\x0f'
tRp3909
sba(ibeta_strands
Comp
p3910
(dp3911
g5
S'F'
sg6
((I0
I0
ttp3912
sg8
I50247
sg9
F0.68619339712619354
sg10
I2012
sg11
g12
(g14
S'\xc5\xf1\xb2@^#\xf60'
tRp3913
sba(ibeta_strands
Comp
p3914
(dp3915
g5
S'G'
sg6
((NNttp3916
sg8
I26642
sg9
F1.2820888145348783
sg10
I1985
sg11
g12
(g14
S'\x03PIk\x0f\xb2\x9c9'
tRp3917
sba(ibeta_strands
Comp
p3918
(dp3919
g5
S'R'
sg6
((NNttp3920
sg8
I34987
sg9
F0.94192166865419502
sg10
I1878
sg11
g12
(g14
S'\xbf\x14\x8e\x80\x97\xc7z?'
tRp3921
sba(ibeta_strands
Comp
p3922
(dp3923
g5
S'F'
sg6
((NNttp3924
sg8
I42101
sg9
F0.78311545346611544
sg10
I1862
sg11
g12
(g14
S'\x13\xe8\x9bR\xb5\x11\x10:'
tRp3925
sba(ibeta_strands
Comp
p3926
(dp3927
g5
S'A'
sg6
((NNttp3928
sg8
I46263
sg9
F0.70689031810651559
sg10
I1839
sg11
g12
(g14
S'\n\xb6\xf4\x17\x18tT4'
tRp3929
sba(ibeta_strands
Comp
p3930
(dp3931
g5
S'N'
sg6
((NNttp3932
sg8
I17363
sg9
F1.7664420909970424
sg10
I1834
sg11
g12
(g14
S'\xab\x9b\x98n(k\xdc!'
tRp3933
sba(ibeta_strands
Comp
p3934
(dp3935
g5
S'Q'
sg6
((NNttp3936
sg8
I21959
sg9
F1.3067862825450951
sg10
I1670
sg11
g12
(g14
S']\x0b\xb9[\xe6D\xcc9'
tRp3937
sba(ibeta_strands
Comp
p3938
(dp3939
g5
S'D'
sg6
((I0
I0
ttp3940
sg8
I21616
sg9
F1.2774464275658592
sg10
I1666
sg11
g12
(g14
S'\xcf\xcee\x84\xd6D\xc8:'
tRp3941
sba(ibeta_strands
Comp
p3942
(dp3943
g5
S'D'
sg6
((NNttp3944
sg8
I18584
sg9
F1.5094502733631268
sg10
I1652
sg11
g12
(g14
S'\xa4\x0f#z(\x1e\xc81'
tRp3945
sba(ibeta_strands
Comp
p3946
(dp3947
g5
S'C'
sg6
((I0
I0
ttp3948
sg8
I15147
sg9
F1.6571626339966221
sg10
I1554
sg11
g12
(g14
S'\x99\xd98\xd7\\\xbd\xf0+'
tRp3949
sba(ibeta_strands
Comp
p3950
(dp3951
g5
S'H'
sg6
((I0
I0
ttp3952
sg8
I18508
sg9
F1.3551064539350579
sg10
I1520
sg11
g12
(g14
S'\x92\xbd\xf8\xe0u6\xc88'
tRp3953
sba(ibeta_strands
Comp
p3954
(dp3955
g5
S'H'
sg6
((NNttp3956
sg8
I14244
sg9
F1.4609206848886735
sg10
I1222
sg11
g12
(g14
S'\xa3\x9f\xf9=.\xf4\x0f7'
tRp3957
sba(ibeta_strands
Comp
p3958
(dp3959
g5
S'P'
sg6
((NNttp3960
sg8
I20009
sg9
F0.80686526153730964
sg10
I913
sg11
g12
(g14
S'\xcd\xc8\xff\xdb ^\xaf='
tRp3961
sba(ibeta_strands
Comp
p3962
(dp3963
g5
S'W'
sg6
((I0
I0
ttp3964
sg8
I15460
sg9
F0.85608989152328618
sg10
I780
sg11
g12
(g14
S'\xcb\xc7\xba\xb1\xb9\xd8\xdc>'
tRp3965
sba(ibeta_strands
Comp
p3966
(dp3967
g5
S'M'
sg6
((I0
I0
ttp3968
sg8
I15639
sg9
F0.80763241632082039
sg10
I741
sg11
g12
(g14
S'\xd7\xb0\x82\xcb{\x9c\x1a>'
tRp3969
sba(ibeta_strands
Comp
p3970
(dp3971
g5
S'M'
sg6
((NNttp3972
sg8
I14700
sg9
F0.83242171971351897
sg10
I693
sg11
g12
(g14
S'!J\x85G\xfc\xf1\xa2>'
tRp3973
sba(ibeta_strands
Comp
p3974
(dp3975
g5
S'W'
sg6
((NNttp3976
sg8
I18624
sg9
F0.55376139274339642
sg10
I575
sg11
g12
(g14
S'\xdd\xcc\xee+\x15c\x965'
tRp3977
sba(ibeta_strands
Comp
p3978
(dp3979
g5
S'C'
sg6
((NNttp3980
sg8
I18116
sg9
F0.44718252679276616
sg10
I449
sg11
g12
(g14
S'x\x92%kk\x01\xb30'
tRp3981
sba(ibeta_strands
Comp
p3982
(dp3983
g5
S'V'
sg6
((I0
Nttp3984
sg8
I3554
sg10
I165
sba(ibeta_strands
Comp
p3985
(dp3986
g5
S'P'
sg6
((I0
Nttp3987
sg8
I1127
sg10
I127
sba(ibeta_strands
Comp
p3988
(dp3989
g5
S'I'
sg6
((I0
Nttp3990
sg8
I2859
sg10
I102
sba(ibeta_strands
Comp
p3991
(dp3992
g5
S'V'
sg6
((NI0
ttp3993
sg8
I3016
sg10
I78
sba(ibeta_strands
Comp
p3994
(dp3995
g5
S'T'
sg6
((I0
Nttp3996
sg8
I859
sg10
I57
sba(ibeta_strands
Comp
p3997
(dp3998
g5
S'I'
sg6
((NI0
ttp3999
sg8
I1969
sg10
I57
sba(ibeta_strands
Comp
p4000
(dp4001
g5
S'F'
sg6
((NI0
ttp4002
sg8
I1735
sg10
I55
sba(ibeta_strands
Comp
p4003
(dp4004
g5
S'L'
sg6
((NI0
ttp4005
sg8
I2401
sg10
I49
sba(ibeta_strands
Comp
p4006
(dp4007
g5
S'L'
sg6
((I0
Nttp4008
sg8
I2459
sg10
I47
sba(ibeta_strands
Comp
p4009
(dp4010
g5
S'A'
sg6
((I0
Nttp4011
sg8
I845
sg10
I43
sba(ibeta_strands
Comp
p4012
(dp4013
g5
S'T'
sg6
((NI0
ttp4014
sg8
I999
sg10
I37
sba(ibeta_strands
Comp
p4015
(dp4016
g5
S'K'
sg6
((I0
Nttp4017
sg8
I655
sg10
I36
sba(ibeta_strands
Comp
p4018
(dp4019
g5
S'E'
sg6
((I0
Nttp4020
sg8
I731
sg10
I34
sba(ibeta_strands
Comp
p4021
(dp4022
g5
S'A'
sg6
((NI0
ttp4023
sg8
I1027
sg10
I32
sba(ibeta_strands
Comp
p4024
(dp4025
g5
S'S'
sg6
((NI0
ttp4026
sg8
I770
sg10
I31
sba(ibeta_strands
Comp
p4027
(dp4028
g5
S'R'
sg6
((NI0
ttp4029
sg8
I491
sg10
I30
sba(ibeta_strands
Comp
p4030
(dp4031
g5
S'S'
sg6
((I0
Nttp4032
sg8
I499
sg10
I30
sba(ibeta_strands
Comp
p4033
(dp4034
g5
S'Y'
sg6
((NI0
ttp4035
sg8
I1906
sg10
I26
sba(ibeta_strands
Comp
p4036
(dp4037
g5
S'G'
sg6
((I0
Nttp4038
sg8
I271
sg10
I25
sba(ibeta_strands
Comp
p4039
(dp4040
g5
S'E'
sg6
((NI0
ttp4041
sg8
I425
sg10
I25
sba(ibeta_strands
Comp
p4042
(dp4043
g5
S'D'
sg6
((NI0
ttp4044
sg8
I295
sg10
I20
sba(ibeta_strands
Comp
p4045
(dp4046
g5
S'M'
sg6
((NI0
ttp4047
sg8
I359
sg10
I19
sba(ibeta_strands
Comp
p4048
(dp4049
g5
S'K'
sg6
((NI0
ttp4050
sg8
I441
sg10
I19
sba(ibeta_strands
Comp
p4051
(dp4052
g5
S'R'
sg6
((I0
Nttp4053
sg8
I509
sg10
I19
sba(ibeta_strands
Comp
p4054
(dp4055
g5
S'F'
sg6
((I0
Nttp4056
sg8
I914
sg10
I19
sba(ibeta_strands
Comp
p4057
(dp4058
g5
S'Q'
sg6
((I0
Nttp4059
sg8
I416
sg10
I18
sba(ibeta_strands
Comp
p4060
(dp4061
g5
S'N'
sg6
((I0
Nttp4062
sg8
I261
sg10
I15
sba(ibeta_strands
Comp
p4063
(dp4064
g5
S'H'
sg6
((I0
Nttp4065
sg8
I307
sg10
I15
sba(ibeta_strands
Comp
p4066
(dp4067
g5
S'Y'
sg6
((I0
Nttp4068
sg8
I586
sg10
I15
sba(ibeta_strands
Comp
p4069
(dp4070
g5
S'G'
sg6
((NI0
ttp4071
sg8
I686
sg10
I15
sba(ibeta_strands
Comp
p4072
(dp4073
g5
S'Q'
sg6
((NI0
ttp4074
sg8
I321
sg10
I14
sba(ibeta_strands
Comp
p4075
(dp4076
g5
S'D'
sg6
((I0
Nttp4077
sg8
I289
sg10
I13
sba(ibeta_strands
Comp
p4078
(dp4079
g5
S'M'
sg6
((I0
Nttp4080
sg8
I295
sg10
I9
sba(ibeta_strands
Comp
p4081
(dp4082
g5
S'N'
sg6
((NI0
ttp4083
sg8
I218
sg10
I7
sba(ibeta_strands
Comp
p4084
(dp4085
g5
S'C'
sg6
((I0
Nttp4086
sg8
I295
sg10
I7
sba(ibeta_strands
Comp
p4087
(dp4088
g5
S'W'
sg6
((NI0
ttp4089
sg8
I620
sg10
I7
sba(ibeta_strands
Comp
p4090
(dp4091
g5
S'W'
sg6
((I0
Nttp4092
sg8
I462
sg10
I5
sba(ibeta_strands
Comp
p4093
(dp4094
g5
S'H'
sg6
((NI0
ttp4095
sg8
I268
sg10
I4
sba(ibeta_strands
Comp
p4096
(dp4097
g5
S'C'
sg6
((NI0
ttp4098
sg8
I422
sg10
I4
sba(ibeta_strands
Comp
p4099
(dp4100
g5
S'E'
sg6
((I-1
Nttp4101
sg8
I-2
sg10
I2
sba(ibeta_strands
Comp
p4102
(dp4103
g5
S'E'
sg6
((I-1
I0
ttp4104
sg8
I-1
sg10
I1
sbasS'R'
(lp4105
(ibeta_strands
Comp
p4106
(dp4107
g5
S'E'
sg6
((I0
I0
ttp4108
sg8
I34099
sg9
F3.1441011338795932
sg10
I6260
sg11
g12
(g14
S'\x00\x00\x00\x00\x00\x00\x00\x00'
tRp4109
sba(ibeta_strands
Comp
p4110
(dp4111
g5
S'V'
sg6
((I0
I0
ttp4112
sg8
I105929
sg9
F0.83688710008868972
sg10
I4564
sg11
g12
(g14
S'z\xc1\xa7\x17\xb4\xf5\xc37'
tRp4113
sba(ibeta_strands
Comp
p4114
(dp4115
g5
S'E'
sg6
((NNttp4116
sg8
I33749
sg9
F2.3020293155942664
sg10
I4089
sg11
g12
(g14
S'\x00\x00\x00\x00\x00\x00\x00\x00'
tRp4117
sba(ibeta_strands
Comp
p4118
(dp4119
g5
S'V'
sg6
((NNttp4120
sg8
I98110
sg9
F0.75478969267781026
sg10
I3604
sg11
g12
(g14
S'\xe4#\xb7\xb8\x9d[\x100'
tRp4121
sba(ibeta_strands
Comp
p4122
(dp4123
g5
S'T'
sg6
((NNttp4124
sg8
I55209
sg9
F1.2025012678456648
sg10
I3303
sg11
g12
(g14
S'\xfa\xd7\xbc\xd9_\x96\xf29'
tRp4125
sba(ibeta_strands
Comp
p4126
(dp4127
g5
S'Y'
sg6
((NNttp4128
sg8
I40468
sg9
F1.5261494496378105
sg10
I3123
sg11
g12
(g14
S'\xca\x9f}\xbe\x0fWF#'
tRp4129
sba(ibeta_strands
Comp
p4130
(dp4131
g5
S'T'
sg6
((I0
I0
ttp4132
sg8
I52294
sg9
F1.1061537147030736
sg10
I3021
sg11
g12
(g14
S'\xc1n\xe2\xb4B\xfd1>'
tRp4133
sba(ibeta_strands
Comp
p4134
(dp4135
g5
S'L'
sg6
((I0
I0
ttp4136
sg8
I82676
sg9
F0.70334880858076287
sg10
I2973
sg11
g12
(g14
S'\xf2\x7f\xd2\x89\x92A\x03,'
tRp4137
sba(ibeta_strands
Comp
p4138
(dp4139
g5
S'L'
sg6
((NNttp4140
sg8
I79685
sg9
F0.76568507111438555
sg10
I2971
sg11
g12
(g14
S'\xdag\x81\xce\x9b\x8ci4'
tRp4141
sba(ibeta_strands
Comp
p4142
(dp4143
g5
S'I'
sg6
((I0
I0
ttp4144
sg8
I72074
sg9
F0.73207187308130084
sg10
I2701
sg11
g12
(g14
S'\x1f\xa1H\xfa\xf5#\xe21'
tRp4145
sba(ibeta_strands
Comp
p4146
(dp4147
g5
S'S'
sg6
((I0
I0
ttp4148
sg8
I44274
sg9
F1.1457419220595453
sg10
I2658
sg11
g12
(g14
S'\xab\xeb*\x85\xaa[C='
tRp4149
sba(ibeta_strands
Comp
p4150
(dp4151
g5
S'I'
sg6
((NNttp4152
sg8
I69049
sg9
F0.7543691394364328
sg10
I2535
sg11
g12
(g14
S'\xa4\x85\xa9\xc0\xd8\x07!5'
tRp4153
sba(ibeta_strands
Comp
p4154
(dp4155
g5
S'D'
sg6
((NNttp4156
sg8
I17851
sg9
F2.5106468277606488
sg10
I2385
sg11
g12
(g14
S'\x00\x00\x00\x00\x00\x00\x00\x00'
tRp4157
sba(ibeta_strands
Comp
p4158
(dp4159
g5
S'Q'
sg6
((I0
I0
ttp4160
sg8
I25739
sg9
F1.6066374976221169
sg10
I2215
sg11
g12
(g14
S'\xa2%\xba\xe59\x13\xc5&'
tRp4161
sba(ibeta_strands
Comp
p4162
(dp4163
g5
S'Y'
sg6
((I0
I0
ttp4164
sg8
I48367
sg9
F0.8726829540274661
sg10
I2181
sg11
g12
(g14
S'\xa95\xe0t\xd4\x8a\xb3='
tRp4165
sba(ibeta_strands
Comp
p4166
(dp4167
g5
S'A'
sg6
((I0
I0
ttp4168
sg8
I52442
sg9
F0.80892037353951274
sg10
I2180
sg11
g12
(g14
S'\x81NU\xab\x8f\xd6\xb7:'
tRp4169
sba(ibeta_strands
Comp
p4170
(dp4171
g5
S'D'
sg6
((I0
I0
ttp4172
sg8
I21148
sg9
F1.8568241373507637
sg10
I2134
sg11
g12
(g14
S'\\M%\xfe\x88\xc8\x7f\x16'
tRp4173
sba(ibeta_strands
Comp
p4174
(dp4175
g5
S'R'
sg6
((I0
I0
ttp4176
sg8
I39424
sg9
F0.99003601721611423
sg10
I2024
sg11
g12
(g14
S'S\x95S\x8e\xdb\x9a\xe4?'
tRp4177
sba(ibeta_strands
Comp
p4178
(dp4179
g5
S'S'
sg6
((NNttp4180
sg8
I40593
sg9
F0.94242322438830262
sg10
I1879
sg11
g12
(g14
S'\xc0[,\x81\x82\xc0|?'
tRp4181
sba(ibeta_strands
Comp
p4182
(dp4183
g5
S'F'
sg6
((I0
I0
ttp4184
sg8
I50556
sg9
F0.65908566389630274
sg10
I1703
sg11
g12
(g14
S'\xba\x80\x0c\xdf^\xebz0'
tRp4185
sba(ibeta_strands
Comp
p4186
(dp4187
g5
S'F'
sg6
((NNttp4188
sg8
I42275
sg9
F0.81791285477940601
sg10
I1688
sg11
g12
(g14
S'\xac\xdb=Y\xf41L<'
tRp4189
sba(ibeta_strands
Comp
p4190
(dp4191
g5
S'K'
sg6
((I0
I0
ttp4192
sg8
I40076
sg9
F0.79994902353252395
sg10
I1646
sg11
g12
(g14
S'|R\xcb\xec`I\x9c;'
tRp4193
sba(ibeta_strands
Comp
p4194
(dp4195
g5
S'R'
sg6
((NNttp4196
sg8
I35340
sg9
F0.8812061463992038
sg10
I1525
sg11
g12
(g14
S'\xfc\x0es\x83\xa1\xf9\x8e>'
tRp4197
sba(ibeta_strands
Comp
p4198
(dp4199
g5
S'A'
sg6
((NNttp4200
sg8
I46660
sg9
F0.63859283086915142
sg10
I1442
sg11
g12
(g14
S'\x15168T\x8c\xcf0'
tRp4201
sba(ibeta_strands
Comp
p4202
(dp4203
g5
S'Q'
sg6
((NNttp4204
sg8
I22222
sg9
F1.2684421566973716
sg10
I1407
sg11
g12
(g14
S'\xfbev\xcd\xf4`\xd3;'
tRp4205
sba(ibeta_strands
Comp
p4206
(dp4207
g5
S'G'
sg6
((I0
I0
ttp4208
sg8
I43877
sg9
F0.60446581039266767
sg10
I1350
sg11
g12
(g14
S'\xf3\\\xc8\xc2cd&.'
tRp4209
sba(ibeta_strands
Comp
p4210
(dp4211
g5
S'W'
sg6
((NNttp4212
sg8
I17992
sg9
F1.3392158285743032
sg10
I1207
sg11
g12
(g14
S'\xa5v\xd5\xc6\xbd\xbd\xb0:'
tRp4213
sba(ibeta_strands
Comp
p4214
(dp4215
g5
S'K'
sg6
((NNttp4216
sg8
I35678
sg9
F0.6326316576505483
sg10
I1092
sg11
g12
(g14
S'\x054\xe6\xd5\x8a\x89\x1f4'
tRp4217
sba(ibeta_strands
Comp
p4218
(dp4219
g5
S'H'
sg6
((I0
I0
ttp4220
sg8
I18942
sg9
F1.0986726408545597
sg10
I1086
sg11
g12
(g14
S'A\x8d\xd4\xe6#9V?'
tRp4221
sba(ibeta_strands
Comp
p4222
(dp4223
g5
S'N'
sg6
((NNttp4224
sg8
I18119
sg9
F1.1962096681702543
sg10
I1078
sg11
g12
(g14
S'$\xf9\xebI%=\x13>'
tRp4225
sba(ibeta_strands
Comp
p4226
(dp4227
g5
S'G'
sg6
((NNttp4228
sg8
I27645
sg9
F0.73073105063465882
sg10
I982
sg11
g12
(g14
S'X\xf8Z\xaa\xb7]\xef:'
tRp4229
sba(ibeta_strands
Comp
p4230
(dp4231
g5
S'N'
sg6
((I0
I0
ttp4232
sg8
I17935
sg9
F0.93261786799546476
sg10
I866
sg11
g12
(g14
S'\xbb\x86\xb2\x9f5\xb9\xa1?'
tRp4233
sba(ibeta_strands
Comp
p4234
(dp4235
g5
S'P'
sg6
((NNttp4236
sg8
I20154
sg9
F0.7819517114409682
sg10
I768
sg11
g12
(g14
S'\xb6^U\xb9o\xa9y='
tRp4237
sba(ibeta_strands
Comp
p4238
(dp4239
g5
S'W'
sg6
((I0
I0
ttp4240
sg8
I15513
sg9
F0.90545701146878732
sg10
I727
sg11
g12
(g14
S'r\xd2\x9c\x890\xf3w?'
tRp4241
sba(ibeta_strands
Comp
p4242
(dp4243
g5
S'H'
sg6
((NNttp4244
sg8
I14753
sg9
F0.98204962977639954
sg10
I713
sg11
g12
(g14
S'\xa2\xd2D\xa8\r,\xe4?'
tRp4245
sba(ibeta_strands
Comp
p4246
(dp4247
g5
S'M'
sg6
((NNttp4248
sg8
I14700
sg9
F0.95902930366669137
sg10
I693
sg11
g12
(g14
S'\x9e\x9e\x15\xa7o\xcf\xd0?'
tRp4249
sba(ibeta_strands
Comp
p4250
(dp4251
g5
S'M'
sg6
((I0
I0
ttp4252
sg8
I15793
sg9
F0.72600948435643131
sg10
I587
sg11
g12
(g14
S'\x13\x92~\xb4\x00\x90\xcd<'
tRp4253
sba(ibeta_strands
Comp
p4254
(dp4255
g5
S'C'
sg6
((I0
I0
ttp4256
sg8
I16129
sg9
F0.69217961561484964
sg10
I572
sg11
g12
(g14
S'\xc1\xd7"\x9bd\xf0\xf0;'
tRp4257
sba(ibeta_strands
Comp
p4258
(dp4259
g5
S'C'
sg6
((NNttp4260
sg8
I18184
sg9
F0.43717159321125271
sg10
I381
sg11
g12
(g14
S'E>\xf2\x9da\xb6O2'
tRp4261
sba(ibeta_strands
Comp
p4262
(dp4263
g5
S'Y'
sg6
((NI0
ttp4264
sg8
I1860
sg10
I72
sba(ibeta_strands
Comp
p4265
(dp4266
g5
S'V'
sg6
((I0
Nttp4267
sg8
I3652
sg10
I67
sba(ibeta_strands
Comp
p4268
(dp4269
g5
S'V'
sg6
((NI0
ttp4270
sg8
I3028
sg10
I66
sba(ibeta_strands
Comp
p4271
(dp4272
g5
S'I'
sg6
((I0
Nttp4273
sg8
I2901
sg10
I60
sba(ibeta_strands
Comp
p4274
(dp4275
g5
S'L'
sg6
((NI0
ttp4276
sg8
I2391
sg10
I59
sba(ibeta_strands
Comp
p4277
(dp4278
g5
S'E'
sg6
((I0
Nttp4279
sg8
I715
sg10
I50
sba(ibeta_strands
Comp
p4280
(dp4281
g5
S'L'
sg6
((I0
Nttp4282
sg8
I2458
sg10
I48
sba(ibeta_strands
Comp
p4283
(dp4284
g5
S'F'
sg6
((NI0
ttp4285
sg8
I1745
sg10
I45
sba(ibeta_strands
Comp
p4286
(dp4287
g5
S'D'
sg6
((I0
Nttp4288
sg8
I259
sg10
I43
sba(ibeta_strands
Comp
p4289
(dp4290
g5
S'I'
sg6
((NI0
ttp4291
sg8
I1983
sg10
I43
sba(ibeta_strands
Comp
p4292
(dp4293
g5
S'T'
sg6
((I0
Nttp4294
sg8
I877
sg10
I39
sba(ibeta_strands
Comp
p4295
(dp4296
g5
S'W'
sg6
((NI0
ttp4297
sg8
I594
sg10
I33
sba(ibeta_strands
Comp
p4298
(dp4299
g5
S'D'
sg6
((NI0
ttp4300
sg8
I283
sg10
I32
sba(ibeta_strands
Comp
p4301
(dp4302
g5
S'T'
sg6
((NI0
ttp4303
sg8
I1005
sg10
I31
sba(ibeta_strands
Comp
p4304
(dp4305
g5
S'H'
sg6
((I0
Nttp4306
sg8
I292
sg10
I30
sba(ibeta_strands
Comp
p4307
(dp4308
g5
S'S'
sg6
((I0
Nttp4309
sg8
I499
sg10
I30
sba(ibeta_strands
Comp
p4310
(dp4311
g5
S'E'
sg6
((NI0
ttp4312
sg8
I422
sg10
I28
sba(ibeta_strands
Comp
p4313
(dp4314
g5
S'F'
sg6
((I0
Nttp4315
sg8
I908
sg10
I25
sba(ibeta_strands
Comp
p4316
(dp4317
g5
S'A'
sg6
((NI0
ttp4318
sg8
I1037
sg10
I22
sba(ibeta_strands
Comp
p4319
(dp4320
g5
S'P'
sg6
((I0
Nttp4321
sg8
I1232
sg10
I22
sba(ibeta_strands
Comp
p4322
(dp4323
g5
S'S'
sg6
((NI0
ttp4324
sg8
I782
sg10
I19
sba(ibeta_strands
Comp
p4325
(dp4326
g5
S'A'
sg6
((I0
Nttp4327
sg8
I869
sg10
I19
sba(ibeta_strands
Comp
p4328
(dp4329
g5
S'H'
sg6
((NI0
ttp4330
sg8
I255
sg10
I17
sba(ibeta_strands
Comp
p4331
(dp4332
g5
S'R'
sg6
((NI0
ttp4333
sg8
I506
sg10
I15
sba(ibeta_strands
Comp
p4334
(dp4335
g5
S'R'
sg6
((I0
Nttp4336
sg8
I513
sg10
I15
sba(ibeta_strands
Comp
p4337
(dp4338
g5
S'Y'
sg6
((I0
Nttp4339
sg8
I586
sg10
I15
sba(ibeta_strands
Comp
p4340
(dp4341
g5
S'K'
sg6
((I0
Nttp4342
sg8
I677
sg10
I14
sba(ibeta_strands
Comp
p4343
(dp4344
g5
S'Q'
sg6
((I0
Nttp4345
sg8
I423
sg10
I11
sba(ibeta_strands
Comp
p4346
(dp4347
g5
S'G'
sg6
((I0
Nttp4348
sg8
I286
sg10
I10
sba(ibeta_strands
Comp
p4349
(dp4350
g5
S'M'
sg6
((NI0
ttp4351
sg8
I369
sg10
I9
sba(ibeta_strands
Comp
p4352
(dp4353
g5
S'K'
sg6
((NI0
ttp4354
sg8
I451
sg10
I9
sba(ibeta_strands
Comp
p4355
(dp4356
g5
S'N'
sg6
((NI0
ttp4357
sg8
I217
sg10
I8
sba(ibeta_strands
Comp
p4358
(dp4359
g5
S'M'
sg6
((I0
Nttp4360
sg8
I296
sg10
I8
sba(ibeta_strands
Comp
p4361
(dp4362
g5
S'Q'
sg6
((NI0
ttp4363
sg8
I327
sg10
I8
sba(ibeta_strands
Comp
p4364
(dp4365
g5
S'G'
sg6
((NI0
ttp4366
sg8
I693
sg10
I8
sba(ibeta_strands
Comp
p4367
(dp4368
g5
S'C'
sg6
((I0
Nttp4369
sg8
I296
sg10
I6
sba(ibeta_strands
Comp
p4370
(dp4371
g5
S'N'
sg6
((I0
Nttp4372
sg8
I271
sg10
I5
sba(ibeta_strands
Comp
p4373
(dp4374
g5
S'C'
sg6
((NI0
ttp4375
sg8
I422
sg10
I4
sba(ibeta_strands
Comp
p4376
(dp4377
g5
S'W'
sg6
((I0
Nttp4378
sg8
I463
sg10
I4
sba(ibeta_strands
Comp
p4379
(dp4380
g5
S'P'
sg6
((I-1
Nttp4381
sg8
I0
sg10
I1
sba(ibeta_strands
Comp
p4382
(dp4383
g5
S'Y'
sg6
((I1
I1
ttp4384
sg8
I3
sg10
I1
sbasS'T'
(lp4385
(ibeta_strands
Comp
p4386
(dp4387
g5
S'T'
sg6
((NNttp4388
sg8
I49059
sg9
F2.1682827881460209
sg10
I9453
sg11
g12
(g14
S'\x00\x00\x00\x00\x00\x00\x00\x00'
tRp4389
sba(ibeta_strands
Comp
p4390
(dp4391
g5
S'V'
sg6
((NNttp4392
sg8
I96037
sg9
F0.74908201149685694
sg10
I5677
sg11
g12
(g14
S'k\xdc}\xad\x86\xa1\xf0$'
tRp4393
sba(ibeta_strands
Comp
p4394
(dp4395
g5
S'S'
sg6
((NNttp4396
sg8
I36863
sg9
F1.7724497648578705
sg10
I5609
sg11
g12
(g14
S'\x00\x00\x00\x00\x00\x00\x00\x00'
tRp4397
sba(ibeta_strands
Comp
p4398
(dp4399
g5
S'V'
sg6
((I0
I0
ttp4400
sg8
I105154
sg9
F0.73283369467050108
sg10
I5339
sg11
g12
(g14
S'\xf9Y\x1d\xd0E\x91\xbd"'
tRp4401
sba(ibeta_strands
Comp
p4402
(dp4403
g5
S'K'
sg6
((NNttp4404
sg8
I32039
sg9
F1.7268337402892244
sg10
I4731
sg11
g12
(g14
S'\x00\x00\x00\x00\x00\x00\x00\x00'
tRp4405
sba(ibeta_strands
Comp
p4406
(dp4407
g5
S'T'
sg6
((I0
I0
ttp4408
sg8
I50626
sg9
F1.2851956893742913
sg10
I4689
sg11
g12
(g14
S'\x91\x88s\xf8\xa1\xfeT0'
tRp4409
sba(ibeta_strands
Comp
p4410
(dp4411
g5
S'S'
sg6
((I0
I0
ttp4412
sg8
I42597
sg9
F1.3987664267829392
sg10
I4335
sg11
g12
(g14
S'\x90\xc8\x02\x19\xdd-t&'
tRp4413
sba(ibeta_strands
Comp
p4414
(dp4415
g5
S'L'
sg6
((I0
I0
ttp4416
sg8
I81906
sg9
F0.66285714917271676
sg10
I3743
sg11
g12
(g14
S'\xae\xa9<\x18\xe7\x8d#\x1d'
tRp4417
sba(ibeta_strands
Comp
p4418
(dp4419
g5
S'I'
sg6
((I0
I0
ttp4420
sg8
I71130
sg9
F0.73952173083377482
sg10
I3645
sg11
g12
(g14
S'wt\t\xf3\xcbt\xf1-'
tRp4421
sba(ibeta_strands
Comp
p4422
(dp4423
g5
S'E'
sg6
((NNttp4424
sg8
I34208
sg9
F1.2875664733175989
sg10
I3630
sg11
g12
(g14
S'\xe0<\xf3T\x03U\xbf3'
tRp4425
sba(ibeta_strands
Comp
p4426
(dp4427
g5
S'Y'
sg6
((I0
I0
ttp4428
sg8
I47003
sg9
F1.0617966177950937
sg10
I3545
sg11
g12
(g14
S'\xa0\xf5$\xc7\x18\xd4"?'
tRp4429
sba(ibeta_strands
Comp
p4430
(dp4431
g5
S'I'
sg6
((NNttp4432
sg8
I68097
sg9
F0.6537733186065382
sg10
I3487
sg11
g12
(g14
S'\xe9\xb1\xc9\xbf\x15H]\x1d'
tRp4433
sba(ibeta_strands
Comp
p4434
(dp4435
g5
S'K'
sg6
((I0
I0
ttp4436
sg8
I38328
sg9
F1.2347203054774889
sg10
I3394
sg11
g12
(g14
S'o\x1a\xf1ZS+\x018'
tRp4437
sba(ibeta_strands
Comp
p4438
(dp4439
g5
S'R'
sg6
((NNttp4440
sg8
I33561
sg9
F1.2028653312025663
sg10
I3304
sg11
g12
(g14
S'\x7f\xca5\x8f(\x7f\xed9'
tRp4441
sba(ibeta_strands
Comp
p4442
(dp4443
g5
S'E'
sg6
((I0
I0
ttp4444
sg8
I37070
sg9
F1.2365461172832908
sg10
I3289
sg11
g12
(g14
S'\xb6\x1a\x92\xe8b\xc3%8'
tRp4445
sba(ibeta_strands
Comp
p4446
(dp4447
g5
S'A'
sg6
((I0
I0
ttp4448
sg8
I51519
sg9
F0.86189691521868628
sg10
I3103
sg11
g12
(g14
S'\x9c\xcf\xe5\x8a\xd3,.<'
tRp4449
sba(ibeta_strands
Comp
p4450
(dp4451
g5
S'R'
sg6
((I0
I0
ttp4452
sg8
I38428
sg9
F1.1057875598819207
sg10
I3020
sg11
g12
(g14
S'/\xf9\xa8\x92\xe7T4>'
tRp4453
sba(ibeta_strands
Comp
p4454
(dp4455
g5
S'A'
sg6
((NNttp4456
sg8
I45112
sg9
F0.83425585214751985
sg10
I2990
sg11
g12
(g14
S'\xdeX1\xd8\xc8\xf4\x98:'
tRp4457
sba(ibeta_strands
Comp
p4458
(dp4459
g5
S'G'
sg6
((I0
I0
ttp4460
sg8
I42238
sg9
F1.001816450089918
sg10
I2989
sg11
g12
(g14
S'\xfej/\xee\xc6\x8e\xed?'
tRp4461
sba(ibeta_strands
Comp
p4462
(dp4463
g5
S'L'
sg6
((NNttp4464
sg8
I79750
sg9
F0.47185920641232809
sg10
I2906
sg11
g12
(g14
S'\x00\x00\x00\x00\x00\x00\x00\x00'
tRp4465
sba(ibeta_strands
Comp
p4466
(dp4467
g5
S'Q'
sg6
((NNttp4468
sg8
I20763
sg9
F1.6278787396474854
sg10
I2866
sg11
g12
(g14
S'\xd1\x97\xc1d$\x9e\xc8\x1c'
tRp4469
sba(ibeta_strands
Comp
p4470
(dp4471
g5
S'D'
sg6
((I0
I0
ttp4472
sg8
I20455
sg9
F1.8413079871613753
sg10
I2827
sg11
g12
(g14
S'\xbf\xc3\xeb$-\xdd\xb1\t'
tRp4473
sba(ibeta_strands
Comp
p4474
(dp4475
g5
S'Q'
sg6
((I0
I0
ttp4476
sg8
I25135
sg9
F1.530606364200366
sg10
I2819
sg11
g12
(g14
S'.7\xa9m\xe0"\xc4%'
tRp4477
sba(ibeta_strands
Comp
p4478
(dp4479
g5
S'N'
sg6
((I0
I0
ttp4480
sg8
I16416
sg9
F1.9226423037382137
sg10
I2385
sg11
g12
(g14
S'\x14\xe74E\x02t\x82\x0b'
tRp4481
sba(ibeta_strands
Comp
p4482
(dp4483
g5
S'F'
sg6
((I0
I0
ttp4484
sg8
I50033
sg9
F0.64487664372747988
sg10
I2226
sg11
g12
(g14
S'\xf6\xbd\xcc\x13\xe8\xe5?)'
tRp4485
sba(ibeta_strands
Comp
p4486
(dp4487
g5
S'H'
sg6
((I0
I0
ttp4488
sg8
I18071
sg9
F1.4820183495984158
sg10
I1957
sg11
g12
(g14
S'\xdbxl\xb4\x0f\xcc\x810'
tRp4489
sba(ibeta_strands
Comp
p4490
(dp4491
g5
S'D'
sg6
((NNttp4492
sg8
I18323
sg9
F1.2687659262012598
sg10
I1913
sg11
g12
(g14
S'\x16\xcf!\xa9k\x82C:'
tRp4493
sba(ibeta_strands
Comp
p4494
(dp4495
g5
S'N'
sg6
((NNttp4496
sg8
I17324
sg9
F1.3094702014128112
sg10
I1873
sg11
g12
(g14
S'B-\xf7\xd7d\xbc\xdc8'
tRp4497
sba(ibeta_strands
Comp
p4498
(dp4499
g5
S'F'
sg6
((NNttp4500
sg8
I42193
sg9
F0.54035248514313916
sg10
I1770
sg11
g12
(g14
S'\xc4T\xedfe\xa5\xec\x1b'
tRp4501
sba(ibeta_strands
Comp
p4502
(dp4503
g5
S'Y'
sg6
((NNttp4504
sg8
I41891
sg9
F0.52341154386675348
sg10
I1700
sg11
g12
(g14
S'\xf1\xaf}t\x83Z\x95\x19'
tRp4505
sba(ibeta_strands
Comp
p4506
(dp4507
g5
S'H'
sg6
((NNttp4508
sg8
I13887
sg9
F1.3702358680190487
sg10
I1579
sg11
g12
(g14
S'P\x12\x8fu\x11\x1c\xd97'
tRp4509
sba(ibeta_strands
Comp
p4510
(dp4511
g5
S'G'
sg6
((NNttp4512
sg8
I27048
sg9
F0.74028252820004226
sg10
I1579
sg11
g12
(g14
S'K9If\xe5dl8'
tRp4513
sba(ibeta_strands
Comp
p4514
(dp4515
g5
S'P'
sg6
((NNttp4516
sg8
I19367
sg9
F0.9975126297261464
sg10
I1555
sg11
g12
(g14
S'\xbe\xbc\x94S\xaf\xb3\xed?'
tRp4517
sba(ibeta_strands
Comp
p4518
(dp4519
g5
S'M'
sg6
((NNttp4520
sg8
I14563
sg9
F0.72367910032510552
sg10
I830
sg11
g12
(g14
S'\x8f\xa4@Uh@_;'
tRp4521
sba(ibeta_strands
Comp
p4522
(dp4523
g5
S'M'
sg6
((I0
I0
ttp4524
sg8
I15616
sg9
F0.70732958301169013
sg10
I764
sg11
g12
(g14
S'\xa7\xf6\xb7\x8e\xd5\xfd);'
tRp4525
sba(ibeta_strands
Comp
p4526
(dp4527
g5
S'C'
sg6
((I0
I0
ttp4528
sg8
I16068
sg9
F0.5733908485488175
sg10
I633
sg11
g12
(g14
S'\xc3z*+v#\xcc5'
tRp4529
sba(ibeta_strands
Comp
p4530
(dp4531
g5
S'W'
sg6
((I0
I0
ttp4532
sg8
I15627
sg9
F0.57150254715782933
sg10
I613
sg11
g12
(g14
S'\x83\xfeCj\n\x92\x006'
tRp4533
sba(ibeta_strands
Comp
p4534
(dp4535
g5
S'C'
sg6
((NNttp4536
sg8
I17955
sg9
F0.44098730664293495
sg10
I610
sg11
g12
(g14
S">\xec\xe1<',\x18*"
tRp4537
sba(ibeta_strands
Comp
p4538
(dp4539
g5
S'W'
sg6
((NNttp4540
sg8
I18749
sg9
F0.31457565724664099
sg10
I450
sg11
g12
(g14
S'\xc4z\xe4\x02i\xbe\x16\x1e'
tRp4541
sba(ibeta_strands
Comp
p4542
(dp4543
g5
S'V'
sg6
((I0
Nttp4544
sg8
I3488
sg10
I231
sba(ibeta_strands
Comp
p4545
(dp4546
g5
S'I'
sg6
((I0
Nttp4547
sg8
I2786
sg10
I175
sba(ibeta_strands
Comp
p4548
(dp4549
g5
S'V'
sg6
((NI0
ttp4550
sg8
I2948
sg10
I146
sba(ibeta_strands
Comp
p4551
(dp4552
g5
S'L'
sg6
((NI0
ttp4553
sg8
I2320
sg10
I130
sba(ibeta_strands
Comp
p4554
(dp4555
g5
S'I'
sg6
((NI0
ttp4556
sg8
I1916
sg10
I110
sba(ibeta_strands
Comp
p4557
(dp4558
g5
S'L'
sg6
((I0
Nttp4559
sg8
I2396
sg10
I110
sba(ibeta_strands
Comp
p4560
(dp4561
g5
S'P'
sg6
((I0
Nttp4562
sg8
I1169
sg10
I85
sba(ibeta_strands
Comp
p4563
(dp4564
g5
S'A'
sg6
((I0
Nttp4565
sg8
I824
sg10
I64
sba(ibeta_strands
Comp
p4566
(dp4567
g5
S'S'
sg6
((NI0
ttp4568
sg8
I744
sg10
I57
sba(ibeta_strands
Comp
p4569
(dp4570
g5
S'T'
sg6
((I0
Nttp4571
sg8
I863
sg10
I53
sba(ibeta_strands
Comp
p4572
(dp4573
g5
S'T'
sg6
((NI0
ttp4574
sg8
I983
sg10
I53
sba(ibeta_strands
Comp
p4575
(dp4576
g5
S'K'
sg6
((I0
Nttp4577
sg8
I646
sg10
I45
sba(ibeta_strands
Comp
p4578
(dp4579
g5
S'E'
sg6
((NI0
ttp4580
sg8
I406
sg10
I44
sba(ibeta_strands
Comp
p4581
(dp4582
g5
S'Y'
sg6
((NI0
ttp4583
sg8
I1888
sg10
I44
sba(ibeta_strands
Comp
p4584
(dp4585
g5
S'Y'
sg6
((I0
Nttp4586
sg8
I561
sg10
I40
sba(ibeta_strands
Comp
p4587
(dp4588
g5
S'A'
sg6
((NI0
ttp4589
sg8
I1019
sg10
I40
sba(ibeta_strands
Comp
p4590
(dp4591
g5
S'R'
sg6
((NI0
ttp4592
sg8
I482
sg10
I39
sba(ibeta_strands
Comp
p4593
(dp4594
g5
S'F'
sg6
((NI0
ttp4595
sg8
I1752
sg10
I38
sba(ibeta_strands
Comp
p4596
(dp4597
g5
S'S'
sg6
((I0
Nttp4598
sg8
I492
sg10
I37
sba(ibeta_strands
Comp
p4599
(dp4600
g5
S'Q'
sg6
((NI0
ttp4601
sg8
I301
sg10
I34
sba(ibeta_strands
Comp
p4602
(dp4603
g5
S'K'
sg6
((NI0
ttp4604
sg8
I427
sg10
I33
sba(ibeta_strands
Comp
p4605
(dp4606
g5
S'R'
sg6
((I0
Nttp4607
sg8
I497
sg10
I31
sba(ibeta_strands
Comp
p4608
(dp4609
g5
S'E'
sg6
((I0
Nttp4610
sg8
I734
sg10
I31
sba(ibeta_strands
Comp
p4611
(dp4612
g5
S'Q'
sg6
((I0
Nttp4613
sg8
I406
sg10
I28
sba(ibeta_strands
Comp
p4614
(dp4615
g5
S'C'
sg6
((NI0
ttp4616
sg8
I399
sg10
I27
sba(ibeta_strands
Comp
p4617
(dp4618
g5
S'G'
sg6
((NI0
ttp4619
sg8
I677
sg10
I24
sba(ibeta_strands
Comp
p4620
(dp4621
g5
S'F'
sg6
((I0
Nttp4622
sg8
I909
sg10
I24
sba(ibeta_strands
Comp
p4623
(dp4624
g5
S'H'
sg6
((NI0
ttp4625
sg8
I249
sg10
I23
sba(ibeta_strands
Comp
p4626
(dp4627
g5
S'M'
sg6
((NI0
ttp4628
sg8
I356
sg10
I22
sba(ibeta_strands
Comp
p4629
(dp4630
g5
S'W'
sg6
((NI0
ttp4631
sg8
I608
sg10
I19
sba(ibeta_strands
Comp
p4632
(dp4633
g5
S'N'
sg6
((NI0
ttp4634
sg8
I207
sg10
I18
sba(ibeta_strands
Comp
p4635
(dp4636
g5
S'C'
sg6
((I0
Nttp4637
sg8
I286
sg10
I16
sba(ibeta_strands
Comp
p4638
(dp4639
g5
S'D'
sg6
((I0
Nttp4640
sg8
I286
sg10
I16
sba(ibeta_strands
Comp
p4641
(dp4642
g5
S'D'
sg6
((NI0
ttp4643
sg8
I300
sg10
I15
sba(ibeta_strands
Comp
p4644
(dp4645
g5
S'N'
sg6
((I0
Nttp4646
sg8
I263
sg10
I13
sba(ibeta_strands
Comp
p4647
(dp4648
g5
S'H'
sg6
((I0
Nttp4649
sg8
I311
sg10
I11
sba(ibeta_strands
Comp
p4650
(dp4651
g5
S'M'
sg6
((I0
Nttp4652
sg8
I294
sg10
I10
sba(ibeta_strands
Comp
p4653
(dp4654
g5
S'W'
sg6
((I0
Nttp4655
sg8
I458
sg10
I9
sba(ibeta_strands
Comp
p4656
(dp4657
g5
S'G'
sg6
((I0
Nttp4658
sg8
I289
sg10
I7
sba(ibeta_strands
Comp
p4659
(dp4660
g5
S'G'
sg6
((I-1
I-1
ttp4661
sg8
I-1
sg10
I1
sbasS'W'
(lp4662
(ibeta_strands
Comp
p4663
(dp4664
g5
S'C'
sg6
((NNttp4665
sg8
I15854
sg9
F5.9729943768533031
sg10
I2711
sg11
g12
(g14
S'\x00\x00\x00\x00\x00\x00\x00\x00'
tRp4666
sba(ibeta_strands
Comp
p4667
(dp4668
g5
S'L'
sg6
((NNttp4669
sg8
I80543
sg9
F1.0456411219848547
sg10
I2113
sg11
g12
(g14
S'5\xca\xf2\xdd\xbe\xa5\x9d?'
tRp4670
sba(ibeta_strands
Comp
p4671
(dp4672
g5
S'V'
sg6
((I0
I0
ttp4673
sg8
I108404
sg9
F0.97533232223266342
sg10
I2089
sg11
g12
(g14
S'\xa0\xf2\x19c\xb77\xcc?'
tRp4674
sba(ibeta_strands
Comp
p4675
(dp4676
g5
S'L'
sg6
((I0
I0
ttp4677
sg8
I83800
sg9
F1.1137961108196066
sg10
I1849
sg11
g12
(g14
S'\x01\xfe\x8b\x84M\xf0\xab>'
tRp4678
sba(ibeta_strands
Comp
p4679
(dp4680
g5
S'I'
sg6
((I0
I0
ttp4681
sg8
I73052
sg9
F1.1890698119517051
sg10
I1723
sg11
g12
(g14
S'\xa8#g\xab\xab\x98 ='
tRp4682
sba(ibeta_strands
Comp
p4683
(dp4684
g5
S'V'
sg6
((NNttp4685
sg8
I100011
sg9
F0.68484368609055735
sg10
I1703
sg11
g12
(g14
S'\xdf)\xa0Be{\x902'
tRp4686
sba(ibeta_strands
Comp
p4687
(dp4688
g5
S'G'
sg6
((I0
I0
ttp4689
sg8
I43705
sg9
F1.7351841197105413
sg10
I1522
sg11
g12
(g14
S'f~H\x88a\xdd\xa1('
tRp4690
sba(ibeta_strands
Comp
p4691
(dp4692
g5
S'A'
sg6
((I0
I0
ttp4693
sg8
I53327
sg9
F1.2235225769197153
sg10
I1295
sg11
g12
(g14
S'\xc1\xec\xca\xa1b\xb8#='
tRp4694
sba(ibeta_strands
Comp
p4695
(dp4696
g5
S'F'
sg6
((I0
I0
ttp4697
sg8
I51013
sg9
F1.2278298815170769
sg10
I1246
sg11
g12
(g14
S'\xfd[\n\x0f\xee\x15(='
tRp4698
sba(ibeta_strands
Comp
p4699
(dp4700
g5
S'Y'
sg6
((NNttp4701
sg8
I42350
sg9
F1.1644812264156457
sg10
I1241
sg11
g12
(g14
S'(\x99\xa8\xd0`#Z>'
tRp4702
sba(ibeta_strands
Comp
p4703
(dp4704
g5
S'R'
sg6
((NNttp4705
sg8
I35658
sg9
F1.3392158285743032
sg10
I1207
sg11
g12
(g14
S'\x84v\xd5\xc6\xbd\xbd\xb0:'
tRp4706
sba(ibeta_strands
Comp
p4707
(dp4708
g5
S'F'
sg6
((NNttp4709
sg8
I42777
sg9
F1.1034557198949184
sg10
I1186
sg11
g12
(g14
S'\x05@\xbe\x1d\x96s<?'
tRp4710
sba(ibeta_strands
Comp
p4711
(dp4712
g5
S'A'
sg6
((NNttp4713
sg8
I47045
sg9
F0.89881310343547471
sg10
I1057
sg11
g12
(g14
S'\n\x11\xaa\xa0\x0f\x024?'
tRp4714
sba(ibeta_strands
Comp
p4715
(dp4716
g5
S'K'
sg6
((NNttp4717
sg8
I35742
sg9
F1.1435549198202817
sg10
I1028
sg11
g12
(g14
S'\x88I\xcd\xdf\x94T\xe2>'
tRp4718
sba(ibeta_strands
Comp
p4719
(dp4720
g5
S'Y'
sg6
((I0
I0
ttp4721
sg8
I49541
sg9
F1.0259430103379088
sg10
I1007
sg11
g12
(g14
S'NO\xd6\xbeF\x04\xda?'
tRp4722
sba(ibeta_strands
Comp
p4723
(dp4724
g5
S'I'
sg6
((NNttp4725
sg8
I70577
sg9
F0.57540157989411567
sg10
I1007
sg11
g12
(g14
S'\x04>N\xed\xe9\xf1\xa0/'
tRp4726
sba(ibeta_strands
Comp
p4727
(dp4728
g5
S'P'
sg6
((NNttp4729
sg8
I20003
sg9
F1.7966763680350728
sg10
I919
sg11
g12
(g14
S'B\xc8\xefIg\xcdE0'
tRp4730
sba(ibeta_strands
Comp
p4731
(dp4732
g5
S'S'
sg6
((I0
I0
ttp4733
sg8
I46152
sg9
F0.85608989152328618
sg10
I780
sg11
g12
(g14
S'\xcb\xc7\xba\xb1\xb9\xd8\xdc>'
tRp4734
sba(ibeta_strands
Comp
p4735
(dp4736
g5
S'R'
sg6
((I0
I0
ttp4737
sg8
I40721
sg9
F0.90545701146878732
sg10
I727
sg11
g12
(g14
S'r\xd2\x9c\x890\xf3w?'
tRp4738
sba(ibeta_strands
Comp
p4739
(dp4740
g5
S'W'
sg6
((NNttp4741
sg8
I18534
sg9
F1.4167740009354979
sg10
I665
sg11
g12
(g14
S'\xeaZ\xcf\x16\x81V\xdf;'
tRp4742
sba(ibeta_strands
Comp
p4743
(dp4744
g5
S'G'
sg6
((NNttp4745
sg8
I27970
sg9
F0.9387437821270328
sg10
I657
sg11
g12
(g14
S'\xd0\x7fn\xf8\xeb9\xb9?'
tRp4746
sba(ibeta_strands
Comp
p4747
(dp4748
g5
S'E'
sg6
((NNttp4749
sg8
I37199
sg9
F0.69076484530572313
sg10
I639
sg11
g12
(g14
S'>U\xa4\x08L\xbcm;'
tRp4750
sba(ibeta_strands
Comp
p4751
(dp4752
g5
S'T'
sg6
((I0
I0
ttp4753
sg8
I54702
sg9
F0.57150254715782933
sg10
I613
sg11
g12
(g14
S'\x83\xfeCj\n\x92\x006'
tRp4754
sba(ibeta_strands
Comp
p4755
(dp4756
g5
S'Q'
sg6
((NNttp4757
sg8
I23054
sg9
F0.99535967974089168
sg10
I575
sg11
g12
(g14
S'|$\xb9c=\x9f\xed?'
tRp4758
sba(ibeta_strands
Comp
p4759
(dp4760
g5
S'S'
sg6
((NNttp4761
sg8
I41898
sg9
F0.55279832945166874
sg10
I574
sg11
g12
(g14
S'\x96\x88\xbd\xb6.\x8c\x8b5'
tRp4762
sba(ibeta_strands
Comp
p4763
(dp4764
g5
S'K'
sg6
((I0
I0
ttp4765
sg8
I41187
sg9
F0.66203233647246729
sg10
I535
sg11
g12
(g14
S'5\xb4(\x85R\xf2A;'
tRp4766
sba(ibeta_strands
Comp
p4767
(dp4768
g5
S'E'
sg6
((I0
I0
ttp4769
sg8
I39878
sg9
F0.61512048363878302
sg10
I481
sg11
g12
(g14
S'\x11\x85\xfd[\xa8\x98\x1f:'
tRp4770
sba(ibeta_strands
Comp
p4771
(dp4772
g5
S'H'
sg6
((I0
I0
ttp4773
sg8
I19550
sg9
F1.231287073736516
sg10
I478
sg11
g12
(g14
S'\xfd\xd8\xa3\xbd\xc6j\xce>'
tRp4774
sba(ibeta_strands
Comp
p4775
(dp4776
g5
S'T'
sg6
((NNttp4777
sg8
I58062
sg9
F0.31457565724664099
sg10
I450
sg11
g12
(g14
S'\xc4z\xe4\x02i\xbe\x16\x1e'
tRp4778
sba(ibeta_strands
Comp
p4779
(dp4780
g5
S'H'
sg6
((NNttp4781
sg8
I15054
sg9
F1.0896242299248486
sg10
I412
sg11
g12
(g14
S'\xc0N\x81\x96jA\xb4?'
tRp4782
sba(ibeta_strands
Comp
p4783
(dp4784
g5
S'Q'
sg6
((I0
I0
ttp4785
sg8
I27544
sg9
F0.75721806076470488
sg10
I410
sg11
g12
(g14
S'\x90\xdc\x9e\xab\x03\n@>'
tRp4786
sba(ibeta_strands
Comp
p4787
(dp4788
g5
S'N'
sg6
((NNttp4789
sg8
I18791
sg9
F0.86506792703339952
sg10
I406
sg11
g12
(g14
S'%\xbb\nez-h?'
tRp4790
sba(ibeta_strands
Comp
p4791
(dp4792
g5
S'D'
sg6
((NNttp4793
sg8
I19880
sg9
F0.71958627144432408
sg10
I356
sg11
g12
(g14
S'\xd2\xee\xc8\xd9\xdd2\xe9='
tRp4794
sba(ibeta_strands
Comp
p4795
(dp4796
g5
S'N'
sg6
((I0
I0
ttp4797
sg8
I18476
sg9
F0.89117324549608745
sg10
I325
sg11
g12
(g14
S'\x18,\xca\x16\x82{\xa2?'
tRp4798
sba(ibeta_strands
Comp
p4799
(dp4800
g5
S'M'
sg6
((I0
I0
ttp4801
sg8
I16057
sg9
F1.0171843139863086
sg10
I323
sg11
g12
(g14
S'#E\x07\x87h\xda\xe8?'
tRp4802
sba(ibeta_strands
Comp
p4803
(dp4804
g5
S'C'
sg6
((I0
I0
ttp4805
sg8
I16380
sg9
F0.98905569499579948
sg10
I321
sg11
g12
(g14
S'\x8f\xc1\x06r\x17\x9c\xeb?'
tRp4806
sba(ibeta_strands
Comp
p4807
(dp4808
g5
S'M'
sg6
((NNttp4809
sg8
I15100
sg9
F0.77857757870416278
sg10
I293
sg11
g12
(g14
S':\xe2{\x8d\xd6\x8f\xea>'
tRp4810
sba(ibeta_strands
Comp
p4811
(dp4812
g5
S'W'
sg6
((I0
I0
ttp4813
sg8
I15972
sg9
F0.8498869451483313
sg10
I268
sg11
g12
(g14
S'\xb6\xc2\x81\x12\xb9M}?'
tRp4814
sba(ibeta_strands
Comp
p4815
(dp4816
g5
S'D'
sg6
((I0
I0
ttp4817
sg8
I23034
sg9
F0.54944089095707538
sg10
I248
sg11
g12
(g14
S'\xba\xfdlU|\xeed;'
tRp4818
sba(ibeta_strands
Comp
p4819
(dp4820
g5
S'V'
sg6
((NI0
ttp4821
sg8
I2925
sg10
I169
sba(ibeta_strands
Comp
p4822
(dp4823
g5
S'L'
sg6
((I0
Nttp4824
sg8
I2395
sg10
I111
sba(ibeta_strands
Comp
p4825
(dp4826
g5
S'I'
sg6
((NI0
ttp4827
sg8
I1959
sg10
I67
sba(ibeta_strands
Comp
p4828
(dp4829
g5
S'V'
sg6
((I0
Nttp4830
sg8
I3656
sg10
I63
sba(ibeta_strands
Comp
p4831
(dp4832
g5
S'K'
sg6
((I0
Nttp4833
sg8
I633
sg10
I58
sba(ibeta_strands
Comp
p4834
(dp4835
g5
S'Q'
sg6
((I0
Nttp4836
sg8
I387
sg10
I47
sba(ibeta_strands
Comp
p4837
(dp4838
g5
S'P'
sg6
((I0
Nttp4839
sg8
I1207
sg10
I47
sba(ibeta_strands
Comp
p4840
(dp4841
g5
S'L'
sg6
((NI0
ttp4842
sg8
I2404
sg10
I46
sba(ibeta_strands
Comp
p4843
(dp4844
g5
S'I'
sg6
((I0
Nttp4845
sg8
I2919
sg10
I42
sba(ibeta_strands
Comp
p4846
(dp4847
g5
S'A'
sg6
((I0
Nttp4848
sg8
I848
sg10
I40
sba(ibeta_strands
Comp
p4849
(dp4850
g5
S'C'
sg6
((I0
Nttp4851
sg8
I265
sg10
I37
sba(ibeta_strands
Comp
p4852
(dp4853
g5
S'A'
sg6
((NI0
ttp4854
sg8
I1024
sg10
I35
sba(ibeta_strands
Comp
p4855
(dp4856
g5
S'F'
sg6
((I0
Nttp4857
sg8
I899
sg10
I34
sba(ibeta_strands
Comp
p4858
(dp4859
g5
S'R'
sg6
((I0
Nttp4860
sg8
I495
sg10
I33
sba(ibeta_strands
Comp
p4861
(dp4862
g5
S'F'
sg6
((NI0
ttp4863
sg8
I1757
sg10
I33
sba(ibeta_strands
Comp
p4864
(dp4865
g5
S'Y'
sg6
((NI0
ttp4866
sg8
I1905
sg10
I27
sba(ibeta_strands
Comp
p4867
(dp4868
g5
S'E'
sg6
((I0
Nttp4869
sg8
I744
sg10
I21
sba(ibeta_strands
Comp
p4870
(dp4871
g5
S'T'
sg6
((I0
Nttp4872
sg8
I897
sg10
I19
sba(ibeta_strands
Comp
p4873
(dp4874
g5
S'K'
sg6
((NI0
ttp4875
sg8
I443
sg10
I17
sba(ibeta_strands
Comp
p4876
(dp4877
g5
S'Y'
sg6
((I0
Nttp4878
sg8
I588
sg10
I13
sba(ibeta_strands
Comp
p4879
(dp4880
g5
S'M'
sg6
((I0
Nttp4881
sg8
I292
sg10
I12
sba(ibeta_strands
Comp
p4882
(dp4883
g5
S'N'
sg6
((I0
Nttp4884
sg8
I266
sg10
I10
sba(ibeta_strands
Comp
p4885
(dp4886
g5
S'G'
sg6
((I0
Nttp4887
sg8
I286
sg10
I10
sba(ibeta_strands
Comp
p4888
(dp4889
g5
S'C'
sg6
((NI0
ttp4890
sg8
I416
sg10
I10
sba(ibeta_strands
Comp
p4891
(dp4892
g5
S'G'
sg6
((NI0
ttp4893
sg8
I691
sg10
I10
sba(ibeta_strands
Comp
p4894
(dp4895
g5
S'T'
sg6
((NI0
ttp4896
sg8
I1027
sg10
I9
sba(ibeta_strands
Comp
p4897
(dp4898
g5
S'H'
sg6
((I0
Nttp4899
sg8
I314
sg10
I8
sba(ibeta_strands
Comp
p4900
(dp4901
g5
S'Q'
sg6
((NI0
ttp4902
sg8
I327
sg10
I8
sba(ibeta_strands
Comp
p4903
(dp4904
g5
S'S'
sg6
((I0
Nttp4905
sg8
I521
sg10
I8
sba(ibeta_strands
Comp
p4906
(dp4907
g5
S'D'
sg6
((I0
Nttp4908
sg8
I295
sg10
I7
sba(ibeta_strands
Comp
p4909
(dp4910
g5
S'E'
sg6
((NI0
ttp4911
sg8
I443
sg10
I7
sba(ibeta_strands
Comp
p4912
(dp4913
g5
S'W'
sg6
((I0
Nttp4914
sg8
I460
sg10
I7
sba(ibeta_strands
Comp
p4915
(dp4916
g5
S'W'
sg6
((NI0
ttp4917
sg8
I620
sg10
I7
sba(ibeta_strands
Comp
p4918
(dp4919
g5
S'M'
sg6
((NI0
ttp4920
sg8
I372
sg10
I6
sba(ibeta_strands
Comp
p4921
(dp4922
g5
S'S'
sg6
((NI0
ttp4923
sg8
I796
sg10
I5
sba(ibeta_strands
Comp
p4924
(dp4925
g5
S'R'
sg6
((NI0
ttp4926
sg8
I517
sg10
I4
sba(ibeta_strands
Comp
p4927
(dp4928
g5
S'D'
sg6
((NI0
ttp4929
sg8
I312
sg10
I3
sba(ibeta_strands
Comp
p4930
(dp4931
g5
S'P'
sg6
((I0
I1
ttp4932
sg8
I-2
sg10
I2
sba(ibeta_strands
Comp
p4933
(dp4934
g5
S'N'
sg6
((NI0
ttp4935
sg8
I223
sg10
I2
sba(ibeta_strands
Comp
p4936
(dp4937
g5
S'H'
sg6
((NI0
ttp4938
sg8
I270
sg10
I2
sba(ibeta_strands
Comp
p4939
(dp4940
g5
S'P'
sg6
((NI1
ttp4941
sg8
I-1
sg10
I1
sba(ibeta_strands
Comp
p4942
(dp4943
g5
S'H'
sg6
((I0
I1
ttp4944
sg8
I-1
sg10
I1
sbasS'V'
(lp4945
(ibeta_strands
Comp
p4946
(dp4947
g5
S'V'
sg6
((NNttp4948
sg8
I78838
sg9
F1.7364199663890263
sg10
I22876
sg11
g12
(g14
S'\x00\x00\x00\x00\x00\x00\x00\x00'
tRp4949
sba(ibeta_strands
Comp
p4950
(dp4951
g5
S'V'
sg6
((I0
I0
ttp4952
sg8
I95225
sg9
F1.04950410308149
sg10
I15268
sg11
g12
(g14
S'\xc6\x96\x8c\xc5\x900\x9c='
tRp4953
sba(ibeta_strands
Comp
p4954
(dp4955
g5
S'L'
sg6
((I0
I0
ttp4956
sg8
I71980
sg9
F1.2122532080792481
sg10
I13669
sg11
g12
(g14
S'\xa4\'\xb2\xff(\xf6D"'
tRp4957
sba(ibeta_strands
Comp
p4958
(dp4959
g5
S'I'
sg6
((NNttp4960
sg8
I58416
sg9
F1.4202319296871646
sg10
I13168
sg11
g12
(g14
S'\x00\x00\x00\x00\x00\x00\x00\x00'
tRp4961
sba(ibeta_strands
Comp
p4962
(dp4963
g5
S'L'
sg6
((NNttp4964
sg8
I70473
sg9
F1.1379816956100659
sg10
I12183
sg11
g12
(g14
S'\xcbg\x8b\\\xea\x0b\xe03'
tRp4965
sba(ibeta_strands
Comp
p4966
(dp4967
g5
S'I'
sg6
((I0
I0
ttp4968
sg8
I64870
sg9
F1.0063854945944881
sg10
I9905
sg11
g12
(g14
S'\x96\x02\xfa\xe2+\xb6\xde?'
tRp4969
sba(ibeta_strands
Comp
p4970
(dp4971
g5
S'A'
sg6
((I0
I0
ttp4972
sg8
I45373
sg9
F1.2865444961838286
sg10
I9249
sg11
g12
(g14
S'\x05\x96\xe1\x9f\xf4\x84\xdc\x1e'
tRp4973
sba(ibeta_strands
Comp
p4974
(dp4975
g5
S'F'
sg6
((I0
I0
ttp4976
sg8
I43909
sg9
F1.2114191770474054
sg10
I8350
sg11
g12
(g14
S'R\xd6\x98K\x9a\xa2\x99.'
tRp4977
sba(ibeta_strands
Comp
p4978
(dp4979
g5
S'G'
sg6
((I0
I0
ttp4980
sg8
I37774
sg9
F1.2509785003456872
sg10
I7453
sg11
g12
(g14
S'G\xa29\xa2\rg\x10+'
tRp4981
sba(ibeta_strands
Comp
p4982
(dp4983
g5
S'Y'
sg6
((I0
I0
ttp4984
sg8
I43171
sg9
F1.1065253365357612
sg10
I7377
sg11
g12
(g14
S'T\x04D"b\xa1\x88;'
tRp4985
sba(ibeta_strands
Comp
p4986
(dp4987
g5
S'A'
sg6
((NNttp4988
sg8
I40803
sg9
F1.1715360214019519
sg10
I7299
sg11
g12
(g14
S'G\xc2V\xb1\xb5\xfb\x905'
tRp4989
sba(ibeta_strands
Comp
p4990
(dp4991
g5
S'F'
sg6
((NNttp4992
sg8
I38176
sg9
F1.0162991877529541
sg10
I5787
sg11
g12
(g14
S'\xc8\xc7\xae\x8b\xe8\xad\xc6?'
tRp4993
sba(ibeta_strands
Comp
p4994
(dp4995
g5
S'T'
sg6
((NNttp4996
sg8
I52837
sg9
F0.74881811084105399
sg10
I5675
sg11
g12
(g14
S'\x17\xe5\x8b|\xbd\xd1\xe1$'
tRp4997
sba(ibeta_strands
Comp
p4998
(dp4999
g5
S'T'
sg6
((I0
I0
ttp5000
sg8
I49976
sg9
F0.73283369467050108
sg10
I5339
sg11
g12
(g14
S'\xf9Y\x1d\xd0E\x91\xbd"'
tRp5001
sba(ibeta_strands
Comp
p5002
(dp5003
g5
S'R'
sg6
((I0
I0
ttp5004
sg8
I36884
sg9
F0.83688710008868972
sg10
I4564
sg11
g12
(g14
S'z\xc1\xa7\x17\xb4\xf5\xc37'
tRp5005
sba(ibeta_strands
Comp
p5006
(dp5007
g5
S'K'
sg6
((I0
I0
ttp5008
sg8
I37223
sg9
F0.81965147841651975
sg10
I4499
sg11
g12
(g14
S'Y\x11\x0f\xca\xcaY\xee5'
tRp5009
sba(ibeta_strands
Comp
p5010
(dp5011
g5
S'S'
sg6
((I0
I0
ttp5012
sg8
I42509
sg9
F0.71470944004298964
sg10
I4423
sg11
g12
(g14
S'$\xdf\xd3$\xc6\xc6\xf1#'
tRp5013
sba(ibeta_strands
Comp
p5014
(dp5015
g5
S'Y'
sg6
((NNttp5016
sg8
I39309
sg9
F0.75841209020193989
sg10
I4282
sg11
g12
(g14
S'\t6j\xd1\x08\xad\x95-'
tRp5017
sba(ibeta_strands
Comp
p5018
(dp5019
g5
S'E'
sg6
((I0
I0
ttp5020
sg8
I36215
sg9
F0.78023004920071914
sg10
I4144
sg11
g12
(g14
S'\xbc4\xd5\xbb\xf7!\xae1'
tRp5021
sba(ibeta_strands
Comp
p5022
(dp5023
g5
S'S'
sg6
((NNttp5024
sg8
I38793
sg9
F0.66877879166345944
sg10
I3679
sg11
g12
(g14
S'\x0fT\x02\xf2\x83\x87\x96\x1e'
tRp5025
sba(ibeta_strands
Comp
p5026
(dp5027
g5
S'R'
sg6
((NNttp5028
sg8
I33260
sg9
F0.75499912378010703
sg10
I3605
sg11
g12
(g14
S'<D\xfb\x90\x13\xff\x150'
tRp5029
sba(ibeta_strands
Comp
p5030
(dp5031
g5
S'E'
sg6
((NNttp5032
sg8
I34385
sg9
F0.70456947262158021
sg10
I3453
sg11
g12
(g14
S'\t4\ty\x8c0`('
tRp5033
sba(ibeta_strands
Comp
p5034
(dp5035
g5
S'Q'
sg6
((I0
I0
ttp5036
sg8
I24591
sg9
F0.91443278266466421
sg10
I3363
sg11
g12
(g14
S'\xdf\xf2\x81\xfe\xa9\xd2P>'
tRp5037
sba(ibeta_strands
Comp
p5038
(dp5039
g5
S'G'
sg6
((NNttp5040
sg8
I25273
sg9
F0.90457095134049059
sg10
I3354
sg11
g12
(g14
S'\xad\xd7\xaa\xe4\xc95\xf0='
tRp5041
sba(ibeta_strands
Comp
p5042
(dp5043
g5
S'K'
sg6
((NNttp5044
sg8
I33581
sg9
F0.66960132777551484
sg10
I3189
sg11
g12
(g14
S'86\n\xa8\xef\td#'
tRp5045
sba(ibeta_strands
Comp
p5046
(dp5047
g5
S'H'
sg6
((I0
I0
ttp5048
sg8
I17570
sg9
F0.9321828631903899
sg10
I2458
sg11
g12
(g14
S'\xbf>\xdb\xb6\xf2C%?'
tRp5049
sba(ibeta_strands
Comp
p5050
(dp5051
g5
S'M'
sg6
((I0
I0
ttp5052
sg8
I13957
sg9
F1.1234101897465947
sg10
I2423
sg11
g12
(g14
S'\x0f\x9cX4\x9e\x80\x03>'
tRp5053
sba(ibeta_strands
Comp
p5054
(dp5055
g5
S'D'
sg6
((I0
I0
ttp5056
sg8
I20932
sg9
F0.76652261377408548
sg10
I2350
sg11
g12
(g14
S'\xe3\xb3\xf7\xf9\x00\x90\xc36'
tRp5057
sba(ibeta_strands
Comp
p5058
(dp5059
g5
S'P'
sg6
((NNttp5060
sg8
I18807
sg9
F0.78048145945683411
sg10
I2115
sg11
g12
(g14
S'\x95\x91 p\x17\x81\xc08'
tRp5061
sba(ibeta_strands
Comp
p5062
(dp5063
g5
S'W'
sg6
((I0
I0
ttp5064
sg8
I14151
sg9
F0.97533232223266342
sg10
I2089
sg11
g12
(g14
S'\xa0\xf2\x19c\xb77\xcc?'
tRp5065
sba(ibeta_strands
Comp
p5066
(dp5067
g5
S'C'
sg6
((I0
I0
ttp5068
sg8
I14683
sg9
F0.91542905005677344
sg10
I2018
sg11
g12
(g14
S'n\x0f\x93\x8c\xb6\x8a\xf2>'
tRp5069
sba(ibeta_strands
Comp
p5070
(dp5071
g5
S'C'
sg6
((NNttp5072
sg8
I16732
sg9
F0.76229474901454886
sg10
I1833
sg11
g12
(g14
S'\x84A\xed\x14(\xaa}8'
tRp5073
sba(ibeta_strands
Comp
p5074
(dp5075
g5
S'M'
sg6
((NNttp5076
sg8
I13629
sg9
F0.88477069200345371
sg10
I1764
sg11
g12
(g14
S'B\x01t\x91mg]>'
tRp5077
sba(ibeta_strands
Comp
p5078
(dp5079
g5
S'W'
sg6
((NNttp5080
sg8
I17496
sg9
F0.68484368609055735
sg10
I1703
sg11
g12
(g14
S'\xdf)\xa0Be{\x902'
tRp5081
sba(ibeta_strands
Comp
p5082
(dp5083
g5
S'Q'
sg6
((NNttp5084
sg8
I21967
sg9
F0.54305159542170711
sg10
I1662
sg11
g12
(g14
S'\x19\x13\x12\xad\xbf\xab\x83\x1d'
tRp5085
sba(ibeta_strands
Comp
p5086
(dp5087
g5
S'N'
sg6
((I0
I0
ttp5088
sg8
I17249
sg9
F0.62655371358847645
sg10
I1552
sg11
g12
(g14
S'\xaa1lcs\xdbQ-'
tRp5089
sba(ibeta_strands
Comp
p5090
(dp5091
g5
S'N'
sg6
((NNttp5092
sg8
I17756
sg9
F0.5795434912577635
sg10
I1441
sg11
g12
(g14
S'n\x8b\xb3x\xe5\x99Q('
tRp5093
sba(ibeta_strands
Comp
p5094
(dp5095
g5
S'H'
sg6
((NNttp5096
sg8
I14104
sg9
F0.67991483721502766
sg10
I1362
sg11
g12
(g14
S'\xdf\x99\xf8\r\xe2\x84\xd64'
tRp5097
sba(ibeta_strands
Comp
p5098
(dp5099
g5
S'D'
sg6
((NNttp5100
sg8
I18952
sg9
F0.48988683636322028
sg10
I1284
sg11
g12
(g14
S',9\x0f\xe8\n\xbda\x1b'
tRp5101
sba(ibeta_strands
Comp
p5102
(dp5103
g5
S'V'
sg6
((NI0
ttp5104
sg8
I2312
sg10
I782
sba(ibeta_strands
Comp
p5105
(dp5106
g5
S'V'
sg6
((I0
Nttp5107
sg8
I2939
sg10
I780
sba(ibeta_strands
Comp
p5108
(dp5109
g5
S'L'
sg6
((NI0
ttp5110
sg8
I1780
sg10
I670
sba(ibeta_strands
Comp
p5111
(dp5112
g5
S'I'
sg6
((I0
Nttp5113
sg8
I2344
sg10
I617
sba(ibeta_strands
Comp
p5114
(dp5115
g5
S'I'
sg6
((NI0
ttp5116
sg8
I1526
sg10
I500
sba(ibeta_strands
Comp
p5117
(dp5118
g5
S'L'
sg6
((I0
Nttp5119
sg8
I2146
sg10
I360
sba(ibeta_strands
Comp
p5120
(dp5121
g5
S'F'
sg6
((NI0
ttp5122
sg8
I1498
sg10
I292
sba(ibeta_strands
Comp
p5123
(dp5124
g5
S'T'
sg6
((NI0
ttp5125
sg8
I804
sg10
I232
sba(ibeta_strands
Comp
p5126
(dp5127
g5
S'A'
sg6
((NI0
ttp5128
sg8
I847
sg10
I212
sba(ibeta_strands
Comp
p5129
(dp5130
g5
S'Y'
sg6
((NI0
ttp5131
sg8
I1755
sg10
I177
sba(ibeta_strands
Comp
p5132
(dp5133
g5
S'W'
sg6
((I0
Nttp5134
sg8
I298
sg10
I169
sba(ibeta_strands
Comp
p5135
(dp5136
g5
S'S'
sg6
((NI0
ttp5137
sg8
I633
sg10
I168
sba(ibeta_strands
Comp
p5138
(dp5139
g5
S'A'
sg6
((I0
Nttp5140
sg8
I733
sg10
I155
sba(ibeta_strands
Comp
p5141
(dp5142
g5
S'T'
sg6
((I0
Nttp5143
sg8
I770
sg10
I146
sba(ibeta_strands
Comp
p5144
(dp5145
g5
S'G'
sg6
((NI0
ttp5146
sg8
I557
sg10
I144
sba(ibeta_strands
Comp
p5147
(dp5148
g5
S'F'
sg6
((I0
Nttp5149
sg8
I798
sg10
I135
sba(ibeta_strands
Comp
p5150
(dp5151
g5
S'P'
sg6
((I0
Nttp5152
sg8
I1122
sg10
I132
sba(ibeta_strands
Comp
p5153
(dp5154
g5
S'M'
sg6
((NI0
ttp5155
sg8
I296
sg10
I82
sba(ibeta_strands
Comp
p5156
(dp5157
g5
S'S'
sg6
((I0
Nttp5158
sg8
I451
sg10
I78
sba(ibeta_strands
Comp
p5159
(dp5160
g5
S'C'
sg6
((NI0
ttp5161
sg8
I350
sg10
I76
sba(ibeta_strands
Comp
p5162
(dp5163
g5
S'E'
sg6
((I0
Nttp5164
sg8
I691
sg10
I74
sba(ibeta_strands
Comp
p5165
(dp5166
g5
S'Y'
sg6
((I0
Nttp5167
sg8
I531
sg10
I70
sba(ibeta_strands
Comp
p5168
(dp5169
g5
S'R'
sg6
((NI0
ttp5170
sg8
I455
sg10
I66
sba(ibeta_strands
Comp
p5171
(dp5172
g5
S'R'
sg6
((I0
Nttp5173
sg8
I462
sg10
I66
sba(ibeta_strands
Comp
p5174
(dp5175
g5
S'K'
sg6
((NI0
ttp5176
sg8
I395
sg10
I65
sba(ibeta_strands
Comp
p5177
(dp5178
g5
S'E'
sg6
((NI0
ttp5179
sg8
I387
sg10
I63
sba(ibeta_strands
Comp
p5180
(dp5181
g5
S'W'
sg6
((NI0
ttp5182
sg8
I564
sg10
I63
sba(ibeta_strands
Comp
p5183
(dp5184
g5
S'K'
sg6
((I0
Nttp5185
sg8
I630
sg10
I61
sba(ibeta_strands
Comp
p5186
(dp5187
g5
S'H'
sg6
((NI0
ttp5188
sg8
I220
sg10
I52
sba(ibeta_strands
Comp
p5189
(dp5190
g5
S'C'
sg6
((I0
Nttp5191
sg8
I259
sg10
I43
sba(ibeta_strands
Comp
p5192
(dp5193
g5
S'N'
sg6
((I0
Nttp5194
sg8
I236
sg10
I40
sba(ibeta_strands
Comp
p5195
(dp5196
g5
S'Q'
sg6
((I0
Nttp5197
sg8
I395
sg10
I39
sba(ibeta_strands
Comp
p5198
(dp5199
g5
S'D'
sg6
((I0
Nttp5200
sg8
I266
sg10
I36
sba(ibeta_strands
Comp
p5201
(dp5202
g5
S'M'
sg6
((I0
Nttp5203
sg8
I268
sg10
I36
sba(ibeta_strands
Comp
p5204
(dp5205
g5
S'H'
sg6
((I0
Nttp5206
sg8
I292
sg10
I30
sba(ibeta_strands
Comp
p5207
(dp5208
g5
S'G'
sg6
((I0
Nttp5209
sg8
I269
sg10
I27
sba(ibeta_strands
Comp
p5210
(dp5211
g5
S'D'
sg6
((NI0
ttp5212
sg8
I288
sg10
I27
sba(ibeta_strands
Comp
p5213
(dp5214
g5
S'Q'
sg6
((NI0
ttp5215
sg8
I308
sg10
I27
sba(ibeta_strands
Comp
p5216
(dp5217
g5
S'N'
sg6
((NI0
ttp5218
sg8
I204
sg10
I21
sba(ibeta_strands
Comp
p5219
(dp5220
g5
S'P'
sg6
((NI1
ttp5221
sg8
I-1
sg10
I1
sba(ibeta_strands
Comp
p5222
(dp5223
g5
S'P'
sg6
((I0
I1
ttp5224
sg8
I-1
sg10
I1
sba(ibeta_strands
Comp
p5225
(dp5226
g5
S'G'
sg6
((I0
I1
ttp5227
sg8
I-1
sg10
I1
sba(ibeta_strands
Comp
p5228
(dp5229
g5
S'T'
sg6
((I1
Nttp5230
sg8
I-1
sg10
I1
sba(ibeta_strands
Comp
p5231
(dp5232
g5
S'F'
sg6
((I-1
I0
ttp5233
sg8
I0
sg10
I1
sba(ibeta_strands
Comp
p5234
(dp5235
g5
S'G'
sg6
((I-1
I0
ttp5236
sg8
I0
sg10
I1
sbasS'Y'
(lp5237
(ibeta_strands
Comp
p5238
(dp5239
g5
S'V'
sg6
((I0
I0
ttp5240
sg8
I103117
sg9
F1.106375339879053
sg10
I7376
sg11
g12
(g14
S'\xees\x7fe\x19\x19\x8c;'
tRp5241
sba(ibeta_strands
Comp
p5242
(dp5243
g5
S'L'
sg6
((I0
I0
ttp5244
sg8
I80379
sg9
F1.0198746647741084
sg10
I5270
sg11
g12
(g14
S'\xec\xe5\x9a\x98<)\xbf?'
tRp5245
sba(ibeta_strands
Comp
p5246
(dp5247
g5
S'I'
sg6
((I0
I0
ttp5248
sg8
I69869
sg9
F1.0877197697513745
sg10
I4906
sg11
g12
(g14
S'\xe0r\xf6\xb9\x19\xec\xeb='
tRp5249
sba(ibeta_strands
Comp
p5250
(dp5251
g5
S'L'
sg6
((NNttp5252
sg8
I78257
sg9
F0.95877984491758739
sg10
I4399
sg11
g12
(g14
S'\xcf\x02yE1\x16d?'
tRp5253
sba(ibeta_strands
Comp
p5254
(dp5255
g5
S'V'
sg6
((NNttp5256
sg8
I97431
sg9
F0.75858920652379935
sg10
I4283
sg11
g12
(g14
S'\xa4\x97\xe9\x1fJ\x18\x9d-'
tRp5257
sba(ibeta_strands
Comp
p5258
(dp5259
g5
S'Y'
sg6
((I0
I0
ttp5260
sg8
I46510
sg9
F1.3216835458217107
sg10
I4038
sg11
g12
(g14
S'\x9b\xd7\xab\xd3\x94\xd2\x85/'
tRp5261
sba(ibeta_strands
Comp
p5262
(dp5263
g5
S'F'
sg6
((I0
I0
ttp5264
sg8
I48307
sg9
F1.2511359244900333
sg10
I3952
sg11
g12
(g14
S' \xa3\xe8\xe2iw}5'
tRp5265
sba(ibeta_strands
Comp
p5266
(dp5267
g5
S'T'
sg6
((I0
I0
ttp5268
sg8
I51770
sg9
F1.0617966177950937
sg10
I3545
sg11
g12
(g14
S'\xa0\xf5$\xc7\x18\xd4"?'
tRp5269
sba(ibeta_strands
Comp
p5270
(dp5271
g5
S'K'
sg6
((NNttp5272
sg8
I33359
sg9
F1.6711960787228892
sg10
I3411
sg11
g12
(g14
S'\xe7M\xf4s\x98\xe6\x95\x11'
tRp5273
sba(ibeta_strands
Comp
p5274
(dp5275
g5
S'A'
sg6
((I0
I0
ttp5276
sg8
I51330
sg9
F0.99923916527922496
sg10
I3292
sg11
g12
(g14
S'\x0crU\x9eI\x0c\xef?'
tRp5277
sba(ibeta_strands
Comp
p5278
(dp5279
g5
S'G'
sg6
((I0
I0
ttp5280
sg8
I42007
sg9
F1.1793811601103492
sg10
I3220
sg11
g12
(g14
S'\xaf\x08tbd\x9eB;'
tRp5281
sba(ibeta_strands
Comp
p5282
(dp5283
g5
S'R'
sg6
((NNttp5284
sg8
I33741
sg9
F1.5266381302172656
sg10
I3124
sg11
g12
(g14
S'\xdf\xc13{v\xe18#'
tRp5285
sba(ibeta_strands
Comp
p5286
(dp5287
g5
S'I'
sg6
((NNttp5288
sg8
I68460
sg9
F0.78620242890114411
sg10
I3124
sg11
g12
(g14
S'\xbd\x85\xb1\xdf\x88y$6'
tRp5289
sba(ibeta_strands
Comp
p5290
(dp5291
g5
S'A'
sg6
((NNttp5292
sg8
I45086
sg9
F1.1295553623093835
sg10
I3016
sg11
g12
(g14
S'\xbf\xa2(7\xe1\x0ev='
tRp5293
sba(ibeta_strands
Comp
p5294
(dp5295
g5
S'Y'
sg6
((NNttp5296
sg8
I40974
sg9
F1.0815490221083452
sg10
I2617
sg11
g12
(g14
S'\xec\xd1\x85{\xd7\xd0\xf7>'
tRp5297
sba(ibeta_strands
Comp
p5298
(dp5299
g5
S'F'
sg6
((NNttp5300
sg8
I41408
sg9
F1.0469908884722439
sg10
I2555
sg11
g12
(g14
S'oQ.M\x9fr\x8d?'
tRp5301
sba(ibeta_strands
Comp
p5302
(dp5303
g5
S'S'
sg6
((NNttp5304
sg8
I40012
sg9
F1.043450167676413
sg10
I2460
sg11
g12
(g14
S'=u\xbb\xab\x8b\xf9\x9a?'
tRp5305
sba(ibeta_strands
Comp
p5306
(dp5307
g5
S'S'
sg6
((I0
I0
ttp5308
sg8
I44553
sg9
F0.83885444596972691
sg10
I2379
sg11
g12
(g14
S'\x9eY&\xdcuc\xfa;'
tRp5309
sba(ibeta_strands
Comp
p5310
(dp5311
g5
S'R'
sg6
((I0
I0
ttp5312
sg8
I39267
sg9
F0.8726829540274661
sg10
I2181
sg11
g12
(g14
S'\xbe5\xe0t\xd4\x8a\xb3='
tRp5313
sba(ibeta_strands
Comp
p5314
(dp5315
g5
S'E'
sg6
((NNttp5316
sg8
I35705
sg9
F1.0155516146441992
sg10
I2133
sg11
g12
(g14
S'\x949\xf5\x98Ac\xdd?'
tRp5317
sba(ibeta_strands
Comp
p5318
(dp5319
g5
S'K'
sg6
((I0
I0
ttp5320
sg8
I39684
sg9
F0.81020888718721296
sg10
I2038
sg11
g12
(g14
S'[_\xe2\xad$\xb8#;'
tRp5321
sba(ibeta_strands
Comp
p5322
(dp5323
g5
S'G'
sg6
((NNttp5324
sg8
I26732
sg9
F1.19253928526373
sg10
I1895
sg11
g12
(g14
S'\x0b\xc5s8E:\xd1<'
tRp5325
sba(ibeta_strands
Comp
p5326
(dp5327
g5
S'P'
sg6
((NNttp5328
sg8
I19055
sg9
F1.6076090360156683
sg10
I1867
sg11
g12
(g14
S'\xf4\xdcux\x0e\x99\xa3*'
tRp5329
sba(ibeta_strands
Comp
p5330
(dp5331
g5
S'T'
sg6
((NNttp5332
sg8
I56811
sg9
F0.52371943301020452
sg10
I1701
sg11
g12
(g14
S'\tW\xd1]9l\xa2\x19'
tRp5333
sba(ibeta_strands
Comp
p5334
(dp5335
g5
S'E'
sg6
((I0
I0
ttp5336
sg8
I38771
sg9
F0.65242863413777008
sg10
I1588
sg11
g12
(g14
S'?\xc2\x19\xebX\xa6\xd90'
tRp5337
sba(ibeta_strands
Comp
p5338
(dp5339
g5
S'Q'
sg6
((NNttp5340
sg8
I22248
sg9
F1.052901282516354
sg10
I1381
sg11
g12
(g14
S'\xc6F\x17j\xdb\x01\xa8?'
tRp5341
sba(ibeta_strands
Comp
p5342
(dp5343
g5
S'W'
sg6
((NNttp5344
sg8
I17958
sg9
F1.1644812264156457
sg10
I1241
sg11
g12
(g14
S'(\x99\xa8\xd0`#Z>'
tRp5345
sba(ibeta_strands
Comp
p5346
(dp5347
g5
S'Q'
sg6
((I0
I0
ttp5348
sg8
I26771
sg9
F0.70192264590862163
sg10
I1183
sg11
g12
(g14
S'\x91b\xfcv\x13\x03D8'
tRp5349
sba(ibeta_strands
Comp
p5350
(dp5351
g5
S'H'
sg6
((I0
I0
ttp5352
sg8
I18999
sg9
F0.8515579358953117
sg10
I1029
sg11
g12
(g14
S'\xa9\xf9\xae9\x83\xd6t>'
tRp5353
sba(ibeta_strands
Comp
p5354
(dp5355
g5
S'W'
sg6
((I0
I0
ttp5356
sg8
I15233
sg9
F1.0259430103379088
sg10
I1007
sg11
g12
(g14
S'NO\xd6\xbeF\x04\xda?'
tRp5357
sba(ibeta_strands
Comp
p5358
(dp5359
g5
S'N'
sg6
((NNttp5360
sg8
I18218
sg9
F0.91873158101854524
sg10
I979
sg11
g12
(g14
S'9\xe5\xcc%\xce\x93x?'
tRp5361
sba(ibeta_strands
Comp
p5362
(dp5363
g5
S'D'
sg6
((NNttp5364
sg8
I19283
sg9
F0.84841345682008484
sg10
I953
sg11
g12
(g14
S'\xcea\x9a\x1dtD\x81>'
tRp5365
sba(ibeta_strands
Comp
p5366
(dp5367
g5
S'H'
sg6
((NNttp5368
sg8
I14530
sg9
F1.0902777802705239
sg10
I936
sg11
g12
(g14
S'\x00\x0e\xd4\x0e.\xd8y?'
tRp5369
sba(ibeta_strands
Comp
p5370
(dp5371
g5
S'C'
sg6
((I0
I0
ttp5372
sg8
I15788
sg9
F0.90376162234862578
sg10
I913
sg11
g12
(g14
S'\xc5\n\xc9\xb6~\xe5X?'
tRp5373
sba(ibeta_strands
Comp
p5374
(dp5375
g5
S'N'
sg6
((I0
I0
ttp5376
sg8
I17904
sg9
F0.79020290895395251
sg10
I897
sg11
g12
(g14
S'\xaa\xf8\x93\x88\xc4\x0bJ='
tRp5377
sba(ibeta_strands
Comp
p5378
(dp5379
g5
S'D'
sg6
((I0
I0
ttp5380
sg8
I22414
sg9
F0.61781212065177937
sg10
I868
sg11
g12
(g14
S'L\xae\x1eD\xab\x89\x905'
tRp5381
sba(ibeta_strands
Comp
p5382
(dp5383
g5
S'M'
sg6
((I0
I0
ttp5384
sg8
I15514
sg9
F0.87615799088215729
sg10
I866
sg11
g12
(g14
S'\x92\xd1\xc5\x7fz\x14\x0c?'
tRp5385
sba(ibeta_strands
Comp
p5386
(dp5387
g5
S'C'
sg6
((NNttp5388
sg8
I17785
sg9
F0.75690080571253804
sg10
I780
sg11
g12
(g14
S'\\h\xfa\xe6?/\xc2<'
tRp5389
sba(ibeta_strands
Comp
p5390
(dp5391
g5
S'M'
sg6
((NNttp5392
sg8
I14657
sg9
F0.86137817432226138
sg10
I736
sg11
g12
(g14
S'\x81\x0c\xbb`9\xda\xfc>'
tRp5393
sba(ibeta_strands
Comp
p5394
(dp5395
g5
S'L'
sg6
((I0
Nttp5396
sg8
I1973
sg10
I533
sba(ibeta_strands
Comp
p5397
(dp5398
g5
S'V'
sg6
((I0
Nttp5399
sg8
I3543
sg10
I176
sba(ibeta_strands
Comp
p5400
(dp5401
g5
S'I'
sg6
((I0
Nttp5402
sg8
I2787
sg10
I174
sba(ibeta_strands
Comp
p5403
(dp5404
g5
S'K'
sg6
((I0
Nttp5405
sg8
I540
sg10
I151
sba(ibeta_strands
Comp
p5406
(dp5407
g5
S'P'
sg6
((I0
Nttp5408
sg8
I1106
sg10
I148
sba(ibeta_strands
Comp
p5409
(dp5410
g5
S'F'
sg6
((I0
Nttp5411
sg8
I810
sg10
I123
sba(ibeta_strands
Comp
p5412
(dp5413
g5
S'E'
sg6
((I0
Nttp5414
sg8
I668
sg10
I97
sba(ibeta_strands
Comp
p5415
(dp5416
g5
S'Y'
sg6
((I0
Nttp5417
sg8
I512
sg10
I89
sba(ibeta_strands
Comp
p5418
(dp5419
g5
S'Y'
sg6
((NI0
ttp5420
sg8
I1844
sg10
I88
sba(ibeta_strands
Comp
p5421
(dp5422
g5
S'L'
sg6
((NI0
ttp5423
sg8
I2363
sg10
I87
sba(ibeta_strands
Comp
p5424
(dp5425
g5
S'Q'
sg6
((I0
Nttp5426
sg8
I358
sg10
I76
sba(ibeta_strands
Comp
p5427
(dp5428
g5
S'R'
sg6
((I0
Nttp5429
sg8
I456
sg10
I72
sba(ibeta_strands
Comp
p5430
(dp5431
g5
S'V'
sg6
((NI0
ttp5432
sg8
I3023
sg10
I71
sba(ibeta_strands
Comp
p5433
(dp5434
g5
S'A'
sg6
((I0
Nttp5435
sg8
I828
sg10
I60
sba(ibeta_strands
Comp
p5436
(dp5437
g5
S'F'
sg6
((NI0
ttp5438
sg8
I1732
sg10
I58
sba(ibeta_strands
Comp
p5439
(dp5440
g5
S'I'
sg6
((NI0
ttp5441
sg8
I1975
sg10
I51
sba(ibeta_strands
Comp
p5442
(dp5443
g5
S'T'
sg6
((I0
Nttp5444
sg8
I872
sg10
I44
sba(ibeta_strands
Comp
p5445
(dp5446
g5
S'T'
sg6
((NI0
ttp5447
sg8
I997
sg10
I39
sba(ibeta_strands
Comp
p5448
(dp5449
g5
S'H'
sg6
((I0
Nttp5450
sg8
I288
sg10
I34
sba(ibeta_strands
Comp
p5451
(dp5452
g5
S'M'
sg6
((I0
Nttp5453
sg8
I271
sg10
I33
sba(ibeta_strands
Comp
p5454
(dp5455
g5
S'C'
sg6
((I0
Nttp5456
sg8
I272
sg10
I30
sba(ibeta_strands
Comp
p5457
(dp5458
g5
S'A'
sg6
((NI0
ttp5459
sg8
I1029
sg10
I30
sba(ibeta_strands
Comp
p5460
(dp5461
g5
S'Q'
sg6
((NI0
ttp5462
sg8
I308
sg10
I27
sba(ibeta_strands
Comp
p5463
(dp5464
g5
S'K'
sg6
((NI0
ttp5465
sg8
I434
sg10
I26
sba(ibeta_strands
Comp
p5466
(dp5467
g5
S'W'
sg6
((I0
Nttp5468
sg8
I441
sg10
I26
sba(ibeta_strands
Comp
p5469
(dp5470
g5
S'S'
sg6
((I0
Nttp5471
sg8
I503
sg10
I26
sba(ibeta_strands
Comp
p5472
(dp5473
g5
S'E'
sg6
((NI0
ttp5474
sg8
I429
sg10
I21
sba(ibeta_strands
Comp
p5475
(dp5476
g5
S'N'
sg6
((I0
Nttp5477
sg8
I259
sg10
I17
sba(ibeta_strands
Comp
p5478
(dp5479
g5
S'S'
sg6
((NI0
ttp5480
sg8
I785
sg10
I16
sba(ibeta_strands
Comp
p5481
(dp5482
g5
S'R'
sg6
((NI0
ttp5483
sg8
I506
sg10
I15
sba(ibeta_strands
Comp
p5484
(dp5485
g5
S'G'
sg6
((I0
Nttp5486
sg8
I282
sg10
I14
sba(ibeta_strands
Comp
p5487
(dp5488
g5
S'W'
sg6
((NI0
ttp5489
sg8
I613
sg10
I14
sba(ibeta_strands
Comp
p5490
(dp5491
g5
S'D'
sg6
((NI0
ttp5492
sg8
I302
sg10
I13
sba(ibeta_strands
Comp
p5493
(dp5494
g5
S'M'
sg6
((NI0
ttp5495
sg8
I365
sg10
I13
sba(ibeta_strands
Comp
p5496
(dp5497
g5
S'G'
sg6
((NI0
ttp5498
sg8
I691
sg10
I10
sba(ibeta_strands
Comp
p5499
(dp5500
g5
S'D'
sg6
((I0
Nttp5501
sg8
I293
sg10
I9
sba(ibeta_strands
Comp
p5502
(dp5503
g5
S'N'
sg6
((NI0
ttp5504
sg8
I217
sg10
I8
sba(ibeta_strands
Comp
p5505
(dp5506
g5
S'H'
sg6
((NI0
ttp5507
sg8
I264
sg10
I8
sba(ibeta_strands
Comp
p5508
(dp5509
g5
S'C'
sg6
((NI0
ttp5510
sg8
I420
sg10
I6
sba(ibeta_strands
Comp
p5511
(dp5512
g5
S'P'
sg6
((NI1
ttp5513
sg8
I-5
sg10
I5
sba(ibeta_strands
Comp
p5514
(dp5515
g5
S'P'
sg6
((I0
I1
ttp5516
sg8
I-4
sg10
I4
sba(ibeta_strands
Comp
p5517
(dp5518
g5
S'G'
sg6
((I1
I1
ttp5519
sg8
I-1
sg10
I4
sba(ibeta_strands
Comp
p5520
(dp5521
g5
S'G'
sg6
((NI1
ttp5522
sg8
I-2
sg10
I2
sba(ibeta_strands
Comp
p5523
(dp5524
g5
S'Y'
sg6
((I-1
I0
ttp5525
sg8
I-1
sg10
I2
sba(ibeta_strands
Comp
p5526
(dp5527
g5
S'Y'
sg6
((I0
I-1
ttp5528
sg8
I1
sg10
I1
sbas.