(dp1
S'A'
(lp2
(ibeta_strands
Comp
p3
(dp4
S'complementary_sequence'
p5
S'V'
sS'hb_pattern'
p6
((I-1
I1
ttp7
sS'promiscuity_score'
p8
I54312
sS'enrichment_ratio'
p9
F1.1349019550516553
sS'count_score'
p10
I4653
sS'enrichment_p'
p11
cnumpy.core.multiarray
scalar
p12
(cnumpy
dtype
p13
(S'f8'
I0
I1
tRp14
(I3
S'<'
NNNI-1
I-1
I0
tbS',\xda\x84\x91\xde\xca.;'
tRp15
sba(ibeta_strands
Comp
p16
(dp17
g5
S'V'
sg6
((NNttp18
sg8
I55240
sg9
F0.93859958380850073
sg10
I3725
sg11
g12
(g14
S'w\x1b(\x08\xe8`\xe0>'
tRp19
sba(ibeta_strands
Comp
p20
(dp21
g5
S'I'
sg6
((I-1
I1
ttp22
sg8
I40025
sg9
F1.0721080511883554
sg10
I3224
sg11
g12
(g14
S'\xdb\xc9\xcd[\n\x93\xe3>'
tRp23
sba(ibeta_strands
Comp
p24
(dp25
g5
S'L'
sg6
((I-1
I1
ttp26
sg8
I36514
sg9
F1.0723812401183743
sg10
I2942
sg11
g12
(g14
S'\xa8#\x02\xc3/\x0b\xfa>'
tRp27
sba(ibeta_strands
Comp
p28
(dp29
g5
S'L'
sg6
((NNttp30
sg8
I36616
sg9
F1.0694332142937357
sg10
I2840
sg11
g12
(g14
S'\xe0\xae"\xd0j\xc4\x12?'
tRp31
sba(ibeta_strands
Comp
p32
(dp33
g5
S'I'
sg6
((NNttp34
sg8
I40639
sg9
F0.89662908038648126
sg10
I2610
sg11
g12
(g14
S'8\x07\xb9#"\x8e\xfd='
tRp35
sba(ibeta_strands
Comp
p36
(dp37
g5
S'A'
sg6
((NNttp38
sg8
I18207
sg9
F1.1870755263525326
sg10
I1581
sg11
g12
(g14
S'\x90\xdb:Fr{S='
tRp39
sba(ibeta_strands
Comp
p40
(dp41
g5
S'A'
sg6
((I-1
I1
ttp42
sg8
I18249
sg9
F1.1185523450231218
sg10
I1539
sg11
g12
(g14
S'\x9d\x1aA\xbc\xef\x08\xc5>'
tRp43
sba(ibeta_strands
Comp
p44
(dp45
g5
S'T'
sg6
((NNttp46
sg8
I14834
sg9
F1.0793023326581594
sg10
I1162
sg11
g12
(g14
S'\x11\x85\x1bIu\x13x?'
tRp47
sba(ibeta_strands
Comp
p48
(dp49
g5
S'F'
sg6
((NNttp50
sg8
I16458
sg9
F0.97430971327927507
sg10
I1155
sg11
g12
(g14
S'tq\x1a\xe0\xcc\x94\xd6?'
tRp51
sba(ibeta_strands
Comp
p52
(dp53
g5
S'F'
sg6
((I-1
I1
ttp54
sg8
I16479
sg9
F0.92597511182363945
sg10
I1134
sg11
g12
(g14
S'\xbb\xdc:\x03\x14\x04x?'
tRp55
sba(ibeta_strands
Comp
p56
(dp57
g5
S'T'
sg6
((I-1
I1
ttp58
sg8
I14983
sg9
F0.91078872230893426
sg10
I1013
sg11
g12
(g14
S'_\xa9\xf9\x06\x94$Z?'
tRp59
sba(ibeta_strands
Comp
p60
(dp61
g5
S'G'
sg6
((NNttp62
sg8
I10676
sg9
F1.1254775908151642
sg10
I875
sg11
g12
(g14
S'b\xde\x19\x1f\xe3\xeb.?'
tRp63
sba(ibeta_strands
Comp
p64
(dp65
g5
S'Y'
sg6
((NNttp66
sg8
I10285
sg9
F1.0983325919977769
sg10
I821
sg11
g12
(g14
S'\x17F\xda|\x06\xc2s?'
tRp67
sba(ibeta_strands
Comp
p68
(dp69
g5
S'G'
sg6
((I-1
I1
ttp70
sg8
I10800
sg9
F0.93506100871702558
sg10
I751
sg11
g12
(g14
S';\x9b"\x91R\x8f\xab?'
tRp71
sba(ibeta_strands
Comp
p72
(dp73
g5
S'S'
sg6
((NNttp74
sg8
I10186
sg9
F1.01894594405157
sg10
I750
sg11
g12
(g14
S"\xf1\x04'^\\;\xe3?"
tRp75
sba(ibeta_strands
Comp
p76
(dp77
g5
S'S'
sg6
((I-1
I1
ttp78
sg8
I10275
sg9
F0.8692857340453316
sg10
I661
sg11
g12
(g14
S'\xa3\xea\x88\xfe\x1a\xc4#?'
tRp79
sba(ibeta_strands
Comp
p80
(dp81
g5
S'Y'
sg6
((I-1
I1
ttp82
sg8
I10493
sg9
F0.79382066402203777
sg10
I613
sg11
g12
(g14
S'\xce\xd0\xcds\x82\xef\x1a>'
tRp83
sba(ibeta_strands
Comp
p84
(dp85
g5
S'K'
sg6
((NNttp86
sg8
I5995
sg9
F1.3250388330831271
sg10
I587
sg11
g12
(g14
S'\x8d\xc4Z\x95Dvp='
tRp87
sba(ibeta_strands
Comp
p88
(dp89
g5
S'R'
sg6
((NNttp90
sg8
I6863
sg9
F1.1319687979158701
sg10
I566
sg11
g12
(g14
S'z\ny\xa8\nsa?'
tRp91
sba(ibeta_strands
Comp
p92
(dp93
g5
S'D'
sg6
((NNttp94
sg8
I7506
sg9
F0.93485962437795678
sg10
I504
sg11
g12
(g14
S'\x03+-A\x8d\x15\xbe?'
tRp95
sba(ibeta_strands
Comp
p96
(dp97
g5
S'E'
sg6
((NNttp98
sg8
I6956
sg9
F0.96840900047695466
sg10
I485
sg11
g12
(g14
S'\x9a0\xbe\xa9#A\xde?'
tRp99
sba(ibeta_strands
Comp
p100
(dp101
g5
S'R'
sg6
((I-1
I1
ttp102
sg8
I6991
sg9
F0.84793653218876464
sg10
I438
sg11
g12
(g14
S'\xbf\xa5jlRZ4?'
tRp103
sba(ibeta_strands
Comp
p104
(dp105
g5
S'D'
sg6
((I-1
I1
ttp106
sg8
I7576
sg9
F0.77924999457628996
sg10
I434
sg11
g12
(g14
S'\x99\x81\xab!\x90dj>'
tRp107
sba(ibeta_strands
Comp
p108
(dp109
g5
S'H'
sg6
((NNttp110
sg8
I5447
sg9
F1.0659586883404442
sg10
I421
sg11
g12
(g14
S'\xbc\xb9\x04\x94\x12\xe0\xc6?'
tRp111
sba(ibeta_strands
Comp
p112
(dp113
g5
S'C'
sg6
((I-1
I1
ttp114
sg8
I4777
sg9
F1.1189092930947195
sg10
I403
sg11
g12
(g14
S'\x83\xcf\x9d=\x91\x1e\x94?'
tRp115
sba(ibeta_strands
Comp
p116
(dp117
g5
S'P'
sg6
((I-1
I1
ttp118
sg8
I4662
sg9
F1.1233723662412791
sg10
I395
sg11
g12
(g14
S'\x0f._q\x9f.\x91?'
tRp119
sba(ibeta_strands
Comp
p120
(dp121
g5
S'C'
sg6
((NNttp122
sg8
I4799
sg9
F1.0928073291172138
sg10
I381
sg11
g12
(g14
S"'\xd2\x13\xb6\xb9\x1e\xb3?"
tRp123
sba(ibeta_strands
Comp
p124
(dp125
g5
S'Q'
sg6
((NNttp126
sg8
I3977
sg9
F1.2489683365926634
sg10
I365
sg11
g12
(g14
S'Z\x17\xeb\xb5\x9a\xbc\xe5>'
tRp127
sba(ibeta_strands
Comp
p128
(dp129
g5
S'M'
sg6
((NNttp130
sg8
I4998
sg9
F1.0060259907792608
sg10
I363
sg11
g12
(g14
S'\xbe\\\xb9\xea\xc6\xa6\xed?'
tRp131
sba(ibeta_strands
Comp
p132
(dp133
g5
S'N'
sg6
((I-1
I1
ttp134
sg8
I6240
sg9
F0.74935888229027858
sg10
I343
sg11
g12
(g14
S'.\x93\x96\xcf\x138W>'
tRp135
sba(ibeta_strands
Comp
p136
(dp137
g5
S'E'
sg6
((I-1
I1
ttp138
sg8
I7101
sg9
F0.65715407758516542
sg10
I340
sg11
g12
(g14
S'b%l/\x91\xd6\xb6<'
tRp139
sba(ibeta_strands
Comp
p140
(dp141
g5
S'N'
sg6
((NNttp142
sg8
I6252
sg9
F0.74705490534467112
sg10
I331
sg11
g12
(g14
S'\t\x88\xd2\xbdk\x80^>'
tRp143
sba(ibeta_strands
Comp
p144
(dp145
g5
S'M'
sg6
((I-1
I1
ttp146
sg8
I5052
sg9
F0.8289575028885996
sg10
I309
sg11
g12
(g14
S'\x0e\x83\x83\x0e\xd0\xe6C?'
tRp147
sba(ibeta_strands
Comp
p148
(dp149
g5
S'H'
sg6
((I-1
I1
ttp150
sg8
I5575
sg9
F0.71812014462999041
sg10
I293
sg11
g12
(g14
S'\xe19G\xb5N\xeb(>'
tRp151
sba(ibeta_strands
Comp
p152
(dp153
g5
S'K'
sg6
((I-1
I1
ttp154
sg8
I6306
sg9
F0.60307426832622646
sg10
I276
sg11
g12
(g14
S'P\xae\x85l"\xc2(<'
tRp155
sba(ibeta_strands
Comp
p156
(dp157
g5
S'W'
sg6
((NNttp158
sg8
I3223
sg9
F1.13273690514698
sg10
I266
sg11
g12
(g14
S'M,\xe8c\xef\xfc\xa2?'
tRp159
sba(ibeta_strands
Comp
p160
(dp161
g5
S'Q'
sg6
((I-1
I1
ttp162
sg8
I4083
sg9
F0.85788591882949383
sg10
I259
sg11
g12
(g14
S'\xd7\x82\xd6\xb9\xf4\x1d\x86?'
tRp163
sba(ibeta_strands
Comp
p164
(dp165
g5
S'W'
sg6
((I-1
I1
ttp166
sg8
I3253
sg9
F0.97281582785346143
sg10
I236
sg11
g12
(g14
S'\xbe\xfd$\xc0\xb3\xdc\xe5?'
tRp167
sba(ibeta_strands
Comp
p168
(dp169
g5
S'V'
sg6
((NI1
ttp170
sg8
I58782
sg10
I183
sba(ibeta_strands
Comp
p171
(dp172
g5
S'I'
sg6
((NI1
ttp173
sg8
I43075
sg10
I174
sba(ibeta_strands
Comp
p174
(dp175
g5
S'A'
sg6
((NI1
ttp176
sg8
I19711
sg10
I77
sba(ibeta_strands
Comp
p177
(dp178
g5
S'G'
sg6
((NI1
ttp179
sg8
I11476
sg10
I75
sba(ibeta_strands
Comp
p180
(dp181
g5
S'L'
sg6
((NI1
ttp182
sg8
I39410
sg10
I46
sba(ibeta_strands
Comp
p183
(dp184
g5
S'Y'
sg6
((NI1
ttp185
sg8
I11075
sg10
I31
sba(ibeta_strands
Comp
p186
(dp187
g5
S'F'
sg6
((NI1
ttp188
sg8
I17585
sg10
I28
sba(ibeta_strands
Comp
p189
(dp190
g5
S'T'
sg6
((NI1
ttp191
sg8
I15972
sg10
I24
sba(ibeta_strands
Comp
p192
(dp193
g5
S'M'
sg6
((NI1
ttp194
sg8
I5346
sg10
I15
sba(ibeta_strands
Comp
p195
(dp196
g5
S'S'
sg6
((NI1
ttp197
sg8
I10921
sg10
I15
sba(ibeta_strands
Comp
p198
(dp199
g5
S'C'
sg6
((NI1
ttp200
sg8
I5169
sg10
I11
sba(ibeta_strands
Comp
p201
(dp202
g5
S'E'
sg6
((NI1
ttp203
sg8
I7434
sg10
I7
sba(ibeta_strands
Comp
p204
(dp205
g5
S'S'
sg6
((I-1
Nttp206
sg8
I10929
sg10
I7
sba(ibeta_strands
Comp
p207
(dp208
g5
S'Q'
sg6
((NI1
ttp209
sg8
I4336
sg10
I6
sba(ibeta_strands
Comp
p210
(dp211
g5
S'V'
sg6
((I-1
Nttp212
sg8
I58959
sg10
I6
sba(ibeta_strands
Comp
p213
(dp214
g5
S'K'
sg6
((NI1
ttp215
sg8
I6577
sg10
I5
sba(ibeta_strands
Comp
p216
(dp217
g5
S'R'
sg6
((NI1
ttp218
sg8
I7424
sg10
I5
sba(ibeta_strands
Comp
p219
(dp220
g5
S'T'
sg6
((I-1
Nttp221
sg8
I15991
sg10
I5
sba(ibeta_strands
Comp
p222
(dp223
g5
S'P'
sg6
((NI1
ttp224
sg8
I5053
sg10
I4
sba(ibeta_strands
Comp
p225
(dp226
g5
S'H'
sg6
((NI1
ttp227
sg8
I5864
sg10
I4
sba(ibeta_strands
Comp
p228
(dp229
g5
S'N'
sg6
((NI1
ttp230
sg8
I6579
sg10
I4
sba(ibeta_strands
Comp
p231
(dp232
g5
S'Y'
sg6
((I-1
Nttp233
sg8
I11102
sg10
I4
sba(ibeta_strands
Comp
p234
(dp235
g5
S'A'
sg6
((I-1
Nttp236
sg8
I19784
sg10
I4
sba(ibeta_strands
Comp
p237
(dp238
g5
S'W'
sg6
((NI1
ttp239
sg8
I3486
sg10
I3
sba(ibeta_strands
Comp
p240
(dp241
g5
S'K'
sg6
((I-1
Nttp242
sg8
I6579
sg10
I3
sba(ibeta_strands
Comp
p243
(dp244
g5
S'L'
sg6
((I-1
Nttp245
sg8
I39453
sg10
I3
sba(ibeta_strands
Comp
p246
(dp247
g5
S'I'
sg6
((I-1
Nttp248
sg8
I43246
sg10
I3
sba(ibeta_strands
Comp
p249
(dp250
g5
S'W'
sg6
((I-1
Nttp251
sg8
I3487
sg10
I2
sba(ibeta_strands
Comp
p252
(dp253
g5
S'Q'
sg6
((I-1
Nttp254
sg8
I4340
sg10
I2
sba(ibeta_strands
Comp
p255
(dp256
g5
S'H'
sg6
((I-1
Nttp257
sg8
I5866
sg10
I2
sba(ibeta_strands
Comp
p258
(dp259
g5
S'R'
sg6
((I-1
Nttp260
sg8
I7427
sg10
I2
sba(ibeta_strands
Comp
p261
(dp262
g5
S'D'
sg6
((I-1
Nttp263
sg8
I8008
sg10
I2
sba(ibeta_strands
Comp
p264
(dp265
g5
S'D'
sg6
((NI1
ttp266
sg8
I8008
sg10
I2
sba(ibeta_strands
Comp
p267
(dp268
g5
S'G'
sg6
((I-1
Nttp269
sg8
I11549
sg10
I2
sba(ibeta_strands
Comp
p270
(dp271
g5
S'L'
sg6
((NI-1
ttp272
sg8
I39454
sg10
I2
sba(ibeta_strands
Comp
p273
(dp274
g5
S'N'
sg6
((I-1
Nttp275
sg8
I6582
sg10
I1
sba(ibeta_strands
Comp
p276
(dp277
g5
S'E'
sg6
((I-1
Nttp278
sg8
I7440
sg10
I1
sba(ibeta_strands
Comp
p279
(dp280
g5
S'F'
sg6
((I-1
Nttp281
sg8
I17612
sg10
I1
sbasS'C'
(lp282
(ibeta_strands
Comp
p283
(dp284
g5
S'V'
sg6
((NNttp285
sg8
I58045
sg9
F0.88555196181754314
sg10
I920
sg11
g12
(g14
S'4\x00\x0f\x17v\xcf\x01?'
tRp286
sba(ibeta_strands
Comp
p287
(dp288
g5
S'V'
sg6
((I-1
I1
ttp289
sg8
I58066
sg9
F0.89729133272862605
sg10
I899
sg11
g12
(g14
S'I\x01\xd7\xbai\xf00?'
tRp290
sba(ibeta_strands
Comp
p291
(dp292
g5
S'I'
sg6
((NNttp293
sg8
I42519
sg9
F0.95800398357682914
sg10
I730
sg11
g12
(g14
S'\x04\xe3\x94\xb0\x8e3\xcb?'
tRp294
sba(ibeta_strands
Comp
p295
(dp296
g5
S'I'
sg6
((I-1
I1
ttp297
sg8
I42560
sg9
F0.93758626286915958
sg10
I689
sg11
g12
(g14
S'U\xca\xb8\x00\xee?\xb1?'
tRp298
sba(ibeta_strands
Comp
p299
(dp300
g5
S'L'
sg6
((NNttp301
sg8
I38803
sg9
F0.9393353174603174
sg10
I653
sg11
g12
(g14
S'/%l>m)\xb6?'
tRp302
sba(ibeta_strands
Comp
p303
(dp304
g5
S'L'
sg6
((I-1
I1
ttp305
sg8
I38892
sg9
F0.84126754159600881
sg10
I564
sg11
g12
(g14
S"\xb8d\xd8'5\x1b\xe3>"
tRp306
sba(ibeta_strands
Comp
p307
(dp308
g5
S'F'
sg6
((I-1
I1
ttp309
sg8
I17177
sg9
F1.4568714683311856
sg10
I436
sg11
g12
(g14
S'\x04\xd6\xbd\x05\xf42\xb2<'
tRp310
sba(ibeta_strands
Comp
p311
(dp312
g5
S'A'
sg6
((NNttp313
sg8
I19384
sg9
F1.1587773253631348
sg10
I404
sg11
g12
(g14
S'\xec!\xd3\xbc\xc5\x94a?'
tRp314
sba(ibeta_strands
Comp
p315
(dp316
g5
S'A'
sg6
((I-1
I1
ttp317
sg8
I19411
sg9
F1.1212631060963383
sg10
I377
sg11
g12
(g14
S'\x97\x86\xff\xc0&I\x96?'
tRp318
sba(ibeta_strands
Comp
p319
(dp320
g5
S'F'
sg6
((NNttp321
sg8
I17272
sg9
F1.0988579863899228
sg10
I341
sg11
g12
(g14
S'\xa5)\xb9Y@\x1c\xb3?'
tRp322
sba(ibeta_strands
Comp
p323
(dp324
g5
S'T'
sg6
((I-1
I1
ttp325
sg8
I15687
sg9
F1.1368814173240278
sg10
I309
sg11
g12
(g14
S'y\x9aK{\x9df\x95?'
tRp326
sba(ibeta_strands
Comp
p327
(dp328
g5
S'T'
sg6
((NNttp329
sg8
I15732
sg9
F0.9367270389025828
sg10
I264
sg11
g12
(g14
S'$\x18\xd5\xed[.\xd2?'
tRp330
sba(ibeta_strands
Comp
p331
(dp332
g5
S'G'
sg6
((I-1
I1
ttp333
sg8
I11312
sg9
F1.2177170895169338
sg10
I239
sg11
g12
(g14
S'+\xa9|\xb9Pp_?'
tRp334
sba(ibeta_strands
Comp
p335
(dp336
g5
S'G'
sg6
((NNttp337
sg8
I11332
sg9
F1.0760812298254945
sg10
I219
sg11
g12
(g14
S'\x92\x9cK/{\xe5\xd1?'
tRp338
sba(ibeta_strands
Comp
p339
(dp340
g5
S'S'
sg6
((NNttp341
sg8
I10728
sg9
F1.0795067405162504
sg10
I208
sg11
g12
(g14
S'\xf2K\xf5\xe6\x97m\xd1?'
tRp342
sba(ibeta_strands
Comp
p343
(dp344
g5
S'Y'
sg6
((NNttp345
sg8
I10910
sg9
F1.001656762110571
sg10
I196
sg11
g12
(g14
S'av\xb9\xe1\x81\xab\xef?'
tRp346
sba(ibeta_strands
Comp
p347
(dp348
g5
S'C'
sg6
((I-1
I1
ttp349
sg8
I5004
sg9
F1.9996362076362078
sg10
I176
sg11
g12
(g14
S'\x91\xfaa\xfd\x8b\xd3\xa5;'
tRp350
sba(ibeta_strands
Comp
p351
(dp352
g5
S'C'
sg6
((NNttp353
sg8
I5006
sg9
F1.9065140650854935
sg10
I174
sg11
g12
(g14
S'\xd3\x1b\xc6cX\xa6A<'
tRp354
sba(ibeta_strands
Comp
p355
(dp356
g5
S'Y'
sg6
((I-1
I1
ttp357
sg8
I10940
sg9
F0.87966741064526044
sg10
I166
sg11
g12
(g14
S'}\x94\x03\xb6\x12\xae\xb8?'
tRp358
sba(ibeta_strands
Comp
p359
(dp360
g5
S'S'
sg6
((I-1
I1
ttp361
sg8
I10773
sg9
F0.8771970990076331
sg10
I163
sg11
g12
(g14
S'D\xc3,\x8e\x12\xa2\xb7?'
tRp362
sba(ibeta_strands
Comp
p363
(dp364
g5
S'R'
sg6
((NNttp365
sg8
I7268
sg9
F1.2300309597523218
sg10
I161
sg11
g12
(g14
S'$\xedA\x9f\x01\xbe\x80?'
tRp366
sba(ibeta_strands
Comp
p367
(dp368
g5
S'D'
sg6
((NNttp369
sg8
I7858
sg9
F1.0770394150169431
sg10
I152
sg11
g12
(g14
S'\xa0\x10[\xb2\x12\xcb\xd7?'
tRp370
sba(ibeta_strands
Comp
p371
(dp372
g5
S'E'
sg6
((NNttp373
sg8
I7299
sg9
F1.0831224681782403
sg10
I142
sg11
g12
(g14
S'*\xfbOT%\x9e\xd6?'
tRp374
sba(ibeta_strands
Comp
p375
(dp376
g5
S'D'
sg6
((I-1
I1
ttp377
sg8
I7870
sg9
F1.0286404620487017
sg10
I140
sg11
g12
(g14
S'\x85\xa5\xbe\xe2D\x81\xe8?'
tRp378
sba(ibeta_strands
Comp
p379
(dp380
g5
S'K'
sg6
((NNttp381
sg8
I6449
sg9
F1.1468702522029779
sg10
I133
sg11
g12
(g14
S'\x1e\xf2B\xffh\x02\xbe?'
tRp382
sba(ibeta_strands
Comp
p383
(dp384
g5
S'N'
sg6
((NNttp385
sg8
I6466
sg9
F1.0087476400251731
sg10
I117
sg11
g12
(g14
S'k:\x8e\x92n\xc1\xee?'
tRp386
sba(ibeta_strands
Comp
p387
(dp388
g5
S'E'
sg6
((I-1
I1
ttp389
sg8
I7325
sg9
F0.91747611852974031
sg10
I116
sg11
g12
(g14
S'\xc272\xd0\x1ex\xd7?'
tRp390
sba(ibeta_strands
Comp
p391
(dp392
g5
S'N'
sg6
((I-1
I1
ttp393
sg8
I6469
sg9
F1.0191757465280176
sg10
I114
sg11
g12
(g14
S'*/\xf3\x198\xf7\xeb?'
tRp394
sba(ibeta_strands
Comp
p395
(dp396
g5
S'H'
sg6
((NNttp397
sg8
I5759
sg9
F1.0542823059694226
sg10
I109
sg11
g12
(g14
S'Z\x8bW\x84\xcdw\xe3?'
tRp398
sba(ibeta_strands
Comp
p399
(dp400
g5
S'R'
sg6
((I-1
I1
ttp401
sg8
I7322
sg9
F0.84765963579801251
sg10
I107
sg11
g12
(g14
S'\x0b\x99F\xc2\x00\xa9\xb6?'
tRp402
sba(ibeta_strands
Comp
p403
(dp404
g5
S'M'
sg6
((NNttp405
sg8
I5258
sg9
F1.0904655314839982
sg10
I103
sg11
g12
(g14
S'b\x8ekN\x0f\x8e\xd9?'
tRp406
sba(ibeta_strands
Comp
p407
(dp408
g5
S'M'
sg6
((I-1
I1
ttp409
sg8
I5265
sg9
F1.0538856952287281
sg10
I96
sg11
g12
(g14
S'FdC\x9e\x10l\xe4?'
tRp410
sba(ibeta_strands
Comp
p411
(dp412
g5
S'P'
sg6
((I-1
I1
ttp413
sg8
I4967
sg9
F1.0474122278749527
sg10
I90
sg11
g12
(g14
S'\x1d\xa0H^&<\xe6?'
tRp414
sba(ibeta_strands
Comp
p415
(dp416
g5
S'H'
sg6
((I-1
I1
ttp417
sg8
I5783
sg9
F0.8525049403372511
sg10
I85
sg11
g12
(g14
S'qq\x9eY<\xd6\xc2?'
tRp418
sba(ibeta_strands
Comp
p419
(dp420
g5
S'W'
sg6
((NNttp421
sg8
I3405
sg9
F1.3664660361134997
sg10
I84
sg11
g12
(g14
S'\xe80\xb0S;\xd2q?'
tRp422
sba(ibeta_strands
Comp
p423
(dp424
g5
S'K'
sg6
((I-1
I1
ttp425
sg8
I6499
sg9
F0.74214420105030865
sg10
I83
sg11
g12
(g14
S'\x88\x98\x04\x08\xd2\xa5y?'
tRp426
sba(ibeta_strands
Comp
p427
(dp428
g5
S'Q'
sg6
((NNttp429
sg8
I4272
sg9
F0.91501612160294787
sg10
I70
sg11
g12
(g14
S'V\x7f.X\xde\x12\xdf?'
tRp430
sba(ibeta_strands
Comp
p431
(dp432
g5
S'Q'
sg6
((I-1
I1
ttp433
sg8
I4279
sg9
F0.85392320254595699
sg10
I63
sg11
g12
(g14
S'T?\xd9\x95\xf4\xac\xcc?'
tRp434
sba(ibeta_strands
Comp
p435
(dp436
g5
S'W'
sg6
((I-1
I1
ttp437
sg8
I3451
sg9
F0.64098919837526891
sg10
I38
sg11
g12
(g14
S'P\xbf\x969\x96>y?'
tRp438
sba(ibeta_strands
Comp
p439
(dp440
g5
S'V'
sg6
((NI1
ttp441
sg8
I58949
sg10
I16
sba(ibeta_strands
Comp
p442
(dp443
g5
S'I'
sg6
((NI1
ttp444
sg8
I43236
sg10
I13
sba(ibeta_strands
Comp
p445
(dp446
g5
S'A'
sg6
((NI1
ttp447
sg8
I19777
sg10
I11
sba(ibeta_strands
Comp
p448
(dp449
g5
S'L'
sg6
((NI1
ttp450
sg8
I39451
sg10
I5
sba(ibeta_strands
Comp
p451
(dp452
g5
S'Y'
sg6
((NI1
ttp453
sg8
I11102
sg10
I4
sba(ibeta_strands
Comp
p454
(dp455
g5
S'G'
sg6
((NI1
ttp456
sg8
I11547
sg10
I4
sba(ibeta_strands
Comp
p457
(dp458
g5
S'F'
sg6
((NI1
ttp459
sg8
I17609
sg10
I4
sba(ibeta_strands
Comp
p460
(dp461
g5
S'C'
sg6
((NI1
ttp462
sg8
I5177
sg10
I3
sba(ibeta_strands
Comp
p463
(dp464
g5
S'M'
sg6
((NI1
ttp465
sg8
I5358
sg10
I3
sba(ibeta_strands
Comp
p466
(dp467
g5
S'A'
sg6
((I-1
Nttp468
sg8
I19785
sg10
I3
sba(ibeta_strands
Comp
p469
(dp470
g5
S'W'
sg6
((NI1
ttp471
sg8
I3487
sg10
I2
sba(ibeta_strands
Comp
p472
(dp473
g5
S'Q'
sg6
((NI1
ttp474
sg8
I4340
sg10
I2
sba(ibeta_strands
Comp
p475
(dp476
g5
S'P'
sg6
((NI1
ttp477
sg8
I5055
sg10
I2
sba(ibeta_strands
Comp
p478
(dp479
g5
S'E'
sg6
((I-1
Nttp480
sg8
I7439
sg10
I2
sba(ibeta_strands
Comp
p481
(dp482
g5
S'G'
sg6
((I-1
Nttp483
sg8
I11549
sg10
I2
sba(ibeta_strands
Comp
p484
(dp485
g5
S'T'
sg6
((NI1
ttp486
sg8
I15994
sg10
I2
sba(ibeta_strands
Comp
p487
(dp488
g5
S'K'
sg6
((I-1
Nttp489
sg8
I6581
sg10
I1
sba(ibeta_strands
Comp
p490
(dp491
g5
S'N'
sg6
((NI1
ttp492
sg8
I6582
sg10
I1
sba(ibeta_strands
Comp
p493
(dp494
g5
S'R'
sg6
((NI1
ttp495
sg8
I7428
sg10
I1
sba(ibeta_strands
Comp
p496
(dp497
g5
S'D'
sg6
((I-1
Nttp498
sg8
I8009
sg10
I1
sba(ibeta_strands
Comp
p499
(dp500
g5
S'D'
sg6
((NI1
ttp501
sg8
I8009
sg10
I1
sba(ibeta_strands
Comp
p502
(dp503
g5
S'S'
sg6
((I-1
Nttp504
sg8
I10935
sg10
I1
sba(ibeta_strands
Comp
p505
(dp506
g5
S'S'
sg6
((NI1
ttp507
sg8
I10935
sg10
I1
sba(ibeta_strands
Comp
p508
(dp509
g5
S'Y'
sg6
((I-1
Nttp510
sg8
I11105
sg10
I1
sba(ibeta_strands
Comp
p511
(dp512
g5
S'G'
sg6
((NI-1
ttp513
sg8
I11550
sg10
I1
sba(ibeta_strands
Comp
p514
(dp515
g5
S'F'
sg6
((I-1
Nttp516
sg8
I17612
sg10
I1
sba(ibeta_strands
Comp
p517
(dp518
g5
S'L'
sg6
((NI-1
ttp519
sg8
I39455
sg10
I1
sba(ibeta_strands
Comp
p520
(dp521
g5
S'V'
sg6
((I-1
Nttp522
sg8
I58964
sg10
I1
sbasS'E'
(lp523
(ibeta_strands
Comp
p524
(dp525
g5
S'V'
sg6
((I-1
I1
ttp526
sg8
I57654
sg9
F0.65149023839669218
sg10
I1311
sg11
g12
(g14
S'\xf4\xb3\xb5\xd0\xba\xa4_1'
tRp527
sba(ibeta_strands
Comp
p528
(dp529
g5
S'K'
sg6
((I-1
I1
ttp530
sg8
I5367
sg9
F5.4090117393736916
sg10
I1215
sg11
g12
(g14
S'\x00\x00\x00\x00\x00\x00\x00\x00'
tRp531
sba(ibeta_strands
Comp
p532
(dp533
g5
S'R'
sg6
((I-1
I1
ttp534
sg8
I6421
sg9
F3.9758473151547791
sg10
I1008
sg11
g12
(g14
S'\x00\x00\x00\x00\x00\x00\x00\x00'
tRp535
sba(ibeta_strands
Comp
p536
(dp537
g5
S'V'
sg6
((NNttp538
sg8
I57999
sg9
F0.64729433145082871
sg10
I966
sg11
g12
(g14
S'\x07\x16B.x#\xf24'
tRp539
sba(ibeta_strands
Comp
p540
(dp541
g5
S'L'
sg6
((I-1
I1
ttp542
sg8
I38563
sg9
F0.66318993736257481
sg10
I893
sg11
g12
(g14
S'\xbfK"\x0f\xad\x08s7'
tRp543
sba(ibeta_strands
Comp
p544
(dp545
g5
S'I'
sg6
((I-1
I1
ttp546
sg8
I42443
sg9
F0.5460827973463922
sg10
I806
sg11
g12
(g14
S'\x0b\xdf\xe3G\xd3\x03\x01/'
tRp547
sba(ibeta_strands
Comp
p548
(dp549
g5
S'T'
sg6
((I-1
I1
ttp550
sg8
I15213
sg9
F1.434332670373387
sg10
I783
sg11
g12
(g14
S'\xf0\x83\xc3y\xb3\xa4\xa2:'
tRp551
sba(ibeta_strands
Comp
p552
(dp553
g5
S'K'
sg6
((NNttp554
sg8
I5886
sg9
F4.1780183386119703
sg10
I696
sg11
g12
(g14
S'\x00\x00\x00\x00\x00\x00\x00\x00'
tRp555
sba(ibeta_strands
Comp
p556
(dp557
g5
S'L'
sg6
((NNttp558
sg8
I38806
sg9
F0.65090750944466846
sg10
I650
sg11
g12
(g14
S'\xf7\xe7\xcc\n\x8dr49'
tRp559
sba(ibeta_strands
Comp
p560
(dp561
g5
S'I'
sg6
((NNttp562
sg8
I42612
sg9
F0.58194553767245161
sg10
I637
sg11
g12
(g14
S'=9\xfd^\x89EQ5'
tRp563
sba(ibeta_strands
Comp
p564
(dp565
g5
S'T'
sg6
((NNttp566
sg8
I15394
sg9
F1.4869764007323563
sg10
I602
sg11
g12
(g14
S'0\xdag\x08\xefs\x07;'
tRp567
sba(ibeta_strands
Comp
p568
(dp569
g5
S'S'
sg6
((I-1
I1
ttp570
sg8
I10357
sg9
F1.5513849934595048
sg10
I579
sg11
g12
(g14
S'u\xa7\xed(\xa0\xf17:'
tRp571
sba(ibeta_strands
Comp
p572
(dp573
g5
S'R'
sg6
((NNttp574
sg8
I6887
sg9
F2.8826234046233927
sg10
I542
sg11
g12
(g14
S'{B\xa0E\x1e\x16\x15 '
tRp575
sba(ibeta_strands
Comp
p576
(dp577
g5
S'A'
sg6
((I-1
I1
ttp578
sg8
I19309
sg9
F0.70930518698363598
sg10
I479
sg11
g12
(g14
S'z\xe8\xa0\xe9\xbd\x02\xe2<'
tRp579
sba(ibeta_strands
Comp
p580
(dp581
g5
S'S'
sg6
((NNttp582
sg8
I10466
sg9
F1.6980807418750992
sg10
I470
sg11
g12
(g14
S'\xed\xefT\x16B\xb9>9'
tRp583
sba(ibeta_strands
Comp
p584
(dp585
g5
S'Y'
sg6
((I-1
I1
ttp586
sg8
I10643
sg9
F1.2215826220314814
sg10
I463
sg11
g12
(g14
S'h\x9a\xf2\xfc\x03\x1a\xe2>'
tRp587
sba(ibeta_strands
Comp
p588
(dp589
g5
S'G'
sg6
((NNttp590
sg8
I11136
sg9
F1.4195395373626352
sg10
I415
sg11
g12
(g14
S'\xe1\xb5\xe2\\\x8b\xd1E='
tRp591
sba(ibeta_strands
Comp
p592
(dp593
g5
S'Y'
sg6
((NNttp594
sg8
I10764
sg9
F1.2167109516527315
sg10
I342
sg11
g12
(g14
S'J*\xa8\x9f\xca\x04*?'
tRp595
sba(ibeta_strands
Comp
p596
(dp597
g5
S'A'
sg6
((NNttp598
sg8
I19446
sg9
F0.682878099305399
sg10
I342
sg11
g12
(g14
S'1\x12\xfe\x0cn\x80@='
tRp599
sba(ibeta_strands
Comp
p600
(dp601
g5
S'F'
sg6
((I-1
I1
ttp602
sg8
I17285
sg9
F0.54568250808416174
sg10
I328
sg11
g12
(g14
S'\x84\x8e|\xfcQ\r\x8d9'
tRp603
sba(ibeta_strands
Comp
p604
(dp605
g5
S'Q'
sg6
((I-1
I1
ttp606
sg8
I4034
sg9
F2.0785497386453593
sg10
I308
sg11
g12
(g14
S'yX:\x1bE\x9d\x907'
tRp607
sba(ibeta_strands
Comp
p608
(dp609
g5
S'F'
sg6
((NNttp610
sg8
I17309
sg9
F0.68196051295723414
sg10
I304
sg11
g12
(g14
S'\xb3\xb0\x84d+(\x88='
tRp611
sba(ibeta_strands
Comp
p612
(dp613
g5
S'G'
sg6
((I-1
I1
ttp614
sg8
I11270
sg9
F0.71283047771786778
sg10
I281
sg11
g12
(g14
S'\xa1L}\x96\xb730>'
tRp615
sba(ibeta_strands
Comp
p616
(dp617
g5
S'H'
sg6
((I-1
I1
ttp618
sg8
I5594
sg9
F1.3682327506353482
sg10
I274
sg11
g12
(g14
S'\x83H\xfe\xf9\x0e\xd6{>'
tRp619
sba(ibeta_strands
Comp
p620
(dp621
g5
S'N'
sg6
((NNttp622
sg8
I6321
sg9
F1.5725208645751867
sg10
I262
sg11
g12
(g14
S'\xac\xfb\x84\x8d\xb8_,='
tRp623
sba(ibeta_strands
Comp
p624
(dp625
g5
S'H'
sg6
((NNttp626
sg8
I5610
sg9
F1.7371950413463897
sg10
I258
sg11
g12
(g14
S'\xab\xa7\xb5m\xdf\xca\xf0;'
tRp627
sba(ibeta_strands
Comp
p628
(dp629
g5
S'D'
sg6
((NNttp630
sg8
I7772
sg9
F1.1739873605782047
sg10
I238
sg11
g12
(g14
S'i\x94;\xfc\x8c\xdc\x88?'
tRp631
sba(ibeta_strands
Comp
p632
(dp633
g5
S'E'
sg6
((NNttp634
sg8
I7210
sg9
F1.2265906662673298
sg10
I231
sg11
g12
(g14
S'\x82\xafC\x0f\xf8{Z?'
tRp635
sba(ibeta_strands
Comp
p636
(dp637
g5
S'D'
sg6
((I-1
I1
ttp638
sg8
I7785
sg9
F0.8230941709103814
sg10
I225
sg11
g12
(g14
S'\xd8\xde\xa0\xb5n\x1ag?'
tRp639
sba(ibeta_strands
Comp
p640
(dp641
g5
S'E'
sg6
((I-1
I1
ttp642
sg8
I7217
sg9
F0.8820967822211726
sg10
I224
sg11
g12
(g14
S"ob\xa2\x14'\x1e\xad?"
tRp643
sba(ibeta_strands
Comp
p644
(dp645
g5
S'N'
sg6
((I-1
I1
ttp646
sg8
I6379
sg9
F0.9080417904936281
sg10
I204
sg11
g12
(g14
S'\xb8\x07\xbdW\xb0H\xc5?'
tRp647
sba(ibeta_strands
Comp
p648
(dp649
g5
S'Q'
sg6
((NNttp650
sg8
I4166
sg9
F1.6015548942019613
sg10
I176
sg11
g12
(g14
S'+\x92\x97\x87\xd9T\xe7='
tRp651
sba(ibeta_strands
Comp
p652
(dp653
g5
S'P'
sg6
((I-1
I1
ttp654
sg8
I4904
sg9
F0.88653931780001294
sg10
I153
sg11
g12
(g14
S'\xab\x9e\xbb\x04\xf9g\xc1?'
tRp655
sba(ibeta_strands
Comp
p656
(dp657
g5
S'W'
sg6
((I-1
I1
ttp658
sg8
I3346
sg9
F1.2009767283664572
sg10
I143
sg11
g12
(g14
S"\x97;'\xd9:\x9e\x9c?"
tRp659
sba(ibeta_strands
Comp
p660
(dp661
g5
S'C'
sg6
((I-1
I1
ttp662
sg8
I5037
sg9
F0.80892042572790912
sg10
I143
sg11
g12
(g14
S'B\xa7\xf2\x99\xfa\xd7\x84?'
tRp663
sba(ibeta_strands
Comp
p664
(dp665
g5
S'M'
sg6
((I-1
I1
ttp666
sg8
I5239
sg9
F0.66682757006117666
sg10
I122
sg11
g12
(g14
S'\x9eJd\xab\x1f\x91\xd2>'
tRp667
sba(ibeta_strands
Comp
p668
(dp669
g5
S'C'
sg6
((NNttp670
sg8
I5064
sg9
F0.88480426977940763
sg10
I116
sg11
g12
(g14
S'(\xca\x04u\xdb\xa2\xc8?'
tRp671
sba(ibeta_strands
Comp
p672
(dp673
g5
S'W'
sg6
((NNttp674
sg8
I3384
sg9
F1.1890696927610416
sg10
I105
sg11
g12
(g14
S'\\\xdb\xd8\xed7=\xb4?'
tRp675
sba(ibeta_strands
Comp
p676
(dp677
g5
S'M'
sg6
((NNttp678
sg8
I5272
sg9
F0.65593858655697024
sg10
I89
sg11
g12
(g14
S'w\xcd\x16\x9cL\x80\n?'
tRp679
sba(ibeta_strands
Comp
p680
(dp681
g5
S'H'
sg6
((NI1
ttp682
sg8
I5810
sg10
I58
sba(ibeta_strands
Comp
p683
(dp684
g5
S'N'
sg6
((NI1
ttp685
sg8
I6531
sg10
I52
sba(ibeta_strands
Comp
p686
(dp687
g5
S'R'
sg6
((NI1
ttp688
sg8
I7410
sg10
I19
sba(ibeta_strands
Comp
p689
(dp690
g5
S'K'
sg6
((NI1
ttp691
sg8
I6564
sg10
I18
sba(ibeta_strands
Comp
p692
(dp693
g5
S'S'
sg6
((NI1
ttp694
sg8
I10918
sg10
I18
sba(ibeta_strands
Comp
p695
(dp696
g5
S'D'
sg6
((NI1
ttp697
sg8
I7995
sg10
I15
sba(ibeta_strands
Comp
p698
(dp699
g5
S'V'
sg6
((NI1
ttp700
sg8
I58950
sg10
I15
sba(ibeta_strands
Comp
p701
(dp702
g5
S'T'
sg6
((NI1
ttp703
sg8
I15982
sg10
I14
sba(ibeta_strands
Comp
p704
(dp705
g5
S'I'
sg6
((NI1
ttp706
sg8
I43237
sg10
I12
sba(ibeta_strands
Comp
p707
(dp708
g5
S'R'
sg6
((I-1
Nttp709
sg8
I7418
sg10
I11
sba(ibeta_strands
Comp
p710
(dp711
g5
S'L'
sg6
((NI1
ttp712
sg8
I39447
sg10
I9
sba(ibeta_strands
Comp
p713
(dp714
g5
S'Q'
sg6
((NI1
ttp715
sg8
I4334
sg10
I8
sba(ibeta_strands
Comp
p716
(dp717
g5
S'K'
sg6
((I-1
Nttp718
sg8
I6574
sg10
I8
sba(ibeta_strands
Comp
p719
(dp720
g5
S'A'
sg6
((NI1
ttp721
sg8
I19780
sg10
I8
sba(ibeta_strands
Comp
p722
(dp723
g5
S'F'
sg6
((NI1
ttp724
sg8
I17607
sg10
I6
sba(ibeta_strands
Comp
p725
(dp726
g5
S'G'
sg6
((NI1
ttp727
sg8
I11546
sg10
I5
sba(ibeta_strands
Comp
p728
(dp729
g5
S'W'
sg6
((I-1
Nttp730
sg8
I3485
sg10
I4
sba(ibeta_strands
Comp
p731
(dp732
g5
S'A'
sg6
((I-1
Nttp733
sg8
I19784
sg10
I4
sba(ibeta_strands
Comp
p734
(dp735
g5
S'L'
sg6
((I-1
Nttp736
sg8
I39452
sg10
I4
sba(ibeta_strands
Comp
p737
(dp738
g5
S'Y'
sg6
((I-1
Nttp739
sg8
I11103
sg10
I3
sba(ibeta_strands
Comp
p740
(dp741
g5
S'T'
sg6
((I-1
Nttp742
sg8
I15993
sg10
I3
sba(ibeta_strands
Comp
p743
(dp744
g5
S'M'
sg6
((NI1
ttp745
sg8
I5359
sg10
I2
sba(ibeta_strands
Comp
p746
(dp747
g5
S'H'
sg6
((I-1
Nttp748
sg8
I5866
sg10
I2
sba(ibeta_strands
Comp
p749
(dp750
g5
S'D'
sg6
((I1
Nttp751
sg8
I8008
sg10
I2
sba(ibeta_strands
Comp
p752
(dp753
g5
S'Y'
sg6
((NI1
ttp754
sg8
I11104
sg10
I2
sba(ibeta_strands
Comp
p755
(dp756
g5
S'F'
sg6
((I-1
Nttp757
sg8
I17611
sg10
I2
sba(ibeta_strands
Comp
p758
(dp759
g5
S'P'
sg6
((NI1
ttp760
sg8
I5056
sg10
I1
sba(ibeta_strands
Comp
p761
(dp762
g5
S'C'
sg6
((NI1
ttp763
sg8
I5179
sg10
I1
sba(ibeta_strands
Comp
p764
(dp765
g5
S'N'
sg6
((I-1
Nttp766
sg8
I6582
sg10
I1
sba(ibeta_strands
Comp
p767
(dp768
g5
S'E'
sg6
((NI1
ttp769
sg8
I7440
sg10
I1
sba(ibeta_strands
Comp
p770
(dp771
g5
S'E'
sg6
((I-1
Nttp772
sg8
I7440
sg10
I1
sba(ibeta_strands
Comp
p773
(dp774
g5
S'I'
sg6
((I-1
Nttp775
sg8
I43248
sg10
I1
sbasS'D'
(lp776
(ibeta_strands
Comp
p777
(dp778
g5
S'V'
sg6
((NNttp779
sg8
I58059
sg9
F0.56396436532685701
sg10
I906
sg11
g12
(g14
S'\x9cx\x9a\x91\xca\xd4\xf5-'
tRp780
sba(ibeta_strands
Comp
p781
(dp782
g5
S'T'
sg6
((NNttp783
sg8
I15166
sg9
F1.9045152986124183
sg10
I830
sg11
g12
(g14
S'\xf8*\xe6\xd8i\x186.'
tRp784
sba(ibeta_strands
Comp
p785
(dp786
g5
S'K'
sg6
((I-1
I1
ttp787
sg8
I5829
sg9
F4.4807860446111434
sg10
I753
sg11
g12
(g14
S'\x00\x00\x00\x00\x00\x00\x00\x00'
tRp788
sba(ibeta_strands
Comp
p789
(dp790
g5
S'L'
sg6
((NNttp791
sg8
I38769
sg9
F0.63908915938410316
sg10
I687
sg11
g12
(g14
S'\x9f\x035d\xcc\x8848'
tRp792
sba(ibeta_strands
Comp
p793
(dp794
g5
S'R'
sg6
((NNttp795
sg8
I6757
sg9
F3.3201421900105013
sg10
I672
sg11
g12
(g14
S'\x8a\xe1R\xf5\x9f\x11\xe6\x0b'
tRp796
sba(ibeta_strands
Comp
p797
(dp798
g5
S'V'
sg6
((I-1
I1
ttp799
sg8
I58293
sg9
F0.44636699933218826
sg10
I672
sg11
g12
(g14
S'\xa1Uf^\x90\xdb\xe3$'
tRp800
sba(ibeta_strands
Comp
p801
(dp802
g5
S'L'
sg6
((I-1
I1
ttp803
sg8
I38825
sg9
F0.62637355395573946
sg10
I631
sg11
g12
(g14
S'wq\xb4cE\xa0-8'
tRp804
sba(ibeta_strands
Comp
p805
(dp806
g5
S'I'
sg6
((NNttp807
sg8
I42623
sg9
F0.53127090408648647
sg10
I626
sg11
g12
(g14
S'\xc8\x8c\x06a\x05\xd8\x9c1'
tRp808
sba(ibeta_strands
Comp
p809
(dp810
g5
S'N'
sg6
((NNttp811
sg8
I5967
sg9
F3.4345878224906095
sg10
I616
sg11
g12
(g14
S'\xe3\xe5\xbd\xd7\xc9\x07Q\r'
tRp812
sba(ibeta_strands
Comp
p813
(dp814
g5
S'T'
sg6
((I-1
I1
ttp815
sg8
I15414
sg9
F1.425045391490384
sg10
I582
sg11
g12
(g14
S'\xa4\x94\xd1;\xf0p <'
tRp816
sba(ibeta_strands
Comp
p817
(dp818
g5
S'S'
sg6
((I-1
I1
ttp819
sg8
I10359
sg9
F2.0664952930570846
sg10
I577
sg11
g12
(g14
S'y\xcb\x8c\xf3\x7fUp0'
tRp820
sba(ibeta_strands
Comp
p821
(dp822
g5
S'S'
sg6
((NNttp823
sg8
I10396
sg9
F1.8123957160352779
sg10
I540
sg11
g12
(g14
S'\xb9E\xb6\xcf\xdd\xaa?6'
tRp824
sba(ibeta_strands
Comp
p825
(dp826
g5
S'G'
sg6
((I-1
I1
ttp827
sg8
I11049
sg9
F1.7021633766560207
sg10
I502
sg11
g12
(g14
S'\xfb\x11k{\xcaw\xb68'
tRp828
sba(ibeta_strands
Comp
p829
(dp830
g5
S'A'
sg6
((I-1
I1
ttp831
sg8
I19305
sg9
F0.95600978601190911
sg10
I483
sg11
g12
(g14
S'\xe8\n\x0f\xfeR\xdf\xd3?'
tRp832
sba(ibeta_strands
Comp
p833
(dp834
g5
S'I'
sg6
((I-1
I1
ttp835
sg8
I42770
sg9
F0.43378701934558789
sg10
I479
sg11
g12
(g14
S')\x97;%\xe4\x95p,'
tRp836
sba(ibeta_strands
Comp
p837
(dp838
g5
S'R'
sg6
((I-1
I1
ttp839
sg8
I6962
sg9
F2.4620883378514415
sg10
I467
sg11
g12
(g14
S'\xb2\xe8\xbe\x1f\xa5Cu,'
tRp840
sba(ibeta_strands
Comp
p841
(dp842
g5
S'A'
sg6
((NNttp843
sg8
I19353
sg9
F0.80687289008811747
sg10
I435
sg11
g12
(g14
S'\xa0\xbfE\xc3\xc6w\xc7>'
tRp844
sba(ibeta_strands
Comp
p845
(dp846
g5
S'F'
sg6
((NNttp847
sg8
I17224
sg9
F0.81065120935173507
sg10
I389
sg11
g12
(g14
S'\xab\x8bF\xce"\xd8\xf0>'
tRp848
sba(ibeta_strands
Comp
p849
(dp850
g5
S'D'
sg6
((NNttp851
sg8
I7637
sg9
F1.7092047238080987
sg10
I373
sg11
g12
(g14
S'\xe4\xaa\xbfq\xae-\x81:'
tRp852
sba(ibeta_strands
Comp
p853
(dp854
g5
S'Y'
sg6
((NNttp855
sg8
I10761
sg9
F1.1401951639327124
sg10
I345
sg11
g12
(g14
S'H\xb5\xabe\xb1\x17\x8a?'
tRp856
sba(ibeta_strands
Comp
p857
(dp858
g5
S'D'
sg6
((I-1
I1
ttp859
sg8
I7672
sg9
F1.6527276505336332
sg10
I338
sg11
g12
(g14
S'|\x997\xef\xf6\xd8\x97;'
tRp860
sba(ibeta_strands
Comp
p861
(dp862
g5
S'N'
sg6
((I-1
I1
ttp863
sg8
I6273
sg9
F1.8443992950463515
sg10
I310
sg11
g12
(g14
S'L\x81\xf7\xbff\xa3\x10:'
tRp864
sba(ibeta_strands
Comp
p865
(dp866
g5
S'G'
sg6
((NNttp867
sg8
I11256
sg9
F0.93738975099409871
sg10
I295
sg11
g12
(g14
S'\xd8x\x92\xfe\xca\xd1\xd0?'
tRp868
sba(ibeta_strands
Comp
p869
(dp870
g5
S'K'
sg6
((NNttp871
sg8
I6301
sg9
F1.5669899483743164
sg10
I281
sg11
g12
(g14
S'\x0cs\xd8\xf9\xb2\x14\x05='
tRp872
sba(ibeta_strands
Comp
p873
(dp874
g5
S'H'
sg6
((NNttp875
sg8
I5594
sg9
F1.713871379249013
sg10
I274
sg11
g12
(g14
S'9\xb0\x1b\xac\xbf\\\xe4;'
tRp876
sba(ibeta_strands
Comp
p877
(dp878
g5
S'H'
sg6
((I-1
I1
ttp879
sg8
I5596
sg9
F1.8154985553834444
sg10
I272
sg11
g12
(g14
S'SU&\xb1a9\t;'
tRp880
sba(ibeta_strands
Comp
p881
(dp882
g5
S'E'
sg6
((I-1
I1
ttp883
sg8
I7199
sg9
F1.2737997820914686
sg10
I242
sg11
g12
(g14
S"\xc1'q\xafqk ?"
tRp884
sba(ibeta_strands
Comp
p885
(dp886
g5
S'E'
sg6
((NNttp887
sg8
I7211
sg9
F1.1345256005587694
sg10
I230
sg11
g12
(g14
S'L\x1d\xbd0\x8ca\xab?'
tRp888
sba(ibeta_strands
Comp
p889
(dp890
g5
S'Y'
sg6
((I-1
I1
ttp891
sg8
I10876
sg9
F0.81112404472930366
sg10
I230
sg11
g12
(g14
S'\xaec\xa4z\xf7\x9cR?'
tRp892
sba(ibeta_strands
Comp
p893
(dp894
g5
S'F'
sg6
((I-1
I1
ttp895
sg8
I17396
sg9
F0.48255131956526953
sg10
I217
sg11
g12
(g14
S'\x9c\xcb\xfe\xc4\xbc\xc6\xc99'
tRp896
sba(ibeta_strands
Comp
p897
(dp898
g5
S'Q'
sg6
((I-1
I1
ttp899
sg8
I4150
sg9
F1.7319227555190155
sg10
I192
sg11
g12
(g14
S'\xfam \xd6_Y\xf8<'
tRp900
sba(ibeta_strands
Comp
p901
(dp902
g5
S'P'
sg6
((I-1
I1
ttp903
sg8
I4881
sg9
F1.3631285783583682
sg10
I176
sg11
g12
(g14
S'\xf8\xb7\xd7\x08\x90\xb4\xff>'
tRp904
sba(ibeta_strands
Comp
p905
(dp906
g5
S'Q'
sg6
((NNttp907
sg8
I4186
sg9
F1.3187198636434996
sg10
I156
sg11
g12
(g14
S"'\xd2x\x8bt.??"
tRp908
sba(ibeta_strands
Comp
p909
(dp910
g5
S'C'
sg6
((I-1
I1
ttp911
sg8
I5030
sg9
F1.1341711818990659
sg10
I150
sg11
g12
(g14
S'\xa6\x16(p?\x0b\xc0?'
tRp912
sba(ibeta_strands
Comp
p913
(dp914
g5
S'M'
sg6
((NNttp915
sg8
I5211
sg9
F1.026982919364225
sg10
I150
sg11
g12
(g14
S'\xff\xf1\x13\x875\xaa\xe8?'
tRp916
sba(ibeta_strands
Comp
p917
(dp918
g5
S'C'
sg6
((NNttp919
sg8
I5039
sg9
F0.99909577314071685
sg10
I141
sg11
g12
(g14
S'\xb2\x1e](q.\xef?'
tRp920
sba(ibeta_strands
Comp
p921
(dp922
g5
S'M'
sg6
((I-1
I1
ttp923
sg8
I5253
sg9
F0.78903279985278041
sg10
I108
sg11
g12
(g14
S'G\x9fa\x8c.\xe9\x8a?'
tRp924
sba(ibeta_strands
Comp
p925
(dp926
g5
S'W'
sg6
((NNttp927
sg8
I3425
sg9
F0.67328164242962274
sg10
I64
sg11
g12
(g14
S'NA\xd9\x9f\xbc\xc5V?'
tRp928
sba(ibeta_strands
Comp
p929
(dp930
g5
S'W'
sg6
((I-1
I1
ttp931
sg8
I3432
sg9
F0.639868889208977
sg10
I57
sg11
g12
(g14
S'\xd9\x91d\xc9\x1fHE?'
tRp932
sba(ibeta_strands
Comp
p933
(dp934
g5
S'G'
sg6
((NI1
ttp935
sg8
I11504
sg10
I47
sba(ibeta_strands
Comp
p936
(dp937
g5
S'V'
sg6
((NI1
ttp938
sg8
I58930
sg10
I35
sba(ibeta_strands
Comp
p939
(dp940
g5
S'A'
sg6
((NI1
ttp941
sg8
I19764
sg10
I24
sba(ibeta_strands
Comp
p942
(dp943
g5
S'I'
sg6
((NI1
ttp944
sg8
I43237
sg10
I12
sba(ibeta_strands
Comp
p945
(dp946
g5
S'S'
sg6
((NI1
ttp947
sg8
I10925
sg10
I11
sba(ibeta_strands
Comp
p948
(dp949
g5
S'L'
sg6
((NI1
ttp950
sg8
I39445
sg10
I11
sba(ibeta_strands
Comp
p951
(dp952
g5
S'E'
sg6
((NI1
ttp953
sg8
I7433
sg10
I8
sba(ibeta_strands
Comp
p954
(dp955
g5
S'K'
sg6
((NI1
ttp956
sg8
I6575
sg10
I7
sba(ibeta_strands
Comp
p957
(dp958
g5
S'N'
sg6
((NI1
ttp959
sg8
I6576
sg10
I7
sba(ibeta_strands
Comp
p960
(dp961
g5
S'T'
sg6
((NI1
ttp962
sg8
I15989
sg10
I7
sba(ibeta_strands
Comp
p963
(dp964
g5
S'R'
sg6
((NI1
ttp965
sg8
I7423
sg10
I6
sba(ibeta_strands
Comp
p966
(dp967
g5
S'F'
sg6
((NI1
ttp968
sg8
I17608
sg10
I5
sba(ibeta_strands
Comp
p969
(dp970
g5
S'Q'
sg6
((NI1
ttp971
sg8
I4338
sg10
I4
sba(ibeta_strands
Comp
p972
(dp973
g5
S'N'
sg6
((I-1
Nttp974
sg8
I6579
sg10
I4
sba(ibeta_strands
Comp
p975
(dp976
g5
S'C'
sg6
((NI1
ttp977
sg8
I5177
sg10
I3
sba(ibeta_strands
Comp
p978
(dp979
g5
S'H'
sg6
((NI1
ttp980
sg8
I5865
sg10
I3
sba(ibeta_strands
Comp
p981
(dp982
g5
S'H'
sg6
((I-1
Nttp983
sg8
I5865
sg10
I3
sba(ibeta_strands
Comp
p984
(dp985
g5
S'R'
sg6
((I-1
Nttp986
sg8
I7426
sg10
I3
sba(ibeta_strands
Comp
p987
(dp988
g5
S'Y'
sg6
((NI1
ttp989
sg8
I11103
sg10
I3
sba(ibeta_strands
Comp
p990
(dp991
g5
S'K'
sg6
((I-1
Nttp992
sg8
I6580
sg10
I2
sba(ibeta_strands
Comp
p993
(dp994
g5
S'S'
sg6
((I-1
Nttp995
sg8
I10934
sg10
I2
sba(ibeta_strands
Comp
p996
(dp997
g5
S'G'
sg6
((I-1
Nttp998
sg8
I11549
sg10
I2
sba(ibeta_strands
Comp
p999
(dp1000
g5
S'F'
sg6
((I-1
Nttp1001
sg8
I17611
sg10
I2
sba(ibeta_strands
Comp
p1002
(dp1003
g5
S'K'
sg6
((I1
Nttp1004
sg8
I6581
sg10
I1
sba(ibeta_strands
Comp
p1005
(dp1006
g5
S'D'
sg6
((I-1
Nttp1007
sg8
I8009
sg10
I1
sba(ibeta_strands
Comp
p1008
(dp1009
g5
S'S'
sg6
((I-1
I-1
ttp1010
sg8
I10935
sg10
I1
sbasS'G'
(lp1011
(ibeta_strands
Comp
p1012
(dp1013
g5
S'V'
sg6
((I-1
I1
ttp1014
sg8
I56896
sg9
F0.81920857449550455
sg10
I2069
sg11
g12
(g14
S'\xaa\xf6q\xf3\x9d\xee\xd5:'
tRp1015
sba(ibeta_strands
Comp
p1016
(dp1017
g5
S'V'
sg6
((NNttp1018
sg8
I56922
sg9
F0.88187039785798582
sg10
I2043
sg11
g12
(g14
S'\xcf\xe9\x85\x1c\xae\xe3\xd9='
tRp1019
sba(ibeta_strands
Comp
p1020
(dp1021
g5
S'L'
sg6
((I-1
I1
ttp1022
sg8
I37472
sg9
F1.1739697715505648
sg10
I1984
sg11
g12
(g14
S'\xb0\x85h\xfa\x93\xf7\xf2<'
tRp1023
sba(ibeta_strands
Comp
p1024
(dp1025
g5
S'I'
sg6
((I-1
I1
ttp1026
sg8
I41410
sg9
F0.99273643298255465
sg10
I1839
sg11
g12
(g14
S'\x8b\xc7\x1a\x16q\xa4\xe7?'
tRp1027
sba(ibeta_strands
Comp
p1028
(dp1029
g5
S'L'
sg6
((NNttp1030
sg8
I38108
sg9
F0.86957598668705938
sg10
I1348
sg11
g12
(g14
S'\\La^\x1a\xebT>'
tRp1031
sba(ibeta_strands
Comp
p1032
(dp1033
g5
S'I'
sg6
((NNttp1034
sg8
I42038
sg9
F0.71268689645535976
sg10
I1211
sg11
g12
(g14
S'\xc7.\xc2\xf7uw\xfa7'
tRp1035
sba(ibeta_strands
Comp
p1036
(dp1037
g5
S'F'
sg6
((NNttp1038
sg8
I16624
sg9
F1.4292021387327813
sg10
I989
sg11
g12
(g14
S'Qra.\x06\xabX9'
tRp1039
sba(ibeta_strands
Comp
p1040
(dp1041
g5
S'F'
sg6
((I-1
I1
ttp1042
sg8
I16778
sg9
F1.1068313252388191
sg10
I835
sg11
g12
(g14
S'\x81#{\xe2i>a?'
tRp1043
sba(ibeta_strands
Comp
p1044
(dp1045
g5
S'A'
sg6
((I-1
I1
ttp1046
sg8
I18958
sg9
F0.97927460476790484
sg10
I830
sg11
g12
(g14
S'\nW\x02zv\x1d\xe1?'
tRp1047
sba(ibeta_strands
Comp
p1048
(dp1049
g5
S'A'
sg6
((NNttp1050
sg8
I18980
sg9
F1.0392981638613175
sg10
I808
sg11
g12
(g14
S'>\xc0\x159\xb6O\xd0?'
tRp1051
sba(ibeta_strands
Comp
p1052
(dp1053
g5
S'G'
sg6
((NNttp1054
sg8
I10933
sg9
F1.3617569239954181
sg10
I618
sg11
g12
(g14
S'\xcc%\x0e\xc1\xa9\xe8\xd6<'
tRp1055
sba(ibeta_strands
Comp
p1056
(dp1057
g5
S'Y'
sg6
((NNttp1058
sg8
I10490
sg9
F1.4117368268686774
sg10
I616
sg11
g12
(g14
S'\xb9\x98\xf2\xe7\xf7 !<'
tRp1059
sba(ibeta_strands
Comp
p1060
(dp1061
g5
S'T'
sg6
((I-1
I1
ttp1062
sg8
I15406
sg9
F0.86113039319294482
sg10
I590
sg11
g12
(g14
S'\x1f\x8b{\xa2\xb6\xd5"?'
tRp1063
sba(ibeta_strands
Comp
p1064
(dp1065
g5
S'T'
sg6
((NNttp1066
sg8
I15425
sg9
F0.90856376764089741
sg10
I571
sg11
g12
(g14
S'\x99\x95W\\\xca\x88\x91?'
tRp1067
sba(ibeta_strands
Comp
p1068
(dp1069
g5
S'G'
sg6
((I-1
I1
ttp1070
sg8
I10994
sg9
F1.1258069175343965
sg10
I557
sg11
g12
(g14
S'\x95\xc8@\xb1\xc1\x08o?'
tRp1071
sba(ibeta_strands
Comp
p1072
(dp1073
g5
S'D'
sg6
((NNttp1074
sg8
I7480
sg9
F1.6841239594131263
sg10
I530
sg11
g12
(g14
S'_\xef\xf0\t\x03\xf9\x9c8'
tRp1075
sba(ibeta_strands
Comp
p1076
(dp1077
g5
S'S'
sg6
((I-1
I1
ttp1078
sg8
I10428
sg9
F1.0845098785713623
sg10
I508
sg11
g12
(g14
S'\xba\xaeO\xf2\xc5\xaa\xae?'
tRp1079
sba(ibeta_strands
Comp
p1080
(dp1081
g5
S'Y'
sg6
((I-1
I1
ttp1082
sg8
I10600
sg9
F1.0637048740449135
sg10
I506
sg11
g12
(g14
S'\x95\x8f\xdd\x85g\xc3\xc3?'
tRp1083
sba(ibeta_strands
Comp
p1084
(dp1085
g5
S'S'
sg6
((NNttp1086
sg8
I10483
sg9
F1.0543150388623539
sg10
I453
sg11
g12
(g14
S'\x00\xc2\xeb\x95{ \xd0?'
tRp1087
sba(ibeta_strands
Comp
p1088
(dp1089
g5
S'E'
sg6
((I-1
I1
ttp1090
sg8
I7034
sg9
F1.277001496562185
sg10
I407
sg11
g12
(g14
S'\x95\x1au\x08\xa0\xd8\x97>'
tRp1091
sba(ibeta_strands
Comp
p1092
(dp1093
g5
S'M'
sg6
((NNttp1094
sg8
I5023
sg9
F1.6047286042930282
sg10
I338
sg11
g12
(g14
S'w\xadR\xfe\x04r\x10<'
tRp1095
sba(ibeta_strands
Comp
p1096
(dp1097
g5
S'R'
sg6
((NNttp1098
sg8
I7103
sg9
F1.1169093913594914
sg10
I326
sg11
g12
(g14
S'M\xf8\xad\xaf\xdb}\xa5?'
tRp1099
sba(ibeta_strands
Comp
p1100
(dp1101
g5
S'K'
sg6
((NNttp1102
sg8
I6266
sg9
F1.221968204052255
sg10
I316
sg11
g12
(g14
S'\xfbi\x00\x85\xac\x1c1?'
tRp1103
sba(ibeta_strands
Comp
p1104
(dp1105
g5
S'M'
sg6
((I-1
I1
ttp1106
sg8
I5065
sg9
F1.289063185080018
sg10
I296
sg11
g12
(g14
S'\x85\x88B`-\x97\xde>'
tRp1107
sba(ibeta_strands
Comp
p1108
(dp1109
g5
S'D'
sg6
((I-1
I1
ttp1110
sg8
I7714
sg9
F0.86275502312284347
sg10
I296
sg11
g12
(g14
S'\xbb\xc23\xf3_\xb6\x82?'
tRp1111
sba(ibeta_strands
Comp
p1112
(dp1113
g5
S'E'
sg6
((NNttp1114
sg8
I7160
sg9
F0.96118219276843486
sg10
I281
sg11
g12
(g14
S'\xb47\xdc@\xa0b\xe0?'
tRp1115
sba(ibeta_strands
Comp
p1116
(dp1117
g5
S'N'
sg6
((I-1
I1
ttp1118
sg8
I6304
sg9
F0.98948371220542441
sg10
I279
sg11
g12
(g14
S'\x02\xf0\x14\x8c\xb0#\xec?'
tRp1119
sba(ibeta_strands
Comp
p1120
(dp1121
g5
S'H'
sg6
((NNttp1122
sg8
I5600
sg9
F1.1624529656187605
sg10
I268
sg11
g12
(g14
S'aQU\x9b1\xdb\x88?'
tRp1123
sba(ibeta_strands
Comp
p1124
(dp1125
g5
S'P'
sg6
((I-1
I1
ttp1126
sg8
I4790
sg9
F1.2326693834223177
sg10
I267
sg11
g12
(g14
S'\xc8\x9c\x9en\xdb\xf8>?'
tRp1127
sba(ibeta_strands
Comp
p1128
(dp1129
g5
S'C'
sg6
((NNttp1130
sg8
I4940
sg9
F1.179267101178624
sg10
I240
sg11
g12
(g14
S'\x91\x03g`4K\x83?'
tRp1131
sba(ibeta_strands
Comp
p1132
(dp1133
g5
S'Q'
sg6
((NNttp1134
sg8
I4105
sg9
F1.3892782218571986
sg10
I237
sg11
g12
(g14
S'\xd2\xddV\xcbw\xba\x8c>'
tRp1135
sba(ibeta_strands
Comp
p1136
(dp1137
g5
S'W'
sg6
((I-1
I1
ttp1138
sg8
I3267
sg9
F1.4855261683607
sg10
I222
sg11
g12
(g14
S'\xd1\xe5\x00\x0c=1\x17>'
tRp1139
sba(ibeta_strands
Comp
p1140
(dp1141
g5
S'R'
sg6
((I-1
I1
ttp1142
sg8
I7209
sg9
F0.69138606817833814
sg10
I220
sg11
g12
(g14
S'N\xf5\x0f\xaa\x87yN>'
tRp1143
sba(ibeta_strands
Comp
p1144
(dp1145
g5
S'N'
sg6
((NNttp1146
sg8
I6364
sg9
F0.84674172421328597
sg10
I219
sg11
g12
(g14
S'^t\xf9\xf9\x9a\xa4\x88?'
tRp1147
sba(ibeta_strands
Comp
p1148
(dp1149
g5
S'Q'
sg6
((I-1
I1
ttp1150
sg8
I4126
sg9
F1.1614278440049881
sg10
I216
sg11
g12
(g14
S'\x10\xc9\xba\xbc\x81h\x9a?'
tRp1151
sba(ibeta_strands
Comp
p1152
(dp1153
g5
S'C'
sg6
((I-1
I1
ttp1154
sg8
I4964
sg9
F0.9735366213647989
sg10
I216
sg11
g12
(g14
S'r9\x1eT\xf5\xb7\xe6?'
tRp1155
sba(ibeta_strands
Comp
p1156
(dp1157
g5
S'H'
sg6
((I-1
I1
ttp1158
sg8
I5669
sg9
F0.7917558351915458
sg10
I199
sg11
g12
(g14
S'\xa0\xc2\x07\xd8\xb0\x0fH?'
tRp1159
sba(ibeta_strands
Comp
p1160
(dp1161
g5
S'I'
sg6
((NI1
ttp1162
sg8
I43091
sg10
I158
sba(ibeta_strands
Comp
p1163
(dp1164
g5
S'K'
sg6
((I-1
I1
ttp1165
sg8
I6440
sg9
F0.50368471055396002
sg10
I142
sg11
g12
(g14
S'\xef\x1c\xef\x0e\xdf\xf5d<'
tRp1166
sba(ibeta_strands
Comp
p1167
(dp1168
g5
S'W'
sg6
((NNttp1169
sg8
I3350
sg9
F1.0140153556303535
sg10
I139
sg11
g12
(g14
S'<\xa9\x94\x81\xc6\xd3\xec?'
tRp1170
sba(ibeta_strands
Comp
p1171
(dp1172
g5
S'V'
sg6
((NI1
ttp1173
sg8
I58826
sg10
I139
sba(ibeta_strands
Comp
p1174
(dp1175
g5
S'L'
sg6
((NI1
ttp1176
sg8
I39330
sg10
I126
sba(ibeta_strands
Comp
p1177
(dp1178
g5
S'Y'
sg6
((NI1
ttp1179
sg8
I11018
sg10
I88
sba(ibeta_strands
Comp
p1180
(dp1181
g5
S'F'
sg6
((NI1
ttp1182
sg8
I17529
sg10
I84
sba(ibeta_strands
Comp
p1183
(dp1184
g5
S'G'
sg6
((NI1
ttp1185
sg8
I11482
sg10
I69
sba(ibeta_strands
Comp
p1186
(dp1187
g5
S'A'
sg6
((NI1
ttp1188
sg8
I19731
sg10
I57
sba(ibeta_strands
Comp
p1189
(dp1190
g5
S'M'
sg6
((NI1
ttp1191
sg8
I5325
sg10
I36
sba(ibeta_strands
Comp
p1192
(dp1193
g5
S'S'
sg6
((NI1
ttp1194
sg8
I10909
sg10
I27
sba(ibeta_strands
Comp
p1195
(dp1196
g5
S'T'
sg6
((NI1
ttp1197
sg8
I15969
sg10
I27
sba(ibeta_strands
Comp
p1198
(dp1199
g5
S'W'
sg6
((NI1
ttp1200
sg8
I3465
sg10
I24
sba(ibeta_strands
Comp
p1201
(dp1202
g5
S'P'
sg6
((NI1
ttp1203
sg8
I5034
sg10
I23
sba(ibeta_strands
Comp
p1204
(dp1205
g5
S'D'
sg6
((NI1
ttp1206
sg8
I7990
sg10
I20
sba(ibeta_strands
Comp
p1207
(dp1208
g5
S'H'
sg6
((NI1
ttp1209
sg8
I5849
sg10
I19
sba(ibeta_strands
Comp
p1210
(dp1211
g5
S'N'
sg6
((NI1
ttp1212
sg8
I6565
sg10
I18
sba(ibeta_strands
Comp
p1213
(dp1214
g5
S'K'
sg6
((NI1
ttp1215
sg8
I6569
sg10
I13
sba(ibeta_strands
Comp
p1216
(dp1217
g5
S'R'
sg6
((NI1
ttp1218
sg8
I7416
sg10
I13
sba(ibeta_strands
Comp
p1219
(dp1220
g5
S'C'
sg6
((NI1
ttp1221
sg8
I5171
sg10
I9
sba(ibeta_strands
Comp
p1222
(dp1223
g5
S'E'
sg6
((NI1
ttp1224
sg8
I7432
sg10
I9
sba(ibeta_strands
Comp
p1225
(dp1226
g5
S'S'
sg6
((I-1
Nttp1227
sg8
I10928
sg10
I8
sba(ibeta_strands
Comp
p1228
(dp1229
g5
S'A'
sg6
((I-1
Nttp1230
sg8
I19780
sg10
I8
sba(ibeta_strands
Comp
p1231
(dp1232
g5
S'Q'
sg6
((NI1
ttp1233
sg8
I4338
sg10
I4
sba(ibeta_strands
Comp
p1234
(dp1235
g5
S'Q'
sg6
((I-1
Nttp1236
sg8
I4339
sg10
I3
sba(ibeta_strands
Comp
p1237
(dp1238
g5
S'E'
sg6
((I-1
Nttp1239
sg8
I7438
sg10
I3
sba(ibeta_strands
Comp
p1240
(dp1241
g5
S'V'
sg6
((I-1
Nttp1242
sg8
I58962
sg10
I3
sba(ibeta_strands
Comp
p1243
(dp1244
g5
S'K'
sg6
((I-1
Nttp1245
sg8
I6580
sg10
I2
sba(ibeta_strands
Comp
p1246
(dp1247
g5
S'T'
sg6
((I-1
Nttp1248
sg8
I15994
sg10
I2
sba(ibeta_strands
Comp
p1249
(dp1250
g5
S'T'
sg6
((I1
I1
ttp1251
sg8
I15994
sg10
I2
sba(ibeta_strands
Comp
p1252
(dp1253
g5
S'W'
sg6
((I-1
Nttp1254
sg8
I3488
sg10
I1
sba(ibeta_strands
Comp
p1255
(dp1256
g5
S'R'
sg6
((I-1
Nttp1257
sg8
I7428
sg10
I1
sba(ibeta_strands
Comp
p1258
(dp1259
g5
S'E'
sg6
((I1
Nttp1260
sg8
I7440
sg10
I1
sba(ibeta_strands
Comp
p1261
(dp1262
g5
S'Y'
sg6
((I-1
Nttp1263
sg8
I11105
sg10
I1
sba(ibeta_strands
Comp
p1264
(dp1265
g5
S'Y'
sg6
((I1
I1
ttp1266
sg8
I11105
sg10
I1
sba(ibeta_strands
Comp
p1267
(dp1268
g5
S'G'
sg6
((I-1
Nttp1269
sg8
I11550
sg10
I1
sba(ibeta_strands
Comp
p1270
(dp1271
g5
S'G'
sg6
((I1
I1
ttp1272
sg8
I11550
sg10
I1
sba(ibeta_strands
Comp
p1273
(dp1274
g5
S'L'
sg6
((I-1
Nttp1275
sg8
I39455
sg10
I1
sba(ibeta_strands
Comp
p1276
(dp1277
g5
S'L'
sg6
((NI-1
ttp1278
sg8
I39455
sg10
I1
sba(ibeta_strands
Comp
p1279
(dp1280
g5
S'L'
sg6
((I0
Nttp1281
sg8
I39455
sg10
I1
sba(ibeta_strands
Comp
p1282
(dp1283
g5
S'I'
sg6
((I1
I1
ttp1284
sg8
I43248
sg10
I1
sba(ibeta_strands
Comp
p1285
(dp1286
g5
S'V'
sg6
((I1
I1
ttp1287
sg8
I58964
sg10
I1
sbasS'F'
(lp1288
(ibeta_strands
Comp
p1289
(dp1290
g5
S'V'
sg6
((NNttp1291
sg8
I55110
sg9
F1.0913072218357942
sg10
I3855
sg11
g12
(g14
S'EI\r\x96\xe7,\xfc='
tRp1292
sba(ibeta_strands
Comp
p1293
(dp1294
g5
S'V'
sg6
((I-1
I1
ttp1295
sg8
I55797
sg9
F0.95496004056552708
sg10
I3168
sg11
g12
(g14
S'\xc1@\xe4#\xd3\x9bg?'
tRp1296
sba(ibeta_strands
Comp
p1297
(dp1298
g5
S'I'
sg6
((NNttp1299
sg8
I40248
sg9
F1.1582621775648945
sg10
I3001
sg11
g12
(g14
S'(\x19$\xfd\xe5\xff\x12<'
tRp1300
sba(ibeta_strands
Comp
p1301
(dp1302
g5
S'I'
sg6
((I-1
I1
ttp1303
sg8
I40833
sg9
F0.99292212718690676
sg10
I2416
sg11
g12
(g14
S'\xca\xb2\xea\x9f\xf2\x91\xe6?'
tRp1304
sba(ibeta_strands
Comp
p1305
(dp1306
g5
S'L'
sg6
((I-1
I1
ttp1307
sg8
I37272
sg9
F0.98386136879498953
sg10
I2184
sg11
g12
(g14
S'\xfe\xd3\xc2\x8aa\x04\xda?'
tRp1308
sba(ibeta_strands
Comp
p1309
(dp1310
g5
S'L'
sg6
((NNttp1311
sg8
I37435
sg9
F0.85500805907252853
sg10
I2021
sg11
g12
(g14
S'K\xa1|\xe0~h\xfb<'
tRp1312
sba(ibeta_strands
Comp
p1313
(dp1314
g5
S'F'
sg6
((I-1
I1
ttp1315
sg8
I16037
sg9
F1.5904396978949522
sg10
I1576
sg11
g12
(g14
S'\xba\xc9\x9c\xf3`\x0c\x1c.'
tRp1316
sba(ibeta_strands
Comp
p1317
(dp1318
g5
S'F'
sg6
((NNttp1319
sg8
I16040
sg9
F1.4907758104597804
sg10
I1573
sg11
g12
(g14
S'\x03\xde\x00\xe1sm\xb72'
tRp1320
sba(ibeta_strands
Comp
p1321
(dp1322
g5
S'A'
sg6
((I-1
I1
ttp1323
sg8
I18637
sg9
F1.0338743271724822
sg10
I1151
sg11
g12
(g14
S'\xe8\x84\xe4\xb3\x8b\x00\xce?'
tRp1324
sba(ibeta_strands
Comp
p1325
(dp1326
g5
S'A'
sg6
((NNttp1327
sg8
I18648
sg9
F0.96165634037954428
sg10
I1140
sg11
g12
(g14
S'd\x89L)\xf3\xe3\xc4?'
tRp1328
sba(ibeta_strands
Comp
p1329
(dp1330
g5
S'G'
sg6
((I-1
I1
ttp1331
sg8
I10574
sg9
F1.5033818719107015
sg10
I977
sg11
g12
(g14
S'\xaa\xcf\x8ds\x86\x0e\x837'
tRp1332
sba(ibeta_strands
Comp
p1333
(dp1334
g5
S'G'
sg6
((NNttp1335
sg8
I10646
sg9
F1.3078138883247392
sg10
I905
sg11
g12
(g14
S'\x14E\xfbU{\xcau<'
tRp1336
sba(ibeta_strands
Comp
p1337
(dp1338
g5
S'Y'
sg6
((NNttp1339
sg8
I10278
sg9
F1.2444848595606917
sg10
I828
sg11
g12
(g14
S'p\xe9\x1c"\x0e\x1b\xc5='
tRp1340
sba(ibeta_strands
Comp
p1341
(dp1342
g5
S'T'
sg6
((NNttp1343
sg8
I15293
sg9
F0.73360262935205223
sg10
I703
sg11
g12
(g14
S'8\x0b\x8c\xa9\xd2\x98G<'
tRp1344
sba(ibeta_strands
Comp
p1345
(dp1346
g5
S'Y'
sg6
((I-1
I1
ttp1347
sg8
I10454
sg9
F1.0434803035631899
sg10
I652
sg11
g12
(g14
S'P1\x00\xe6\x0b\xd2\xd0?'
tRp1348
sba(ibeta_strands
Comp
p1349
(dp1350
g5
S'T'
sg6
((I-1
I1
ttp1351
sg8
I15365
sg9
F0.70115218707056259
sg10
I631
sg11
g12
(g14
S'\xcbuF\xe5\xbc&\xa9;'
tRp1352
sba(ibeta_strands
Comp
p1353
(dp1354
g5
S'S'
sg6
((I-1
I1
ttp1355
sg8
I10387
sg9
F0.89229440980703967
sg10
I549
sg11
g12
(g14
S'\xf7\xfa\xfdF7 v?'
tRp1356
sba(ibeta_strands
Comp
p1357
(dp1358
g5
S'S'
sg6
((NNttp1359
sg8
I10465
sg9
F0.71891799637088893
sg10
I471
sg11
g12
(g14
S'\r\xef\x03Vk\x1d*='
tRp1360
sba(ibeta_strands
Comp
p1361
(dp1362
g5
S'C'
sg6
((NNttp1363
sg8
I4741
sg9
F1.4146588153230972
sg10
I439
sg11
g12
(g14
S'e\x90~\xa4q\xc5$='
tRp1364
sba(ibeta_strands
Comp
p1365
(dp1366
g5
S'D'
sg6
((I-1
I1
ttp1367
sg8
I7621
sg9
F0.86319996587548053
sg10
I389
sg11
g12
(g14
S'\xfc1\xbeV\xbe\xa1e?'
tRp1368
sba(ibeta_strands
Comp
p1369
(dp1370
g5
S'M'
sg6
((I-1
I1
ttp1371
sg8
I4982
sg9
F1.2565730237783808
sg10
I379
sg11
g12
(g14
S"\x06l\\\xb9'\xbf\xd1>"
tRp1372
sba(ibeta_strands
Comp
p1373
(dp1374
g5
S'M'
sg6
((NNttp1375
sg8
I5004
sg9
F1.1115765047507928
sg10
I357
sg11
g12
(g14
S'\xbc\xcat\xb4\x01\x8d\xa4?'
tRp1376
sba(ibeta_strands
Comp
p1377
(dp1378
g5
S'H'
sg6
((NNttp1379
sg8
I5512
sg9
F1.0126907485411851
sg10
I356
sg11
g12
(g14
S'\xe4\x90\x05O\xd3l\xea?'
tRp1380
sba(ibeta_strands
Comp
p1381
(dp1382
g5
S'K'
sg6
((NNttp1383
sg8
I6229
sg9
F0.89522824731870265
sg10
I353
sg11
g12
(g14
S'\xe5L\x9b\xfe}g\xa0?'
tRp1384
sba(ibeta_strands
Comp
p1385
(dp1386
g5
S'R'
sg6
((NNttp1387
sg8
I7082
sg9
F0.77967941131723661
sg10
I347
sg11
g12
(g14
S'9\xea\xf1\x9e<\xd2\xb6>'
tRp1388
sba(ibeta_strands
Comp
p1389
(dp1390
g5
S'C'
sg6
((I-1
I1
ttp1391
sg8
I4841
sg9
F1.1632264470519504
sg10
I339
sg11
g12
(g14
S'\xad \x0b\x0b\x97%q?'
tRp1392
sba(ibeta_strands
Comp
p1393
(dp1394
g5
S'E'
sg6
((NNttp1395
sg8
I7110
sg9
F0.74252937430540944
sg10
I331
sg11
g12
(g14
S'\xcf\xcbP54\xd0P>'
tRp1396
sba(ibeta_strands
Comp
p1397
(dp1398
g5
S'E'
sg6
((I-1
I1
ttp1399
sg8
I7138
sg9
F0.72377845846754285
sg10
I303
sg11
g12
(g14
S'I\x11/\xa5&\xf32>'
tRp1400
sba(ibeta_strands
Comp
p1401
(dp1402
g5
S'H'
sg6
((I-1
I1
ttp1403
sg8
I5566
sg9
F0.91476842788655699
sg10
I302
sg11
g12
(g14
S'Pv\x9b\n\xfa\x1a\xbd?'
tRp1404
sba(ibeta_strands
Comp
p1405
(dp1406
g5
S'N'
sg6
((I-1
I1
ttp1407
sg8
I6286
sg9
F0.80191238975314694
sg10
I297
sg11
g12
(g14
S'\xf3\x08\x04@\x15*\x15?'
tRp1408
sba(ibeta_strands
Comp
p1409
(dp1410
g5
S'R'
sg6
((I-1
I1
ttp1411
sg8
I7145
sg9
F0.67948881298993913
sg10
I284
sg11
g12
(g14
S'm\xf4\xdb\xf4\x11\xe1\xa5='
tRp1412
sba(ibeta_strands
Comp
p1413
(dp1414
g5
S'Q'
sg6
((NNttp1415
sg8
I4062
sg9
F1.0764284357924874
sg10
I280
sg11
g12
(g14
S'pID{\x96\x1c\xcb?'
tRp1416
sba(ibeta_strands
Comp
p1417
(dp1418
g5
S'N'
sg6
((NNttp1419
sg8
I6347
sg9
F0.59841861900663584
sg10
I236
sg11
g12
(g14
S'\x1b\x90dP\xdf\xf5\x9f<'
tRp1420
sba(ibeta_strands
Comp
p1421
(dp1422
g5
S'W'
sg6
((I-1
I1
ttp1423
sg8
I3260
sg9
F1.1666184544784786
sg10
I229
sg11
g12
(g14
S'\xb8l\xeeU\xb6\xb3\x91?'
tRp1424
sba(ibeta_strands
Comp
p1425
(dp1426
g5
S'D'
sg6
((NNttp1427
sg8
I7790
sg9
F0.45846597958195817
sg10
I220
sg11
g12
(g14
S'\xb0\x9bdb<\xfa\xc58'
tRp1428
sba(ibeta_strands
Comp
p1429
(dp1430
g5
S'W'
sg6
((NNttp1431
sg8
I3292
sg9
F0.94250183928833797
sg10
I197
sg11
g12
(g14
S"\xc0\xed'\xb68$\xda?"
tRp1432
sba(ibeta_strands
Comp
p1433
(dp1434
g5
S'P'
sg6
((I-1
I1
ttp1435
sg8
I4863
sg9
F0.6818723899588619
sg10
I194
sg11
g12
(g14
S'\xb8\xf6\xb9=v\x1b`>'
tRp1436
sba(ibeta_strands
Comp
p1437
(dp1438
g5
S'Q'
sg6
((I-1
I1
ttp1439
sg8
I4153
sg9
F0.77368880767586712
sg10
I189
sg11
g12
(g14
S'\x02\xaa\xd6\xdd\xea12?'
tRp1440
sba(ibeta_strands
Comp
p1441
(dp1442
g5
S'K'
sg6
((I-1
I1
ttp1443
sg8
I6401
sg9
F0.48878179975376113
sg10
I181
sg11
g12
(g14
S'r\x9d\xfe\x17\xe3G\x00;'
tRp1444
sba(ibeta_strands
Comp
p1445
(dp1446
g5
S'I'
sg6
((NI1
ttp1447
sg8
I43220
sg10
I29
sba(ibeta_strands
Comp
p1448
(dp1449
g5
S'V'
sg6
((NI1
ttp1450
sg8
I58944
sg10
I21
sba(ibeta_strands
Comp
p1451
(dp1452
g5
S'G'
sg6
((NI1
ttp1453
sg8
I11531
sg10
I20
sba(ibeta_strands
Comp
p1454
(dp1455
g5
S'A'
sg6
((NI1
ttp1456
sg8
I19768
sg10
I20
sba(ibeta_strands
Comp
p1457
(dp1458
g5
S'S'
sg6
((NI1
ttp1459
sg8
I10924
sg10
I12
sba(ibeta_strands
Comp
p1460
(dp1461
g5
S'F'
sg6
((NI1
ttp1462
sg8
I17604
sg10
I9
sba(ibeta_strands
Comp
p1463
(dp1464
g5
S'R'
sg6
((NI1
ttp1465
sg8
I7422
sg10
I7
sba(ibeta_strands
Comp
p1466
(dp1467
g5
S'A'
sg6
((I-1
Nttp1468
sg8
I19781
sg10
I7
sba(ibeta_strands
Comp
p1469
(dp1470
g5
S'L'
sg6
((NI1
ttp1471
sg8
I39449
sg10
I7
sba(ibeta_strands
Comp
p1472
(dp1473
g5
S'M'
sg6
((NI1
ttp1474
sg8
I5355
sg10
I6
sba(ibeta_strands
Comp
p1475
(dp1476
g5
S'K'
sg6
((I-1
Nttp1477
sg8
I6576
sg10
I6
sba(ibeta_strands
Comp
p1478
(dp1479
g5
S'E'
sg6
((NI1
ttp1480
sg8
I7435
sg10
I6
sba(ibeta_strands
Comp
p1481
(dp1482
g5
S'T'
sg6
((NI1
ttp1483
sg8
I15990
sg10
I6
sba(ibeta_strands
Comp
p1484
(dp1485
g5
S'G'
sg6
((I-1
Nttp1486
sg8
I11546
sg10
I5
sba(ibeta_strands
Comp
p1487
(dp1488
g5
S'Q'
sg6
((I-1
Nttp1489
sg8
I4338
sg10
I4
sba(ibeta_strands
Comp
p1490
(dp1491
g5
S'C'
sg6
((NI1
ttp1492
sg8
I5176
sg10
I4
sba(ibeta_strands
Comp
p1493
(dp1494
g5
S'H'
sg6
((I-1
Nttp1495
sg8
I5864
sg10
I4
sba(ibeta_strands
Comp
p1496
(dp1497
g5
S'D'
sg6
((I-1
Nttp1498
sg8
I8006
sg10
I4
sba(ibeta_strands
Comp
p1499
(dp1500
g5
S'S'
sg6
((I-1
Nttp1501
sg8
I10932
sg10
I4
sba(ibeta_strands
Comp
p1502
(dp1503
g5
S'F'
sg6
((I-1
Nttp1504
sg8
I17609
sg10
I4
sba(ibeta_strands
Comp
p1505
(dp1506
g5
S'W'
sg6
((I-1
Nttp1507
sg8
I3486
sg10
I3
sba(ibeta_strands
Comp
p1508
(dp1509
g5
S'P'
sg6
((NI1
ttp1510
sg8
I5054
sg10
I3
sba(ibeta_strands
Comp
p1511
(dp1512
g5
S'N'
sg6
((NI1
ttp1513
sg8
I6580
sg10
I3
sba(ibeta_strands
Comp
p1514
(dp1515
g5
S'Y'
sg6
((NI1
ttp1516
sg8
I11103
sg10
I3
sba(ibeta_strands
Comp
p1517
(dp1518
g5
S'L'
sg6
((I-1
Nttp1519
sg8
I39453
sg10
I3
sba(ibeta_strands
Comp
p1520
(dp1521
g5
S'N'
sg6
((I-1
Nttp1522
sg8
I6581
sg10
I2
sba(ibeta_strands
Comp
p1523
(dp1524
g5
S'Y'
sg6
((I-1
Nttp1525
sg8
I11104
sg10
I2
sba(ibeta_strands
Comp
p1526
(dp1527
g5
S'W'
sg6
((NI1
ttp1528
sg8
I3488
sg10
I1
sba(ibeta_strands
Comp
p1529
(dp1530
g5
S'Q'
sg6
((NI1
ttp1531
sg8
I4341
sg10
I1
sba(ibeta_strands
Comp
p1532
(dp1533
g5
S'P'
sg6
((I-1
Nttp1534
sg8
I5056
sg10
I1
sba(ibeta_strands
Comp
p1535
(dp1536
g5
S'G'
sg6
((I-1
I-1
ttp1537
sg8
I11550
sg10
I1
sba(ibeta_strands
Comp
p1538
(dp1539
g5
S'I'
sg6
((I-1
Nttp1540
sg8
I43248
sg10
I1
sba(ibeta_strands
Comp
p1541
(dp1542
g5
S'V'
sg6
((NI-1
ttp1543
sg8
I58964
sg10
I1
sba(ibeta_strands
Comp
p1544
(dp1545
g5
S'V'
sg6
((I-1
Nttp1546
sg8
I58964
sg10
I1
sbasS'I'
(lp1547
(ibeta_strands
Comp
p1548
(dp1549
g5
S'V'
sg6
((I-1
I1
ttp1550
sg8
I48578
sg9
F1.1914728662345679
sg10
I10387
sg11
g12
(g14
S'\xa4\xf5!F@\xc1r*'
tRp1551
sba(ibeta_strands
Comp
p1552
(dp1553
g5
S'I'
sg6
((NNttp1554
sg8
I34275
sg9
F1.4105361130479428
sg10
I8974
sg11
g12
(g14
S'\x00\x00\x00\x00\x00\x00\x00\x00'
tRp1555
sba(ibeta_strands
Comp
p1556
(dp1557
g5
S'I'
sg6
((I-1
I1
ttp1558
sg8
I34276
sg9
F1.4032980615288979
sg10
I8973
sg11
g12
(g14
S'\x00\x00\x00\x00\x00\x00\x00\x00'
tRp1559
sba(ibeta_strands
Comp
p1560
(dp1561
g5
S'V'
sg6
((NNttp1562
sg8
I50994
sg9
F0.91895177475867129
sg10
I7971
sg11
g12
(g14
S'\xf7\xe4\xbcZ\xb2R\xf3;'
tRp1563
sba(ibeta_strands
Comp
p1564
(dp1565
g5
S'L'
sg6
((NNttp1566
sg8
I31993
sg9
F1.2858034932085776
sg10
I7463
sg11
g12
(g14
S'~\xdaWJ\xae\xce\xb1"'
tRp1567
sba(ibeta_strands
Comp
p1568
(dp1569
g5
S'L'
sg6
((I-1
I1
ttp1570
sg8
I32781
sg9
F1.1442648119178083
sg10
I6675
sg11
g12
(g14
S'\xceX]\xf7\xd1\x15C8'
tRp1571
sba(ibeta_strands
Comp
p1572
(dp1573
g5
S'A'
sg6
((NNttp1574
sg8
I16407
sg9
F1.1614953719489245
sg10
I3381
sg11
g12
(g14
S';j\x00\xf6\xbc\x92i;'
tRp1575
sba(ibeta_strands
Comp
p1576
(dp1577
g5
S'F'
sg6
((I-1
I1
ttp1578
sg8
I14615
sg9
F1.1512950068779981
sg10
I2998
sg11
g12
(g14
S'T\xf9\x04\xd4t\x92_<'
tRp1579
sba(ibeta_strands
Comp
p1580
(dp1581
g5
S'A'
sg6
((I-1
I1
ttp1582
sg8
I17185
sg9
F0.88973483438858347
sg10
I2603
sg11
g12
(g14
S'B\x1fC\xab\xef\xf7\xb9='
tRp1583
sba(ibeta_strands
Comp
p1584
(dp1585
g5
S'F'
sg6
((NNttp1586
sg8
I15171
sg9
F0.94251124212378279
sg10
I2442
sg11
g12
(g14
S'\xab\xa8\xcf\x94zrR?'
tRp1587
sba(ibeta_strands
Comp
p1588
(dp1589
g5
S'G'
sg6
((NNttp1590
sg8
I9571
sg9
F1.1652519033704478
sg10
I1980
sg11
g12
(g14
S'\xd2\xea\xd4\x7f\x9ff0='
tRp1591
sba(ibeta_strands
Comp
p1592
(dp1593
g5
S'Y'
sg6
((NNttp1594
sg8
I9431
sg9
F1.0252537272835809
sg10
I1675
sg11
g12
(g14
S'\xd8#\xc4\xa9\xa2\x00\xd1?'
tRp1595
sba(ibeta_strands
Comp
p1596
(dp1597
g5
S'Y'
sg6
((I-1
I1
ttp1598
sg8
I9525
sg9
F0.96285863273939609
sg10
I1581
sg11
g12
(g14
S'\x905i@je\xb9?'
tRp1599
sba(ibeta_strands
Comp
p1600
(dp1601
g5
S'T'
sg6
((NNttp1602
sg8
I14454
sg9
F0.655310599829661
sg10
I1542
sg11
g12
(g14
S'T\x0e\x10\xedm\x11\n0'
tRp1603
sba(ibeta_strands
Comp
p1604
(dp1605
g5
S'T'
sg6
((I-1
I1
ttp1606
sg8
I14526
sg9
F0.6215760424747826
sg10
I1470
sg11
g12
(g14
S'\xe5m\x9d\x9c\xef\xd5\xb3,'
tRp1607
sba(ibeta_strands
Comp
p1608
(dp1609
g5
S'G'
sg6
((I-1
I1
ttp1610
sg8
I10345
sg9
F0.70618103758513739
sg10
I1206
sg11
g12
(g14
S'3\\s\xf5C\xb8\x927'
tRp1611
sba(ibeta_strands
Comp
p1612
(dp1613
g5
S'K'
sg6
((NNttp1614
sg8
I5553
sg9
F1.0627514627566437
sg10
I1029
sg11
g12
(g14
S'\xe5\x80\x00A\x9f`\xa1?'
tRp1615
sba(ibeta_strands
Comp
p1616
(dp1617
g5
S'S'
sg6
((NNttp1618
sg8
I9935
sg9
F0.62222834418470896
sg10
I1001
sg11
g12
(g14
S'2\xc7\xc4\x98#1\x133'
tRp1619
sba(ibeta_strands
Comp
p1620
(dp1621
g5
S'S'
sg6
((I-1
I1
ttp1622
sg8
I10033
sg9
F0.55849279724023504
sg10
I903
sg11
g12
(g14
S'*u\x11\x99\xa1\xbcW.'
tRp1623
sba(ibeta_strands
Comp
p1624
(dp1625
g5
S'M'
sg6
((NNttp1626
sg8
I4471
sg9
F1.1285437865778205
sg10
I890
sg11
g12
(g14
S'\xda\xdb%\xa4\xd6\xb1\x16?'
tRp1627
sba(ibeta_strands
Comp
p1628
(dp1629
g5
S'M'
sg6
((I-1
I1
ttp1630
sg8
I4518
sg9
F1.0635798360399105
sg10
I843
sg11
g12
(g14
S'\x11w\xde/\xd7\xf5\xaa?'
tRp1631
sba(ibeta_strands
Comp
p1632
(dp1633
g5
S'E'
sg6
((NNttp1634
sg8
I6627
sg9
F0.74364782992994605
sg10
I814
sg11
g12
(g14
S'\xd0-\xeb,"\xfc\xd2;'
tRp1635
sba(ibeta_strands
Comp
p1636
(dp1637
g5
S'R'
sg6
((NNttp1638
sg8
I6622
sg9
F0.73844370218652122
sg10
I807
sg11
g12
(g14
S'\xa3uT\x08FP\xab;'
tRp1639
sba(ibeta_strands
Comp
p1640
(dp1641
g5
S'C'
sg6
((I-1
I1
ttp1642
sg8
I4456
sg9
F0.94535980771266703
sg10
I724
sg11
g12
(g14
S'\xc4@\x02i\xb8:\xba?'
tRp1643
sba(ibeta_strands
Comp
p1644
(dp1645
g5
S'C'
sg6
((NNttp1646
sg8
I4478
sg9
F0.92125862530264935
sg10
I702
sg11
g12
(g14
S'\x97\x12\x0e\x8b\xe7\xf9\x92?'
tRp1647
sba(ibeta_strands
Comp
p1648
(dp1649
g5
S'H'
sg6
((NNttp1650
sg8
I5204
sg9
F0.76922287157468305
sg10
I664
sg11
g12
(g14
S'\xa3.X\xab\r\x85C='
tRp1651
sba(ibeta_strands
Comp
p1652
(dp1653
g5
S'E'
sg6
((I-1
I1
ttp1654
sg8
I6804
sg9
F0.57902385378554
sg10
I637
sg11
g12
(g14
S'\x98X4(\xa3\x99\x1a5'
tRp1655
sba(ibeta_strands
Comp
p1656
(dp1657
g5
S'D'
sg6
((I-1
I1
ttp1658
sg8
I7387
sg9
F0.52607039023421276
sg10
I623
sg11
g12
(g14
S'\xf8bP\x85\xe2\xf841'
tRp1659
sba(ibeta_strands
Comp
p1660
(dp1661
g5
S'R'
sg6
((I-1
I1
ttp1662
sg8
I6838
sg9
F0.53807826580308404
sg10
I591
sg11
g12
(g14
S'l\xba\x83\x13\x95\x80\xf52'
tRp1663
sba(ibeta_strands
Comp
p1664
(dp1665
g5
S'P'
sg6
((I-1
I1
ttp1666
sg8
I4486
sg9
F0.76371528444691072
sg10
I571
sg11
g12
(g14
S'\xaa\x08\x0e\xa9\xc4\xda\x80='
tRp1667
sba(ibeta_strands
Comp
p1668
(dp1669
g5
S'K'
sg6
((I-1
I1
ttp1670
sg8
I6035
sg9
F0.56210542412706288
sg10
I547
sg11
g12
(g14
S'\xd2\xc1H\xa0+:\x975'
tRp1671
sba(ibeta_strands
Comp
p1672
(dp1673
g5
S'W'
sg6
((NNttp1674
sg8
I2968
sg9
F1.015105003512988
sg10
I521
sg11
g12
(g14
S'K6\n\x01\x0cF\xe7?'
tRp1675
sba(ibeta_strands
Comp
p1676
(dp1677
g5
S'D'
sg6
((NNttp1678
sg8
I7518
sg9
F0.41754837829161556
sg10
I492
sg11
g12
(g14
S'.>S\xcf\xfd\xf8\xf1)'
tRp1679
sba(ibeta_strands
Comp
p1680
(dp1681
g5
S'Q'
sg6
((NNttp1682
sg8
I3853
sg9
F0.76558471586219967
sg10
I489
sg11
g12
(g14
S'``\xf4\xc8\x90G\xe0='
tRp1683
sba(ibeta_strands
Comp
p1684
(dp1685
g5
S'N'
sg6
((I-1
I1
ttp1686
sg8
I6104
sg9
F0.49215282921370873
sg10
I479
sg11
g12
(g14
S'\xd1q7h\xf6+\x182'
tRp1687
sba(ibeta_strands
Comp
p1688
(dp1689
g5
S'H'
sg6
((I-1
I1
ttp1690
sg8
I5414
sg9
F0.52330402534253417
sg10
I454
sg11
g12
(g14
S'\xd9\xb5UN\xc7_\x0c5'
tRp1691
sba(ibeta_strands
Comp
p1692
(dp1693
g5
S'W'
sg6
((I-1
I1
ttp1694
sg8
I3059
sg9
F0.83359636826204953
sg10
I430
sg11
g12
(g14
S'U\xefb\xe6\x94%\x06?'
tRp1695
sba(ibeta_strands
Comp
p1696
(dp1697
g5
S'N'
sg6
((NNttp1698
sg8
I6171
sg9
F0.42544906693877876
sg10
I412
sg11
g12
(g14
S'~v\xf9\xc2\xb4\xedc.'
tRp1699
sba(ibeta_strands
Comp
p1700
(dp1701
g5
S'Q'
sg6
((I-1
I1
ttp1702
sg8
I3966
sg9
F0.58571500972316115
sg10
I376
sg11
g12
(g14
S'\x1e]aD\x8b\\\xcc9'
tRp1703
sba(ibeta_strands
Comp
p1704
(dp1705
g5
S'V'
sg6
((NI1
ttp1706
sg8
I58904
sg10
I61
sba(ibeta_strands
Comp
p1707
(dp1708
g5
S'I'
sg6
((NI1
ttp1709
sg8
I43213
sg10
I36
sba(ibeta_strands
Comp
p1710
(dp1711
g5
S'I'
sg6
((I-1
Nttp1712
sg8
I43225
sg10
I24
sba(ibeta_strands
Comp
p1713
(dp1714
g5
S'A'
sg6
((NI1
ttp1715
sg8
I19769
sg10
I19
sba(ibeta_strands
Comp
p1716
(dp1717
g5
S'G'
sg6
((NI1
ttp1718
sg8
I11535
sg10
I16
sba(ibeta_strands
Comp
p1719
(dp1720
g5
S'L'
sg6
((NI1
ttp1721
sg8
I39441
sg10
I15
sba(ibeta_strands
Comp
p1722
(dp1723
g5
S'V'
sg6
((I-1
Nttp1724
sg8
I58952
sg10
I13
sba(ibeta_strands
Comp
p1725
(dp1726
g5
S'T'
sg6
((NI1
ttp1727
sg8
I15984
sg10
I12
sba(ibeta_strands
Comp
p1728
(dp1729
g5
S'L'
sg6
((I-1
Nttp1730
sg8
I39444
sg10
I12
sba(ibeta_strands
Comp
p1731
(dp1732
g5
S'S'
sg6
((NI1
ttp1733
sg8
I10926
sg10
I10
sba(ibeta_strands
Comp
p1734
(dp1735
g5
S'G'
sg6
((I-1
Nttp1736
sg8
I11544
sg10
I7
sba(ibeta_strands
Comp
p1737
(dp1738
g5
S'A'
sg6
((I-1
Nttp1739
sg8
I19781
sg10
I7
sba(ibeta_strands
Comp
p1740
(dp1741
g5
S'P'
sg6
((NI1
ttp1742
sg8
I5051
sg10
I6
sba(ibeta_strands
Comp
p1743
(dp1744
g5
S'F'
sg6
((I-1
Nttp1745
sg8
I17607
sg10
I6
sba(ibeta_strands
Comp
p1746
(dp1747
g5
S'M'
sg6
((NI1
ttp1748
sg8
I5356
sg10
I5
sba(ibeta_strands
Comp
p1749
(dp1750
g5
S'S'
sg6
((I-1
Nttp1751
sg8
I10931
sg10
I5
sba(ibeta_strands
Comp
p1752
(dp1753
g5
S'Y'
sg6
((I-1
Nttp1754
sg8
I11101
sg10
I5
sba(ibeta_strands
Comp
p1755
(dp1756
g5
S'T'
sg6
((I-1
Nttp1757
sg8
I15991
sg10
I5
sba(ibeta_strands
Comp
p1758
(dp1759
g5
S'C'
sg6
((NI1
ttp1760
sg8
I5176
sg10
I4
sba(ibeta_strands
Comp
p1761
(dp1762
g5
S'H'
sg6
((I-1
Nttp1763
sg8
I5864
sg10
I4
sba(ibeta_strands
Comp
p1764
(dp1765
g5
S'R'
sg6
((NI1
ttp1766
sg8
I7425
sg10
I4
sba(ibeta_strands
Comp
p1767
(dp1768
g5
S'E'
sg6
((NI1
ttp1769
sg8
I7437
sg10
I4
sba(ibeta_strands
Comp
p1770
(dp1771
g5
S'M'
sg6
((I-1
Nttp1772
sg8
I5358
sg10
I3
sba(ibeta_strands
Comp
p1773
(dp1774
g5
S'Y'
sg6
((NI1
ttp1775
sg8
I11103
sg10
I3
sba(ibeta_strands
Comp
p1776
(dp1777
g5
S'C'
sg6
((I-1
Nttp1778
sg8
I5178
sg10
I2
sba(ibeta_strands
Comp
p1779
(dp1780
g5
S'K'
sg6
((NI1
ttp1781
sg8
I6580
sg10
I2
sba(ibeta_strands
Comp
p1782
(dp1783
g5
S'N'
sg6
((I-1
Nttp1784
sg8
I6581
sg10
I2
sba(ibeta_strands
Comp
p1785
(dp1786
g5
S'W'
sg6
((NI1
ttp1787
sg8
I3488
sg10
I1
sba(ibeta_strands
Comp
p1788
(dp1789
g5
S'W'
sg6
((I-1
Nttp1790
sg8
I3488
sg10
I1
sba(ibeta_strands
Comp
p1791
(dp1792
g5
S'H'
sg6
((NI1
ttp1793
sg8
I5867
sg10
I1
sba(ibeta_strands
Comp
p1794
(dp1795
g5
S'H'
sg6
((I0
I1
ttp1796
sg8
I5867
sg10
I1
sba(ibeta_strands
Comp
p1797
(dp1798
g5
S'K'
sg6
((I-1
Nttp1799
sg8
I6581
sg10
I1
sba(ibeta_strands
Comp
p1800
(dp1801
g5
S'N'
sg6
((NI1
ttp1802
sg8
I6582
sg10
I1
sba(ibeta_strands
Comp
p1803
(dp1804
g5
S'E'
sg6
((I-1
Nttp1805
sg8
I7440
sg10
I1
sba(ibeta_strands
Comp
p1806
(dp1807
g5
S'D'
sg6
((I-1
Nttp1808
sg8
I8009
sg10
I1
sba(ibeta_strands
Comp
p1809
(dp1810
g5
S'D'
sg6
((NI1
ttp1811
sg8
I8009
sg10
I1
sba(ibeta_strands
Comp
p1812
(dp1813
g5
S'T'
sg6
((I0
I1
ttp1814
sg8
I15995
sg10
I1
sba(ibeta_strands
Comp
p1815
(dp1816
g5
S'F'
sg6
((NI1
ttp1817
sg8
I17612
sg10
I1
sba(ibeta_strands
Comp
p1818
(dp1819
g5
S'A'
sg6
((I-1
I-1
ttp1820
sg8
I19787
sg10
I1
sbasS'H'
(lp1821
(ibeta_strands
Comp
p1822
(dp1823
g5
S'V'
sg6
((I-1
I1
ttp1824
sg8
I58081
sg9
F0.71154825983360126
sg10
I884
sg11
g12
(g14
S'Fl..\x12\x02\xbe9'
tRp1825
sba(ibeta_strands
Comp
p1826
(dp1827
g5
S'T'
sg6
((NNttp1828
sg8
I15316
sg9
F2.1298925617566629
sg10
I680
sg11
g12
(g14
S"T\xfb\xc6'\x9a\xc9\xdd+"
tRp1829
sba(ibeta_strands
Comp
p1830
(dp1831
g5
S'I'
sg6
((I-1
I1
ttp1832
sg8
I42591
sg9
F0.7220981330679187
sg10
I658
sg11
g12
(g14
S'\x1d`Bv\xa8\xec\xeb;'
tRp1833
sba(ibeta_strands
Comp
p1834
(dp1835
g5
S'L'
sg6
((I-1
I1
ttp1836
sg8
I38846
sg9
F0.73377545237583697
sg10
I610
sg11
g12
(g14
S'\xa2\xe4\xee\x18\x96W\x98<'
tRp1837
sba(ibeta_strands
Comp
p1838
(dp1839
g5
S'V'
sg6
((NNttp1840
sg8
I58369
sg9
F0.50642150141520414
sg10
I596
sg11
g12
(g14
S'"\xf4\x7f\xde\xaa\xbc-/'
tRp1841
sba(ibeta_strands
Comp
p1842
(dp1843
g5
S'S'
sg6
((NNttp1844
sg8
I10389
sg9
F2.5060458033329196
sg10
I547
sg11
g12
(g14
S'bs~Y`w\x0c('
tRp1845
sba(ibeta_strands
Comp
p1846
(dp1847
g5
S'L'
sg6
((NNttp1848
sg8
I38977
sg9
F0.60825072900098465
sg10
I479
sg11
g12
(g14
S'\\D\xe5\x1a\xbd\x9dI9'
tRp1849
sba(ibeta_strands
Comp
p1850
(dp1851
g5
S'I'
sg6
((NNttp1852
sg8
I42791
sg9
F0.53057842647771813
sg10
I458
sg11
g12
(g14
S'g\xf3\xbd&,\x15p5'
tRp1853
sba(ibeta_strands
Comp
p1854
(dp1855
g5
S'T'
sg6
((I-1
I1
ttp1856
sg8
I15551
sg9
F1.3203680726307352
sg10
I445
sg11
g12
(g14
S'Fu+\xe9\x15\xda\x13>'
tRp1857
sba(ibeta_strands
Comp
p1858
(dp1859
g5
S'A'
sg6
((I-1
I1
ttp1860
sg8
I19382
sg9
F0.9738017050464477
sg10
I406
sg11
g12
(g14
S'\xca$\xe6B\x81\xfa\xe2?'
tRp1861
sba(ibeta_strands
Comp
p1862
(dp1863
g5
S'F'
sg6
((I-1
I1
ttp1864
sg8
I17257
sg9
F0.95931903434060017
sg10
I356
sg11
g12
(g14
S'\xc0t\x11\xa2\x93|\xdb?'
tRp1865
sba(ibeta_strands
Comp
p1866
(dp1867
g5
S'Y'
sg6
((I-1
I1
ttp1868
sg8
I10751
sg9
F1.5171100407067017
sg10
I355
sg11
g12
(g14
S'@\xbdMN\x83\x0f\xc1<'
tRp1869
sba(ibeta_strands
Comp
p1870
(dp1871
g5
S'K'
sg6
((NNttp1872
sg8
I6244
sg9
F2.5728768654343703
sg10
I338
sg11
g12
(g14
S'\xae\x1cl=\xcc#o0'
tRp1873
sba(ibeta_strands
Comp
p1874
(dp1875
g5
S'E'
sg6
((NNttp1876
sg8
I7129
sg9
F2.1007940034886574
sg10
I312
sg11
g12
(g14
S'\xe2Gm\xb7\x9eN<7'
tRp1877
sba(ibeta_strands
Comp
p1878
(dp1879
g5
S'S'
sg6
((I-1
I1
ttp1880
sg8
I10633
sg9
F1.3150144518074056
sg10
I303
sg11
g12
(g14
S'\x9a{I\x7f\x93\xb7\xb0>'
tRp1881
sba(ibeta_strands
Comp
p1882
(dp1883
g5
S'F'
sg6
((NNttp1884
sg8
I17310
sg9
F0.86192499103364917
sg10
I303
sg11
g12
(g14
S'\x03\xd4h\x00,"\x7f?'
tRp1885
sba(ibeta_strands
Comp
p1886
(dp1887
g5
S'A'
sg6
((NNttp1888
sg8
I19497
sg9
F0.73680279882914312
sg10
I291
sg11
g12
(g14
S'\xf5.\xc5\xee\xe9\xdfk>'
tRp1889
sba(ibeta_strands
Comp
p1890
(dp1891
g5
S'R'
sg6
((NNttp1892
sg8
I7143
sg9
F1.9288384481934546
sg10
I286
sg11
g12
(g14
S'[1\x07\xeb\x98\xe1\xb29'
tRp1893
sba(ibeta_strands
Comp
p1894
(dp1895
g5
S'D'
sg6
((NNttp1896
sg8
I7733
sg9
F1.7326363943502796
sg10
I277
sg11
g12
(g14
S'V\xa4\xa2w:x\xb0;'
tRp1897
sba(ibeta_strands
Comp
p1898
(dp1899
g5
S'D'
sg6
((I-1
I1
ttp1900
sg8
I7738
sg9
F1.6116947331638645
sg10
I272
sg11
g12
(g14
S'x\xd0_\xd1\x12\x05\xc3<'
tRp1901
sba(ibeta_strands
Comp
p1902
(dp1903
g5
S'R'
sg6
((I-1
I1
ttp1904
sg8
I7165
sg9
F1.6866305686665308
sg10
I264
sg11
g12
(g14
S'\xd1*F\n\x9f\xefB<'
tRp1905
sba(ibeta_strands
Comp
p1906
(dp1907
g5
S'G'
sg6
((I-1
I1
ttp1908
sg8
I11287
sg9
F1.0847527049280283
sg10
I264
sg11
g12
(g14
S'\xb0\x1e\xca\xa39w\xc7?'
tRp1909
sba(ibeta_strands
Comp
p1910
(dp1911
g5
S'E'
sg6
((I-1
I1
ttp1912
sg8
I7183
sg9
F1.6456398677744231
sg10
I258
sg11
g12
(g14
S'F\x1f\x92\x15\xa3\xa0\xa9<'
tRp1913
sba(ibeta_strands
Comp
p1914
(dp1915
g5
S'N'
sg6
((NNttp1916
sg8
I6348
sg9
F1.7885627715767443
sg10
I235
sg11
g12
(g14
S'L\xdc\x98!\xf63\xe7;'
tRp1917
sba(ibeta_strands
Comp
p1918
(dp1919
g5
S'Y'
sg6
((NNttp1920
sg8
I10874
sg9
F1.0466235327146194
sg10
I232
sg11
g12
(g14
S'F\x03\xcd\xa6R\xc4\xdf?'
tRp1921
sba(ibeta_strands
Comp
p1922
(dp1923
g5
S'G'
sg6
((NNttp1924
sg8
I11333
sg9
F0.94557741233167836
sg10
I218
sg11
g12
(g14
S'\x1c\xa3\xc3|\x82w\xda?'
tRp1925
sba(ibeta_strands
Comp
p1926
(dp1927
g5
S'H'
sg6
((I-1
I1
ttp1928
sg8
I5659
sg9
F1.6904509727750048
sg10
I209
sg11
g12
(g14
S'\x17.\xea\xdb\x89\x81\xfd<'
tRp1929
sba(ibeta_strands
Comp
p1930
(dp1931
g5
S'H'
sg6
((NNttp1932
sg8
I5662
sg9
F1.7588843909336462
sg10
I206
sg11
g12
(g14
S'\xe4\xefLl\x9a\xbc\x96<'
tRp1933
sba(ibeta_strands
Comp
p1934
(dp1935
g5
S'N'
sg6
((I-1
I1
ttp1936
sg8
I6406
sg9
F1.276132619803757
sg10
I177
sg11
g12
(g14
S'\xefi5<\x0b\xefP?'
tRp1937
sba(ibeta_strands
Comp
p1938
(dp1939
g5
S'K'
sg6
((I-1
I1
ttp1940
sg8
I6428
sg9
F1.1104761655824673
sg10
I154
sg11
g12
(g14
S',\xc0i\xfbx_\xc9?'
tRp1941
sba(ibeta_strands
Comp
p1942
(dp1943
g5
S'Q'
sg6
((NNttp1944
sg8
I4189
sg9
F1.7654758910682646
sg10
I153
sg11
g12
(g14
S'\xca\xa6\xba\xcc\x14\x9ce='
tRp1945
sba(ibeta_strands
Comp
p1946
(dp1947
g5
S'M'
sg6
((I-1
I1
ttp1948
sg8
I5234
sg9
F1.1243572185319932
sg10
I127
sg11
g12
(g14
S'\x1c\xec\xd6+\xc4\xc4\xc8?'
tRp1949
sba(ibeta_strands
Comp
p1950
(dp1951
g5
S'Q'
sg6
((I-1
I1
ttp1952
sg8
I4227
sg9
F1.2570554056936132
sg10
I115
sg11
g12
(g14
S'q\x06M\x82\xf37\x8d?'
tRp1953
sba(ibeta_strands
Comp
p1954
(dp1955
g5
S'M'
sg6
((NNttp1956
sg8
I5247
sg9
F1.0654160224815366
sg10
I114
sg11
g12
(g14
S'\\\x92wN\x9f\xb2\xe0?'
tRp1957
sba(ibeta_strands
Comp
p1958
(dp1959
g5
S'C'
sg6
((I-1
I1
ttp1960
sg8
I5073
sg9
F0.98039348523219494
sg10
I107
sg11
g12
(g14
S'\xda\xecz\xab"\xee\xeb?'
tRp1961
sba(ibeta_strands
Comp
p1962
(dp1963
g5
S'W'
sg6
((I-1
I1
ttp1964
sg8
I3401
sg9
F1.1970935793086517
sg10
I88
sg11
g12
(g14
S'\xb0a\xdf\x96\x00\xdd\xb8?'
tRp1965
sba(ibeta_strands
Comp
p1966
(dp1967
g5
S'P'
sg6
((I-1
I1
ttp1968
sg8
I4971
sg9
F0.8071456236312361
sg10
I86
sg11
g12
(g14
S'?\xe7\x8d\x96-h\xa8?'
tRp1969
sba(ibeta_strands
Comp
p1970
(dp1971
g5
S'C'
sg6
((NNttp1972
sg8
I5095
sg9
F0.82214675236147627
sg10
I85
sg11
g12
(g14
S'\xff\xb2\xd2\x86(\xaf\xb2?'
tRp1973
sba(ibeta_strands
Comp
p1974
(dp1975
g5
S'W'
sg6
((NNttp1976
sg8
I3431
sg9
F0.83288914834684458
sg10
I58
sg11
g12
(g14
S"\x14'\xa9j\x99g\xc6?"
tRp1977
sba(ibeta_strands
Comp
p1978
(dp1979
g5
S'V'
sg6
((NI1
ttp1980
sg8
I58940
sg10
I25
sba(ibeta_strands
Comp
p1981
(dp1982
g5
S'E'
sg6
((NI1
ttp1983
sg8
I7421
sg10
I20
sba(ibeta_strands
Comp
p1984
(dp1985
g5
S'A'
sg6
((NI1
ttp1986
sg8
I19768
sg10
I20
sba(ibeta_strands
Comp
p1987
(dp1988
g5
S'T'
sg6
((NI1
ttp1989
sg8
I15984
sg10
I12
sba(ibeta_strands
Comp
p1990
(dp1991
g5
S'I'
sg6
((NI1
ttp1992
sg8
I43241
sg10
I8
sba(ibeta_strands
Comp
p1993
(dp1994
g5
S'S'
sg6
((I-1
Nttp1995
sg8
I10930
sg10
I6
sba(ibeta_strands
Comp
p1996
(dp1997
g5
S'T'
sg6
((I-1
Nttp1998
sg8
I15990
sg10
I6
sba(ibeta_strands
Comp
p1999
(dp2000
g5
S'K'
sg6
((I-1
Nttp2001
sg8
I6577
sg10
I5
sba(ibeta_strands
Comp
p2002
(dp2003
g5
S'K'
sg6
((NI1
ttp2004
sg8
I6577
sg10
I5
sba(ibeta_strands
Comp
p2005
(dp2006
g5
S'S'
sg6
((NI1
ttp2007
sg8
I10931
sg10
I5
sba(ibeta_strands
Comp
p2008
(dp2009
g5
S'Y'
sg6
((I-1
Nttp2010
sg8
I11101
sg10
I5
sba(ibeta_strands
Comp
p2011
(dp2012
g5
S'W'
sg6
((NI1
ttp2013
sg8
I3485
sg10
I4
sba(ibeta_strands
Comp
p2014
(dp2015
g5
S'Q'
sg6
((NI1
ttp2016
sg8
I4338
sg10
I4
sba(ibeta_strands
Comp
p2017
(dp2018
g5
S'P'
sg6
((NI1
ttp2019
sg8
I5053
sg10
I4
sba(ibeta_strands
Comp
p2020
(dp2021
g5
S'N'
sg6
((I-1
Nttp2022
sg8
I6579
sg10
I4
sba(ibeta_strands
Comp
p2023
(dp2024
g5
S'G'
sg6
((NI1
ttp2025
sg8
I11547
sg10
I4
sba(ibeta_strands
Comp
p2026
(dp2027
g5
S'L'
sg6
((NI1
ttp2028
sg8
I39452
sg10
I4
sba(ibeta_strands
Comp
p2029
(dp2030
g5
S'M'
sg6
((NI1
ttp2031
sg8
I5358
sg10
I3
sba(ibeta_strands
Comp
p2032
(dp2033
g5
S'N'
sg6
((NI1
ttp2034
sg8
I6580
sg10
I3
sba(ibeta_strands
Comp
p2035
(dp2036
g5
S'D'
sg6
((NI1
ttp2037
sg8
I8007
sg10
I3
sba(ibeta_strands
Comp
p2038
(dp2039
g5
S'F'
sg6
((NI1
ttp2040
sg8
I17610
sg10
I3
sba(ibeta_strands
Comp
p2041
(dp2042
g5
S'A'
sg6
((I-1
Nttp2043
sg8
I19785
sg10
I3
sba(ibeta_strands
Comp
p2044
(dp2045
g5
S'Q'
sg6
((I-1
Nttp2046
sg8
I4340
sg10
I2
sba(ibeta_strands
Comp
p2047
(dp2048
g5
S'C'
sg6
((NI1
ttp2049
sg8
I5178
sg10
I2
sba(ibeta_strands
Comp
p2050
(dp2051
g5
S'E'
sg6
((I-1
Nttp2052
sg8
I7439
sg10
I2
sba(ibeta_strands
Comp
p2053
(dp2054
g5
S'W'
sg6
((I-1
Nttp2055
sg8
I3488
sg10
I1
sba(ibeta_strands
Comp
p2056
(dp2057
g5
S'H'
sg6
((NI1
ttp2058
sg8
I5867
sg10
I1
sba(ibeta_strands
Comp
p2059
(dp2060
g5
S'R'
sg6
((I-1
Nttp2061
sg8
I7428
sg10
I1
sba(ibeta_strands
Comp
p2062
(dp2063
g5
S'R'
sg6
((NI1
ttp2064
sg8
I7428
sg10
I1
sba(ibeta_strands
Comp
p2065
(dp2066
g5
S'Y'
sg6
((NI1
ttp2067
sg8
I11105
sg10
I1
sba(ibeta_strands
Comp
p2068
(dp2069
g5
S'L'
sg6
((I-1
Nttp2070
sg8
I39455
sg10
I1
sba(ibeta_strands
Comp
p2071
(dp2072
g5
S'V'
sg6
((I-1
Nttp2073
sg8
I58964
sg10
I1
sbasS'K'
(lp2074
(ibeta_strands
Comp
p2075
(dp2076
g5
S'V'
sg6
((I-1
I1
ttp2077
sg8
I57538
sg9
F0.75395408061364533
sg10
I1427
sg11
g12
(g14
S'cw\x18\x80\xfc\xb4\x029'
tRp2078
sba(ibeta_strands
Comp
p2079
(dp2080
g5
S'E'
sg6
((NNttp2081
sg8
I6237
sg9
F7.2274914938057639
sg10
I1204
sg11
g12
(g14
S'\x00\x00\x00\x00\x00\x00\x00\x00'
tRp2082
sba(ibeta_strands
Comp
p2083
(dp2084
g5
S'T'
sg6
((I-1
I1
ttp2085
sg8
I14978
sg9
F1.9826753555034038
sg10
I1018
sg11
g12
(g14
S"J\xa8l\xf2\x0ec>'"
tRp2086
sba(ibeta_strands
Comp
p2087
(dp2088
g5
S'I'
sg6
((I-1
I1
ttp2089
sg8
I42239
sg9
F0.72754612077290204
sg10
I1010
sg11
g12
(g14
S'8\xf1\xe1m"\xc7\x12:'
tRp2090
sba(ibeta_strands
Comp
p2091
(dp2092
g5
S'L'
sg6
((I-1
I1
ttp2093
sg8
I38703
sg9
F0.59456199761088313
sg10
I753
sg11
g12
(g14
S'oquo\xfd\xf0w4'
tRp2094
sba(ibeta_strands
Comp
p2095
(dp2096
g5
S'D'
sg6
((NNttp2097
sg8
I7262
sg9
F4.1712045600853687
sg10
I748
sg11
g12
(g14
S'\x00\x00\x00\x00\x00\x00\x00\x00'
tRp2098
sba(ibeta_strands
Comp
p2099
(dp2100
g5
S'E'
sg6
((I-1
I1
ttp2101
sg8
I6741
sg9
F2.9307715113500219
sg10
I700
sg11
g12
(g14
S'\xcbu@\x16M\xe0"\x15'
tRp2102
sba(ibeta_strands
Comp
p2103
(dp2104
g5
S'Y'
sg6
((I-1
I1
ttp2105
sg8
I10518
sg9
F1.6494337732219189
sg10
I588
sg11
g12
(g14
S'\x85\n:\xbd@\x19p8'
tRp2106
sba(ibeta_strands
Comp
p2107
(dp2108
g5
S'A'
sg6
((I-1
I1
ttp2109
sg8
I19216
sg9
F0.90055315679968762
sg10
I572
sg11
g12
(g14
S'\xec\x9b\xfa\xfco\x1f\x82?'
tRp2110
sba(ibeta_strands
Comp
p2111
(dp2112
g5
S'S'
sg6
((I-1
I1
ttp2113
sg8
I10373
sg9
F1.6038550618380909
sg10
I563
sg11
g12
(g14
S'\xa2\x88\x88^\xa5"\x869'
tRp2114
sba(ibeta_strands
Comp
p2115
(dp2116
g5
S'V'
sg6
((NNttp2117
sg8
I58403
sg9
F0.42573016150184939
sg10
I562
sg11
g12
(g14
S'x\x0e\xab\xf2<b\x8c&'
tRp2118
sba(ibeta_strands
Comp
p2119
(dp2120
g5
S'I'
sg6
((NNttp2121
sg8
I42704
sg9
F0.56287613916654111
sg10
I545
sg11
g12
(g14
S'3\x11\xef\xdf\x9a\x12\xb15'
tRp2122
sba(ibeta_strands
Comp
p2123
(dp2124
g5
S'T'
sg6
((NNttp2125
sg8
I15528
sg9
F1.3068533769723196
sg10
I468
sg11
g12
(g14
S'\xab\xb1\xb6#\x87w\x1f>'
tRp2126
sba(ibeta_strands
Comp
p2127
(dp2128
g5
S'L'
sg6
((NNttp2129
sg8
I38996
sg9
F0.52075947871298833
sg10
I460
sg11
g12
(g14
S'{\xd3#\x85\xb5\xbc\xe24'
tRp2130
sba(ibeta_strands
Comp
p2131
(dp2132
g5
S'S'
sg6
((NNttp2133
sg8
I10572
sg9
F1.4867408998450031
sg10
I364
sg11
g12
(g14
S'\x12\x7f\xa1\xce\xa7Q\xf8<'
tRp2134
sba(ibeta_strands
Comp
p2135
(dp2136
g5
S'F'
sg6
((I-1
I1
ttp2137
sg8
I17262
sg9
F0.6208533190906379
sg10
I351
sg11
g12
(g14
S'{\xa9\x14Vv\x19\xb3;'
tRp2138
sba(ibeta_strands
Comp
p2139
(dp2140
g5
S'Q'
sg6
((NNttp2141
sg8
I4004
sg9
F3.4771168692696648
sg10
I338
sg11
g12
(g14
S'\xae3\x0b\xc5\t\x15\xd2#'
tRp2142
sba(ibeta_strands
Comp
p2143
(dp2144
g5
S'H'
sg6
((I-1
I1
ttp2145
sg8
I5531
sg9
F1.7891840648984827
sg10
I337
sg11
g12
(g14
S"\x0ey\xa1\xf3\xf3\xb5':"
tRp2146
sba(ibeta_strands
Comp
p2147
(dp2148
g5
S'G'
sg6
((I-1
I1
ttp2149
sg8
I11237
sg9
F0.84688665622148129
sg10
I314
sg11
g12
(g14
S'\xa4\x18>}\xe1\xf6c?'
tRp2150
sba(ibeta_strands
Comp
p2151
(dp2152
g5
S'K'
sg6
((I-1
I1
ttp2153
sg8
I6276
sg9
F1.4483675108916931
sg10
I306
sg11
g12
(g14
S"'\xa7\xd9\xad\xc4\x16\xbd="
tRp2154
sba(ibeta_strands
Comp
p2155
(dp2156
g5
S'K'
sg6
((NNttp2157
sg8
I6284
sg9
F2.0223242656671356
sg10
I298
sg11
g12
(g14
S')w\xcd%A.w8'
tRp2158
sba(ibeta_strands
Comp
p2159
(dp2160
g5
S'N'
sg6
((I-1
I1
ttp2161
sg8
I6288
sg9
F1.3960899048863689
sg10
I295
sg11
g12
(g14
S'\x93l\xc1\xc6\xb7+1>'
tRp2162
sba(ibeta_strands
Comp
p2163
(dp2164
g5
S'D'
sg6
((I-1
I1
ttp2165
sg8
I7727
sg9
F1.1007004531684341
sg10
I283
sg11
g12
(g14
S"\xa5\xc5>\xbf'G\xba?"
tRp2166
sba(ibeta_strands
Comp
p2167
(dp2168
g5
S'A'
sg6
((NNttp2169
sg8
I19509
sg9
F0.6297884743274148
sg10
I279
sg11
g12
(g14
S'\xb1\xd4WT\xba\x99\xbd<'
tRp2170
sba(ibeta_strands
Comp
p2171
(dp2172
g5
S'R'
sg6
((I-1
I1
ttp2173
sg8
I7182
sg9
F1.0358141052518146
sg10
I247
sg11
g12
(g14
S'\xc2\x85$\xf9\xb2\xf0\xe2?'
tRp2174
sba(ibeta_strands
Comp
p2175
(dp2176
g5
S'Y'
sg6
((NNttp2177
sg8
I10878
sg9
F0.91700052580248903
sg10
I228
sg11
g12
(g14
S'\xc0\x1f\x8a\xeax\x0e\xc8?'
tRp2178
sba(ibeta_strands
Comp
p2179
(dp2180
g5
S'F'
sg6
((NNttp2181
sg8
I17432
sg9
F0.45902638176964639
sg10
I181
sg11
g12
(g14
S'\x89\xf7\xd6f\xc9X\x10:'
tRp2182
sba(ibeta_strands
Comp
p2183
(dp2184
g5
S'R'
sg6
((NNttp2185
sg8
I7253
sg9
F1.0582169566415813
sg10
I176
sg11
g12
(g14
S'P\x8e*:\xf5\xce\xdd?'
tRp2186
sba(ibeta_strands
Comp
p2187
(dp2188
g5
S'N'
sg6
((NNttp2189
sg8
I6414
sg9
F1.1467143738697314
sg10
I169
sg11
g12
(g14
S'X\x94\xde\x84\xbc:\xb3?'
tRp2190
sba(ibeta_strands
Comp
p2191
(dp2192
g5
S'H'
sg6
((NNttp2193
sg8
I5711
sg9
F1.195093691932533
sg10
I157
sg11
g12
(g14
S'\xdc\xf9|\x85\xfc\xb2\x99?'
tRp2194
sba(ibeta_strands
Comp
p2195
(dp2196
g5
S'Q'
sg6
((I-1
I1
ttp2197
sg8
I4192
sg9
F1.0762586768419184
sg10
I150
sg11
g12
(g14
S'\xd0r\x9b\xa3\x9aK\xd8?'
tRp2198
sba(ibeta_strands
Comp
p2199
(dp2200
g5
S'G'
sg6
((NNttp2201
sg8
I11401
sg9
F0.58004819812607045
sg10
I150
sg11
g12
(g14
S';\xff\x80g!\xb3\x91='
tRp2202
sba(ibeta_strands
Comp
p2203
(dp2204
g5
S'W'
sg6
((I-1
I1
ttp2205
sg8
I3352
sg9
F1.2233052048421182
sg10
I137
sg11
g12
(g14
S'\xe6DP\xce\x92M\x92?'
tRp2206
sba(ibeta_strands
Comp
p2207
(dp2208
g5
S'C'
sg6
((I-1
I1
ttp2209
sg8
I5051
sg9
F0.77584537651910135
sg10
I129
sg11
g12
(g14
S'\xda\x9a\xce\x88\x96@l?'
tRp2210
sba(ibeta_strands
Comp
p2211
(dp2212
g5
S'M'
sg6
((NNttp2213
sg8
I5243
sg9
F0.98316997439955256
sg10
I118
sg11
g12
(g14
S'\x18\xe6]\xd2qe\xec?'
tRp2214
sba(ibeta_strands
Comp
p2215
(dp2216
g5
S'M'
sg6
((I-1
I1
ttp2217
sg8
I5271
sg9
F0.52301233070482478
sg10
I90
sg11
g12
(g14
S'\x9d\xb3\xc6\x82NM\xe8='
tRp2218
sba(ibeta_strands
Comp
p2219
(dp2220
g5
S'C'
sg6
((NNttp2221
sg8
I5098
sg9
F0.70709293744845247
sg10
I82
sg11
g12
(g14
S'\xac\xbc}S\x97\xddX?'
tRp2222
sba(ibeta_strands
Comp
p2223
(dp2224
g5
S'P'
sg6
((I-1
I1
ttp2225
sg8
I4976
sg9
F0.49900775052752805
sg10
I81
sg11
g12
(g14
S'\x0c\xfd\\j\x84e\xd5='
tRp2226
sba(ibeta_strands
Comp
p2227
(dp2228
g5
S'W'
sg6
((NNttp2229
sg8
I3434
sg9
F0.70413207320241356
sg10
I55
sg11
g12
(g14
S'\x94@\x9az\x15\xee\x82?'
tRp2230
sba(ibeta_strands
Comp
p2231
(dp2232
g5
S'V'
sg6
((NI1
ttp2233
sg8
I58926
sg10
I39
sba(ibeta_strands
Comp
p2234
(dp2235
g5
S'E'
sg6
((I-1
Nttp2236
sg8
I7420
sg10
I21
sba(ibeta_strands
Comp
p2237
(dp2238
g5
S'I'
sg6
((NI1
ttp2239
sg8
I43228
sg10
I21
sba(ibeta_strands
Comp
p2240
(dp2241
g5
S'A'
sg6
((NI1
ttp2242
sg8
I19771
sg10
I17
sba(ibeta_strands
Comp
p2243
(dp2244
g5
S'T'
sg6
((NI1
ttp2245
sg8
I15980
sg10
I16
sba(ibeta_strands
Comp
p2246
(dp2247
g5
S'E'
sg6
((NI1
ttp2248
sg8
I7430
sg10
I11
sba(ibeta_strands
Comp
p2249
(dp2250
g5
S'L'
sg6
((NI1
ttp2251
sg8
I39445
sg10
I11
sba(ibeta_strands
Comp
p2252
(dp2253
g5
S'D'
sg6
((I-1
Nttp2254
sg8
I8000
sg10
I10
sba(ibeta_strands
Comp
p2255
(dp2256
g5
S'Q'
sg6
((I-1
Nttp2257
sg8
I4334
sg10
I8
sba(ibeta_strands
Comp
p2258
(dp2259
g5
S'S'
sg6
((NI1
ttp2260
sg8
I10928
sg10
I8
sba(ibeta_strands
Comp
p2261
(dp2262
g5
S'G'
sg6
((NI1
ttp2263
sg8
I11543
sg10
I8
sba(ibeta_strands
Comp
p2264
(dp2265
g5
S'H'
sg6
((NI1
ttp2266
sg8
I5861
sg10
I7
sba(ibeta_strands
Comp
p2267
(dp2268
g5
S'K'
sg6
((I-1
Nttp2269
sg8
I6575
sg10
I7
sba(ibeta_strands
Comp
p2270
(dp2271
g5
S'R'
sg6
((NI1
ttp2272
sg8
I7422
sg10
I7
sba(ibeta_strands
Comp
p2273
(dp2274
g5
S'Y'
sg6
((NI1
ttp2275
sg8
I11099
sg10
I7
sba(ibeta_strands
Comp
p2276
(dp2277
g5
S'F'
sg6
((NI1
ttp2278
sg8
I17606
sg10
I7
sba(ibeta_strands
Comp
p2279
(dp2280
g5
S'C'
sg6
((NI1
ttp2281
sg8
I5175
sg10
I5
sba(ibeta_strands
Comp
p2282
(dp2283
g5
S'K'
sg6
((NI1
ttp2284
sg8
I6577
sg10
I5
sba(ibeta_strands
Comp
p2285
(dp2286
g5
S'W'
sg6
((NI1
ttp2287
sg8
I3485
sg10
I4
sba(ibeta_strands
Comp
p2288
(dp2289
g5
S'Q'
sg6
((NI1
ttp2290
sg8
I4339
sg10
I3
sba(ibeta_strands
Comp
p2291
(dp2292
g5
S'D'
sg6
((NI1
ttp2293
sg8
I8007
sg10
I3
sba(ibeta_strands
Comp
p2294
(dp2295
g5
S'S'
sg6
((I-1
Nttp2296
sg8
I10933
sg10
I3
sba(ibeta_strands
Comp
p2297
(dp2298
g5
S'A'
sg6
((I-1
Nttp2299
sg8
I19785
sg10
I3
sba(ibeta_strands
Comp
p2300
(dp2301
g5
S'I'
sg6
((I-1
Nttp2302
sg8
I43246
sg10
I3
sba(ibeta_strands
Comp
p2303
(dp2304
g5
S'M'
sg6
((NI1
ttp2305
sg8
I5359
sg10
I2
sba(ibeta_strands
Comp
p2306
(dp2307
g5
S'N'
sg6
((I-1
Nttp2308
sg8
I6581
sg10
I2
sba(ibeta_strands
Comp
p2309
(dp2310
g5
S'N'
sg6
((NI1
ttp2311
sg8
I6581
sg10
I2
sba(ibeta_strands
Comp
p2312
(dp2313
g5
S'T'
sg6
((I-1
Nttp2314
sg8
I15994
sg10
I2
sba(ibeta_strands
Comp
p2315
(dp2316
g5
S'W'
sg6
((I-1
Nttp2317
sg8
I3488
sg10
I1
sba(ibeta_strands
Comp
p2318
(dp2319
g5
S'P'
sg6
((NI1
ttp2320
sg8
I5056
sg10
I1
sba(ibeta_strands
Comp
p2321
(dp2322
g5
S'C'
sg6
((I-1
Nttp2323
sg8
I5179
sg10
I1
sba(ibeta_strands
Comp
p2324
(dp2325
g5
S'M'
sg6
((I-1
Nttp2326
sg8
I5360
sg10
I1
sba(ibeta_strands
Comp
p2327
(dp2328
g5
S'H'
sg6
((I-1
Nttp2329
sg8
I5867
sg10
I1
sba(ibeta_strands
Comp
p2330
(dp2331
g5
S'E'
sg6
((I1
Nttp2332
sg8
I7440
sg10
I1
sba(ibeta_strands
Comp
p2333
(dp2334
g5
S'Y'
sg6
((I-1
Nttp2335
sg8
I11105
sg10
I1
sba(ibeta_strands
Comp
p2336
(dp2337
g5
S'G'
sg6
((I-1
Nttp2338
sg8
I11550
sg10
I1
sba(ibeta_strands
Comp
p2339
(dp2340
g5
S'F'
sg6
((I-1
Nttp2341
sg8
I17612
sg10
I1
sba(ibeta_strands
Comp
p2342
(dp2343
g5
S'V'
sg6
((I-1
Nttp2344
sg8
I58964
sg10
I1
sbasS'M'
(lp2345
(ibeta_strands
Comp
p2346
(dp2347
g5
S'V'
sg6
((I-1
I1
ttp2348
sg8
I57849
sg9
F0.93914163417053531
sg10
I1116
sg11
g12
(g14
S'}\x1c\xdb\x98\x82\xe1\x92?'
tRp2349
sba(ibeta_strands
Comp
p2350
(dp2351
g5
S'V'
sg6
((NNttp2352
sg8
I58026
sg9
F0.87332474743513255
sg10
I939
sg11
g12
(g14
S'>\t\x87}\xc6\x19\xc9>'
tRp2353
sba(ibeta_strands
Comp
p2354
(dp2355
g5
S'I'
sg6
((I-1
I1
ttp2356
sg8
I42386
sg9
F0.99013845502137754
sg10
I863
sg11
g12
(g14
S' /\xc5j\xf8r\xe8?'
tRp2357
sba(ibeta_strands
Comp
p2358
(dp2359
g5
S'L'
sg6
((I-1
I1
ttp2360
sg8
I38612
sg9
F1.0614281325326087
sg10
I844
sg11
g12
(g14
S'\xda\x14\xda\xc4\x1d\x00\xb0?'
tRp2361
sba(ibeta_strands
Comp
p2362
(dp2363
g5
S'I'
sg6
((NNttp2364
sg8
I42405
sg9
F1.0702145571591914
sg10
I844
sg11
g12
(g14
S'1\xe3\xdb\x19)\xc2\xa0?'
tRp2365
sba(ibeta_strands
Comp
p2366
(dp2367
g5
S'L'
sg6
((NNttp2368
sg8
I38683
sg9
F1.0744121639826731
sg10
I773
sg11
g12
(g14
S'\xbf\xf4\xe6\xd5\x8a_\xa0?'
tRp2369
sba(ibeta_strands
Comp
p2370
(dp2371
g5
S'F'
sg6
((NNttp2372
sg8
I17230
sg9
F1.1925316563572932
sg10
I383
sg11
g12
(g14
S'\x0f\xab\x18\xb1\x99\x138?'
tRp2373
sba(ibeta_strands
Comp
p2374
(dp2375
g5
S'A'
sg6
((I-1
I1
ttp2376
sg8
I19427
sg9
F0.90524576694188164
sg10
I361
sg11
g12
(g14
S'\x8c\xd8Q\xdf\xa9\xf8\xa9?'
tRp2377
sba(ibeta_strands
Comp
p2378
(dp2379
g5
S'F'
sg6
((I-1
I1
ttp2380
sg8
I17259
sg9
F0.99731219458289644
sg10
I354
sg11
g12
(g14
S'\xe4\xa4\xbd\x83\xd7[\xef?'
tRp2381
sba(ibeta_strands
Comp
p2382
(dp2383
g5
S'G'
sg6
((I-1
I1
ttp2384
sg8
I11214
sg9
F1.4476764829309035
sg10
I337
sg11
g12
(g14
S'\xd0t\xb3f\x8eX\x85='
tRp2385
sba(ibeta_strands
Comp
p2386
(dp2387
g5
S'G'
sg6
((NNttp2388
sg8
I11231
sg9
F1.5192696845377782
sg10
I320
sg11
g12
(g14
S'\xec:vWbR\t='
tRp2389
sba(ibeta_strands
Comp
p2390
(dp2391
g5
S'A'
sg6
((NNttp2392
sg8
I19468
sg9
F0.88685486790458246
sg10
I320
sg11
g12
(g14
S'\xb7d\xf1\xb4D(\x9b?'
tRp2393
sba(ibeta_strands
Comp
p2394
(dp2395
g5
S'T'
sg6
((I-1
I1
ttp2396
sg8
I15707
sg9
F0.89649454179249122
sg10
I289
sg11
g12
(g14
S'V\x9a\x90oqA\xad?'
tRp2397
sba(ibeta_strands
Comp
p2398
(dp2399
g5
S'T'
sg6
((NNttp2400
sg8
I15749
sg9
F0.8468179113422265
sg10
I247
sg11
g12
(g14
S'\xf37\xc3\xdb\xf8\xb8}?'
tRp2401
sba(ibeta_strands
Comp
p2402
(dp2403
g5
S'Y'
sg6
((I-1
I1
ttp2404
sg8
I10881
sg9
F1.0052777062323477
sg10
I225
sg11
g12
(g14
S'\xa9\xe8\x02W\x87\xcd\xee?'
tRp2405
sba(ibeta_strands
Comp
p2406
(dp2407
g5
S'Y'
sg6
((NNttp2408
sg8
I10897
sg9
F1.0320318359316019
sg10
I209
sg11
g12
(g14
S'}\xc9\xf2x\xbbH\xe5?'
tRp2409
sba(ibeta_strands
Comp
p2410
(dp2411
g5
S'S'
sg6
((I-1
I1
ttp2412
sg8
I10748
sg9
F0.85302262481439206
sg10
I188
sg11
g12
(g14
S'\x01\x9a(\xc6\xb0\x99\x9b?'
tRp2413
sba(ibeta_strands
Comp
p2414
(dp2415
g5
S'S'
sg6
((NNttp2416
sg8
I10750
sg9
F0.93273638883442112
sg10
I186
sg11
g12
(g14
S'\xbe2\xbf \x1d4\xd6?'
tRp2417
sba(ibeta_strands
Comp
p2418
(dp2419
g5
S'M'
sg6
((NNttp2420
sg8
I5179
sg9
F1.8617872778804385
sg10
I182
sg11
g12
(g14
S'\xb8O\xe8\xc8}\xf4\\<'
tRp2421
sba(ibeta_strands
Comp
p2422
(dp2423
g5
S'M'
sg6
((I-1
I1
ttp2424
sg8
I5193
sg9
F1.5549795324338032
sg10
I168
sg11
g12
(g14
S'\x8c\xac[\xb6Cd7>'
tRp2425
sba(ibeta_strands
Comp
p2426
(dp2427
g5
S'D'
sg6
((I-1
I1
ttp2428
sg8
I7860
sg9
F0.92922298838255957
sg10
I150
sg11
g12
(g14
S'\xa8\xe0)|d7\xd8?'
tRp2429
sba(ibeta_strands
Comp
p2430
(dp2431
g5
S'R'
sg6
((NNttp2432
sg8
I7282
sg9
F1.0851541957767254
sg10
I147
sg11
g12
(g14
S'\xbej \xe1\x84F\xd5?'
tRp2433
sba(ibeta_strands
Comp
p2434
(dp2435
g5
S'N'
sg6
((I-1
I1
ttp2436
sg8
I6439
sg9
F1.0854250480732996
sg10
I144
sg11
g12
(g14
S'&>\xc9\x94\x80\x89\xd5?'
tRp2437
sba(ibeta_strands
Comp
p2438
(dp2439
g5
S'R'
sg6
((I-1
I1
ttp2440
sg8
I7291
sg9
F0.92174317485378354
sg10
I138
sg11
g12
(g14
S'\x8a\xf7\x14^\xd9H\xd6?'
tRp2441
sba(ibeta_strands
Comp
p2442
(dp2443
g5
S'H'
sg6
((NNttp2444
sg8
I5739
sg9
F1.205602341229107
sg10
I129
sg11
g12
(g14
S'Z]\xcb\xdfiu\xa1?'
tRp2445
sba(ibeta_strands
Comp
p2446
(dp2447
g5
S'E'
sg6
((NNttp2448
sg8
I7321
sg9
F0.88441157738018461
sg10
I120
sg11
g12
(g14
S'\xb8kq\xcb\x82b\xc7?'
tRp2449
sba(ibeta_strands
Comp
p2450
(dp2451
g5
S'K'
sg6
((I-1
I1
ttp2452
sg8
I6465
sg9
F0.88204183938264302
sg10
I117
sg11
g12
(g14
S'\x84(\x870<\xe9\xc6?'
tRp2453
sba(ibeta_strands
Comp
p2454
(dp2455
g5
S'H'
sg6
((I-1
I1
ttp2456
sg8
I5755
sg9
F0.95554147179584881
sg10
I113
sg11
g12
(g14
S'\xaeI\x8a+\xc5\xf7\xe4?'
tRp2457
sba(ibeta_strands
Comp
p2458
(dp2459
g5
S'D'
sg6
((NNttp2460
sg8
I7902
sg9
F0.73942770194224194
sg10
I108
sg11
g12
(g14
S'B\xed3O\xa6\x1eX?'
tRp2461
sba(ibeta_strands
Comp
p2462
(dp2463
g5
S'P'
sg6
((I-1
I1
ttp2464
sg8
I4951
sg9
F1.0400976475065533
sg10
I106
sg11
g12
(g14
S'\x1a\x02~c2\xf4\xe6?'
tRp2465
sba(ibeta_strands
Comp
p2466
(dp2467
g5
S'C'
sg6
((I-1
I1
ttp2468
sg8
I5080
sg9
F0.95792485674958849
sg10
I100
sg11
g12
(g14
S'\xc2_\x9e,3T\xe6?'
tRp2469
sba(ibeta_strands
Comp
p2470
(dp2471
g5
S'Q'
sg6
((NNttp2472
sg8
I4243
sg9
F1.2504025567735866
sg10
I99
sg11
g12
(g14
S')\x9d\x8d\xdf\xcb\xdf\x9b?'
tRp2473
sba(ibeta_strands
Comp
p2474
(dp2475
g5
S'C'
sg6
((NNttp2476
sg8
I5083
sg9
F1.0269432675140566
sg10
I97
sg11
g12
(g14
S'fb\xf5\xfa=\x92\xea?'
tRp2477
sba(ibeta_strands
Comp
p2478
(dp2479
g5
S'K'
sg6
((NNttp2480
sg8
I6490
sg9
F0.76653930207422738
sg10
I92
sg11
g12
(g14
S'\xa0\x07\x87\xc2\x8f/\x85?'
tRp2481
sba(ibeta_strands
Comp
p2482
(dp2483
g5
S'W'
sg6
((NNttp2484
sg8
I3399
sg9
F1.4146402724174449
sg10
I90
sg11
g12
(g14
S'\xfe=\xb5\xd5#,P?'
tRp2485
sba(ibeta_strands
Comp
p2486
(dp2487
g5
S'E'
sg6
((I-1
I1
ttp2488
sg8
I7352
sg9
F0.593498881143254
sg10
I89
sg11
g12
(g14
S'\xb305-6B\x9d>'
tRp2489
sba(ibeta_strands
Comp
p2490
(dp2491
g5
S'Q'
sg6
((I-1
I1
ttp2492
sg8
I4257
sg9
F0.97138257583335752
sg10
I85
sg11
g12
(g14
S'\x84(w\x13\xday\xea?'
tRp2493
sba(ibeta_strands
Comp
p2494
(dp2495
g5
S'W'
sg6
((I-1
I1
ttp2496
sg8
I3405
sg9
F1.1946467860959613
sg10
I84
sg11
g12
(g14
S'\x81\t\x92\xf6P(\xbc?'
tRp2497
sba(ibeta_strands
Comp
p2498
(dp2499
g5
S'N'
sg6
((NNttp2500
sg8
I6507
sg9
F0.63313192768460747
sg10
I76
sg11
g12
(g14
S'~\x8b\x83t2%\n?'
tRp2501
sba(ibeta_strands
Comp
p2502
(dp2503
g5
S'I'
sg6
((NI1
ttp2504
sg8
I43216
sg10
I33
sba(ibeta_strands
Comp
p2505
(dp2506
g5
S'V'
sg6
((NI1
ttp2507
sg8
I58950
sg10
I15
sba(ibeta_strands
Comp
p2508
(dp2509
g5
S'G'
sg6
((NI1
ttp2510
sg8
I11538
sg10
I13
sba(ibeta_strands
Comp
p2511
(dp2512
g5
S'L'
sg6
((NI1
ttp2513
sg8
I39446
sg10
I10
sba(ibeta_strands
Comp
p2514
(dp2515
g5
S'A'
sg6
((NI1
ttp2516
sg8
I19782
sg10
I6
sba(ibeta_strands
Comp
p2517
(dp2518
g5
S'S'
sg6
((NI1
ttp2519
sg8
I10931
sg10
I5
sba(ibeta_strands
Comp
p2520
(dp2521
g5
S'T'
sg6
((NI1
ttp2522
sg8
I15992
sg10
I4
sba(ibeta_strands
Comp
p2523
(dp2524
g5
S'F'
sg6
((NI1
ttp2525
sg8
I17609
sg10
I4
sba(ibeta_strands
Comp
p2526
(dp2527
g5
S'C'
sg6
((NI1
ttp2528
sg8
I5177
sg10
I3
sba(ibeta_strands
Comp
p2529
(dp2530
g5
S'S'
sg6
((I-1
Nttp2531
sg8
I10933
sg10
I3
sba(ibeta_strands
Comp
p2532
(dp2533
g5
S'W'
sg6
((NI1
ttp2534
sg8
I3487
sg10
I2
sba(ibeta_strands
Comp
p2535
(dp2536
g5
S'Q'
sg6
((I-1
Nttp2537
sg8
I4340
sg10
I2
sba(ibeta_strands
Comp
p2538
(dp2539
g5
S'P'
sg6
((NI1
ttp2540
sg8
I5055
sg10
I2
sba(ibeta_strands
Comp
p2541
(dp2542
g5
S'C'
sg6
((I-1
Nttp2543
sg8
I5178
sg10
I2
sba(ibeta_strands
Comp
p2544
(dp2545
g5
S'N'
sg6
((NI1
ttp2546
sg8
I6581
sg10
I2
sba(ibeta_strands
Comp
p2547
(dp2548
g5
S'E'
sg6
((NI1
ttp2549
sg8
I7439
sg10
I2
sba(ibeta_strands
Comp
p2550
(dp2551
g5
S'E'
sg6
((I-1
Nttp2552
sg8
I7439
sg10
I2
sba(ibeta_strands
Comp
p2553
(dp2554
g5
S'Y'
sg6
((I-1
Nttp2555
sg8
I11104
sg10
I2
sba(ibeta_strands
Comp
p2556
(dp2557
g5
S'T'
sg6
((I-1
Nttp2558
sg8
I15994
sg10
I2
sba(ibeta_strands
Comp
p2559
(dp2560
g5
S'Q'
sg6
((NI1
ttp2561
sg8
I4341
sg10
I1
sba(ibeta_strands
Comp
p2562
(dp2563
g5
S'M'
sg6
((NI1
ttp2564
sg8
I5360
sg10
I1
sba(ibeta_strands
Comp
p2565
(dp2566
g5
S'H'
sg6
((NI1
ttp2567
sg8
I5867
sg10
I1
sba(ibeta_strands
Comp
p2568
(dp2569
g5
S'H'
sg6
((I-1
Nttp2570
sg8
I5867
sg10
I1
sba(ibeta_strands
Comp
p2571
(dp2572
g5
S'K'
sg6
((I-1
Nttp2573
sg8
I6581
sg10
I1
sba(ibeta_strands
Comp
p2574
(dp2575
g5
S'K'
sg6
((NI1
ttp2576
sg8
I6581
sg10
I1
sba(ibeta_strands
Comp
p2577
(dp2578
g5
S'R'
sg6
((NI1
ttp2579
sg8
I7428
sg10
I1
sba(ibeta_strands
Comp
p2580
(dp2581
g5
S'F'
sg6
((I-1
Nttp2582
sg8
I17612
sg10
I1
sba(ibeta_strands
Comp
p2583
(dp2584
g5
S'I'
sg6
((I-1
Nttp2585
sg8
I43248
sg10
I1
sbasS'L'
(lp2586
(ibeta_strands
Comp
p2587
(dp2588
g5
S'V'
sg6
((I-1
I1
ttp2589
sg8
I49602
sg9
F1.1585254261317655
sg10
I9363
sg11
g12
(g14
S'\x1c+\xd5\xc2g\\]2'
tRp2590
sba(ibeta_strands
Comp
p2591
(dp2592
g5
S'V'
sg6
((NNttp2593
sg8
I51339
sg9
F0.96369527120608267
sg10
I7626
sg11
g12
(g14
S'\xc4\xdf\xe7?,\xf0\x1b?'
tRp2594
sba(ibeta_strands
Comp
p2595
(dp2596
g5
S'I'
sg6
((I-1
I1
ttp2597
sg8
I35838
sg9
F1.2502175534618409
sg10
I7411
sg11
g12
(g14
S'\xa7Cw,\xbd6\xe1('
tRp2598
sba(ibeta_strands
Comp
p2599
(dp2600
g5
S'L'
sg6
((I-1
I1
ttp2601
sg8
I32139
sg9
F1.3530219721209527
sg10
I7317
sg11
g12
(g14
S'\xb4\x0fE\xdc\x14B\xe6\x16'
tRp2602
sba(ibeta_strands
Comp
p2603
(dp2604
g5
S'L'
sg6
((NNttp2605
sg8
I32305
sg9
F1.3504886948612236
sg10
I7151
sg11
g12
(g14
S'\xe3\xd7\xce\x9e*.\x82\x18'
tRp2606
sba(ibeta_strands
Comp
p2607
(dp2608
g5
S'I'
sg6
((NNttp2609
sg8
I36578
sg9
F1.1493494711502641
sg10
I6671
sg11
g12
(g14
S'\x12\xba\xe4i\x03\x90\xc87'
tRp2610
sba(ibeta_strands
Comp
p2611
(dp2612
g5
S'A'
sg6
((NNttp2613
sg8
I16825
sg9
F1.1157502161804012
sg10
I2963
sg11
g12
(g14
S'k1\x06>\x1a\xd4\xc2='
tRp2614
sba(ibeta_strands
Comp
p2615
(dp2616
g5
S'A'
sg6
((I-1
I1
ttp2617
sg8
I16968
sg9
F1.0397574858503011
sg10
I2820
sg11
g12
(g14
S'^\x82\x90l\xce\x14\x96?'
tRp2618
sba(ibeta_strands
Comp
p2619
(dp2620
g5
S'F'
sg6
((NNttp2621
sg8
I15439
sg9
F0.91973652668168093
sg10
I2174
sg11
g12
(g14
S'\x01;|\x06i\xd0\xf0>'
tRp2622
sba(ibeta_strands
Comp
p2623
(dp2624
g5
S'G'
sg6
((NNttp2625
sg8
I9458
sg9
F1.350165089121673
sg10
I2093
sg11
g12
(g14
S'#\xca\x95(\x11\x90b5'
tRp2626
sba(ibeta_strands
Comp
p2627
(dp2628
g5
S'F'
sg6
((I-1
I1
ttp2629
sg8
I15598
sg9
F0.83469260247732902
sg10
I2015
sg11
g12
(g14
S'\xe9\xc0\xcc\xd3q\xb3\x0e<'
tRp2630
sba(ibeta_strands
Comp
p2631
(dp2632
g5
S'T'
sg6
((NNttp2633
sg8
I14175
sg9
F0.84827326623322497
sg10
I1821
sg11
g12
(g14
S'\x05\xec\xe1\x1a\x1a\x81\x03='
tRp2634
sba(ibeta_strands
Comp
p2635
(dp2636
g5
S'T'
sg6
((I-1
I1
ttp2637
sg8
I14471
sg9
F0.69557393167571113
sg10
I1525
sg11
g12
(g14
S'\xa6\xda\xa9\x87W\xf5r4'
tRp2638
sba(ibeta_strands
Comp
p2639
(dp2640
g5
S'Y'
sg6
((NNttp2641
sg8
I9621
sg9
F0.99633643976229058
sg10
I1485
sg11
g12
(g14
S'\x0c.\xa5\x9f\xebj\xec?'
tRp2642
sba(ibeta_strands
Comp
p2643
(dp2644
g5
S'G'
sg6
((I-1
I1
ttp2645
sg8
I10203
sg9
F0.85144217298578317
sg10
I1348
sg11
g12
(g14
S'\x08\xd9\xfb\xdb\x9fP\xd9='
tRp2646
sba(ibeta_strands
Comp
p2647
(dp2648
g5
S'Y'
sg6
((I-1
I1
ttp2649
sg8
I10008
sg9
F0.72132256797955763
sg10
I1098
sg11
g12
(g14
S'\x9f\xb00\x9c&,H9'
tRp2650
sba(ibeta_strands
Comp
p2651
(dp2652
g5
S'S'
sg6
((I-1
I1
ttp2653
sg8
I9925
sg9
F0.67449308752003356
sg10
I1011
sg11
g12
(g14
S'\x85\x1bB\x90S\xb6\x127'
tRp2654
sba(ibeta_strands
Comp
p2655
(dp2656
g5
S'S'
sg6
((NNttp2657
sg8
I10032
sg9
F0.6159524099813054
sg10
I904
sg11
g12
(g14
S'\xec\x99\xde\xcc\xeb\x80\xf93'
tRp2658
sba(ibeta_strands
Comp
p2659
(dp2660
g5
S'E'
sg6
((NNttp2661
sg8
I6549
sg9
F0.89324538219176031
sg10
I892
sg11
g12
(g14
S'\xc7\xc8\xff9\xed\xd80?'
tRp2662
sba(ibeta_strands
Comp
p2663
(dp2664
g5
S'M'
sg6
((NNttp2665
sg8
I4509
sg9
F1.1842162531865945
sg10
I852
sg11
g12
(g14
S'Fv\xac\xedP\x0ey>'
tRp2666
sba(ibeta_strands
Comp
p2667
(dp2668
g5
S'R'
sg6
((NNttp2669
sg8
I6626
sg9
F0.80542001316163381
sg10
I803
sg11
g12
(g14
S'\xd8\xc1\xb7rm\xfc\xbb='
tRp2670
sba(ibeta_strands
Comp
p2671
(dp2672
g5
S'M'
sg6
((I-1
I1
ttp2673
sg8
I4590
sg9
F1.0492848925477305
sg10
I771
sg11
g12
(g14
S'\xa4\xab<\xb7\xe2}\xc3?'
tRp2674
sba(ibeta_strands
Comp
p2675
(dp2676
g5
S'K'
sg6
((NNttp2677
sg8
I5823
sg9
F0.8592531398764307
sg10
I759
sg11
g12
(g14
S'\x06\xaeT5p\xe9\xd8>'
tRp2678
sba(ibeta_strands
Comp
p2679
(dp2680
g5
S'D'
sg6
((I-1
I1
ttp2681
sg8
I7327
sg9
F0.62211838622793914
sg10
I683
sg11
g12
(g14
S'\x15g\xcd\x88\\&F7'
tRp2682
sba(ibeta_strands
Comp
p2683
(dp2684
g5
S'C'
sg6
((I-1
I1
ttp2685
sg8
I4528
sg9
F0.91833827437524007
sg10
I652
sg11
g12
(g14
S'\x88\x8apX\xb5\x95\x93?'
tRp2686
sba(ibeta_strands
Comp
p2687
(dp2688
g5
S'E'
sg6
((I-1
I1
ttp2689
sg8
I6789
sg9
F0.63929475356319621
sg10
I652
sg11
g12
(g14
S'=5{\x197\x92\x968'
tRp2690
sba(ibeta_strands
Comp
p2691
(dp2692
g5
S'D'
sg6
((NNttp2693
sg8
I7369
sg9
F0.59629716326813698
sg10
I641
sg11
g12
(g14
S'\xbeh\xe4*\x82IQ6'
tRp2694
sba(ibeta_strands
Comp
p2695
(dp2696
g5
S'R'
sg6
((I-1
I1
ttp2697
sg8
I6799
sg9
F0.61872126160292029
sg10
I630
sg11
g12
(g14
S'\x04%O\xcds\x94\xc37'
tRp2698
sba(ibeta_strands
Comp
p2699
(dp2700
g5
S'H'
sg6
((NNttp2701
sg8
I5256
sg9
F0.77713871847307425
sg10
I612
sg11
g12
(g14
S'ozn\xacEO\xac='
tRp2702
sba(ibeta_strands
Comp
p2703
(dp2704
g5
S'Q'
sg6
((NNttp2705
sg8
I3774
sg9
F0.97475561697118596
sg10
I568
sg11
g12
(g14
S'2\xe4\xf6K\xa0\xc3\xe0?'
tRp2706
sba(ibeta_strands
Comp
p2707
(dp2708
g5
S'C'
sg6
((NNttp2709
sg8
I4616
sg9
F0.81130952380952381
sg10
I564
sg11
g12
(g14
S'\xd9Wd\xc3\xea\xaet>'
tRp2710
sba(ibeta_strands
Comp
p2711
(dp2712
g5
S'P'
sg6
((I-1
I1
ttp2713
sg8
I4505
sg9
F0.79639949005193145
sg10
I552
sg11
g12
(g14
S'%,g\xbcPl<>'
tRp2714
sba(ibeta_strands
Comp
p2715
(dp2716
g5
S'W'
sg6
((NNttp2717
sg8
I3010
sg9
F1.0229909079328683
sg10
I479
sg11
g12
(g14
S'\x8d\xba\xf0C\x03u\xe3?'
tRp2718
sba(ibeta_strands
Comp
p2719
(dp2720
g5
S'H'
sg6
((I-1
I1
ttp2721
sg8
I5390
sg9
F0.59432314102590045
sg10
I478
sg11
g12
(g14
S'\x9e\xbc\xd1\x1f\xe5\xd6\xa58'
tRp2722
sba(ibeta_strands
Comp
p2723
(dp2724
g5
S'K'
sg6
((I-1
I1
ttp2725
sg8
I6123
sg9
F0.50879127680438607
sg10
I459
sg11
g12
(g14
S'\xbe\x9d\xec\x8b\x92J\x0e4'
tRp2726
sba(ibeta_strands
Comp
p2727
(dp2728
g5
S'N'
sg6
((I-1
I1
ttp2729
sg8
I6138
sg9
F0.4931976573471839
sg10
I445
sg11
g12
(g14
S'\xdc\x06\x9f_\x04\xddL3'
tRp2730
sba(ibeta_strands
Comp
p2731
(dp2732
g5
S'N'
sg6
((NNttp2733
sg8
I6185
sg9
F0.4505017131669114
sg10
I398
sg11
g12
(g14
S'\xcb\tf71\x08y1'
tRp2734
sba(ibeta_strands
Comp
p2735
(dp2736
g5
S'Q'
sg6
((I-1
I1
ttp2737
sg8
I3973
sg9
F0.62004241083888889
sg10
I369
sg11
g12
(g14
S'h\x99\x88L\x9f\xe9*;'
tRp2738
sba(ibeta_strands
Comp
p2739
(dp2740
g5
S'W'
sg6
((I-1
I1
ttp2741
sg8
I3159
sg9
F0.69007742397097072
sg10
I330
sg11
g12
(g14
S'Q]\xba\xdb@\x19R='
tRp2742
sba(ibeta_strands
Comp
p2743
(dp2744
g5
S'V'
sg6
((NI1
ttp2745
sg8
I58887
sg10
I78
sba(ibeta_strands
Comp
p2746
(dp2747
g5
S'I'
sg6
((NI1
ttp2748
sg8
I43185
sg10
I64
sba(ibeta_strands
Comp
p2749
(dp2750
g5
S'A'
sg6
((NI1
ttp2751
sg8
I19753
sg10
I35
sba(ibeta_strands
Comp
p2752
(dp2753
g5
S'L'
sg6
((NI1
ttp2754
sg8
I39427
sg10
I29
sba(ibeta_strands
Comp
p2755
(dp2756
g5
S'S'
sg6
((I-1
Nttp2757
sg8
I10916
sg10
I20
sba(ibeta_strands
Comp
p2758
(dp2759
g5
S'I'
sg6
((I-1
Nttp2760
sg8
I43232
sg10
I17
sba(ibeta_strands
Comp
p2761
(dp2762
g5
S'R'
sg6
((NI1
ttp2763
sg8
I7413
sg10
I16
sba(ibeta_strands
Comp
p2764
(dp2765
g5
S'G'
sg6
((NI1
ttp2766
sg8
I11535
sg10
I16
sba(ibeta_strands
Comp
p2767
(dp2768
g5
S'A'
sg6
((I-1
Nttp2769
sg8
I19773
sg10
I15
sba(ibeta_strands
Comp
p2770
(dp2771
g5
S'F'
sg6
((NI1
ttp2772
sg8
I17600
sg10
I13
sba(ibeta_strands
Comp
p2773
(dp2774
g5
S'F'
sg6
((I-1
Nttp2775
sg8
I17600
sg10
I13
sba(ibeta_strands
Comp
p2776
(dp2777
g5
S'V'
sg6
((I-1
Nttp2778
sg8
I58953
sg10
I12
sba(ibeta_strands
Comp
p2779
(dp2780
g5
S'L'
sg6
((I-1
Nttp2781
sg8
I39445
sg10
I11
sba(ibeta_strands
Comp
p2782
(dp2783
g5
S'S'
sg6
((NI1
ttp2784
sg8
I10928
sg10
I8
sba(ibeta_strands
Comp
p2785
(dp2786
g5
S'Y'
sg6
((NI1
ttp2787
sg8
I11098
sg10
I8
sba(ibeta_strands
Comp
p2788
(dp2789
g5
S'T'
sg6
((I-1
Nttp2790
sg8
I15988
sg10
I8
sba(ibeta_strands
Comp
p2791
(dp2792
g5
S'T'
sg6
((NI1
ttp2793
sg8
I15988
sg10
I8
sba(ibeta_strands
Comp
p2794
(dp2795
g5
S'N'
sg6
((NI1
ttp2796
sg8
I6576
sg10
I7
sba(ibeta_strands
Comp
p2797
(dp2798
g5
S'E'
sg6
((NI1
ttp2799
sg8
I7435
sg10
I6
sba(ibeta_strands
Comp
p2800
(dp2801
g5
S'E'
sg6
((I-1
Nttp2802
sg8
I7435
sg10
I6
sba(ibeta_strands
Comp
p2803
(dp2804
g5
S'C'
sg6
((NI1
ttp2805
sg8
I5175
sg10
I5
sba(ibeta_strands
Comp
p2806
(dp2807
g5
S'Y'
sg6
((I-1
Nttp2808
sg8
I11101
sg10
I5
sba(ibeta_strands
Comp
p2809
(dp2810
g5
S'K'
sg6
((NI1
ttp2811
sg8
I6578
sg10
I4
sba(ibeta_strands
Comp
p2812
(dp2813
g5
S'P'
sg6
((NI1
ttp2814
sg8
I5054
sg10
I3
sba(ibeta_strands
Comp
p2815
(dp2816
g5
S'N'
sg6
((I-1
Nttp2817
sg8
I6580
sg10
I3
sba(ibeta_strands
Comp
p2818
(dp2819
g5
S'D'
sg6
((I-1
Nttp2820
sg8
I8007
sg10
I3
sba(ibeta_strands
Comp
p2821
(dp2822
g5
S'G'
sg6
((I-1
Nttp2823
sg8
I11548
sg10
I3
sba(ibeta_strands
Comp
p2824
(dp2825
g5
S'C'
sg6
((I-1
Nttp2826
sg8
I5178
sg10
I2
sba(ibeta_strands
Comp
p2827
(dp2828
g5
S'M'
sg6
((NI1
ttp2829
sg8
I5359
sg10
I2
sba(ibeta_strands
Comp
p2830
(dp2831
g5
S'M'
sg6
((I-1
Nttp2832
sg8
I5359
sg10
I2
sba(ibeta_strands
Comp
p2833
(dp2834
g5
S'H'
sg6
((NI1
ttp2835
sg8
I5866
sg10
I2
sba(ibeta_strands
Comp
p2836
(dp2837
g5
S'H'
sg6
((I-1
Nttp2838
sg8
I5866
sg10
I2
sba(ibeta_strands
Comp
p2839
(dp2840
g5
S'K'
sg6
((I-1
Nttp2841
sg8
I6580
sg10
I2
sba(ibeta_strands
Comp
p2842
(dp2843
g5
S'D'
sg6
((NI1
ttp2844
sg8
I8008
sg10
I2
sba(ibeta_strands
Comp
p2845
(dp2846
g5
S'W'
sg6
((NI1
ttp2847
sg8
I3488
sg10
I1
sba(ibeta_strands
Comp
p2848
(dp2849
g5
S'W'
sg6
((I-1
Nttp2850
sg8
I3488
sg10
I1
sba(ibeta_strands
Comp
p2851
(dp2852
g5
S'Q'
sg6
((NI1
ttp2853
sg8
I4341
sg10
I1
sba(ibeta_strands
Comp
p2854
(dp2855
g5
S'P'
sg6
((I-1
Nttp2856
sg8
I5056
sg10
I1
sba(ibeta_strands
Comp
p2857
(dp2858
g5
S'R'
sg6
((I1
I1
ttp2859
sg8
I7428
sg10
I1
sba(ibeta_strands
Comp
p2860
(dp2861
g5
S'G'
sg6
((I-1
I-1
ttp2862
sg8
I11550
sg10
I1
sba(ibeta_strands
Comp
p2863
(dp2864
g5
S'L'
sg6
((NI-1
ttp2865
sg8
I39455
sg10
I1
sba(ibeta_strands
Comp
p2866
(dp2867
g5
S'I'
sg6
((I1
I1
ttp2868
sg8
I43248
sg10
I1
sbasS'N'
(lp2869
(ibeta_strands
Comp
p2870
(dp2871
g5
S'T'
sg6
((I-1
I1
ttp2872
sg8
I15083
sg9
F2.5151593638842322
sg10
I913
sg11
g12
(g14
S'\xa6\xdeM\xaf6y\x01\x17'
tRp2873
sba(ibeta_strands
Comp
p2874
(dp2875
g5
S'N'
sg6
((NNttp2876
sg8
I5728
sg9
F5.8005435171757984
sg10
I855
sg11
g12
(g14
S'\x00\x00\x00\x00\x00\x00\x00\x00'
tRp2877
sba(ibeta_strands
Comp
p2878
(dp2879
g5
S'N'
sg6
((I-1
I1
ttp2880
sg8
I5771
sg9
F5.4354849779802326
sg10
I812
sg11
g12
(g14
S'\x00\x00\x00\x00\x00\x00\x00\x00'
tRp2881
sba(ibeta_strands
Comp
p2882
(dp2883
g5
S'D'
sg6
((I-1
I1
ttp2884
sg8
I7392
sg9
F3.3998682255258372
sg10
I618
sg11
g12
(g14
S'[\x80\x89\xd6A\xa1\r\x0e'
tRp2885
sba(ibeta_strands
Comp
p2886
(dp2887
g5
S'V'
sg6
((NNttp2888
sg8
I58368
sg9
F0.45217490701383001
sg10
I597
sg11
g12
(g14
S'\xc5\x9e\xbe\x11;L\xcf('
tRp2889
sba(ibeta_strands
Comp
p2890
(dp2891
g5
S'V'
sg6
((I-1
I1
ttp2892
sg8
I58381
sg9
F0.43644012341515148
sg10
I584
sg11
g12
(g14
S"gc\xd3\r|\xb0\x14'"
tRp2893
sba(ibeta_strands
Comp
p2894
(dp2895
g5
S'T'
sg6
((NNttp2896
sg8
I15422
sg9
F1.6026065987862603
sg10
I574
sg11
g12
(g14
S'\xd6\xed\xcbj\xe3\xe2`9'
tRp2897
sba(ibeta_strands
Comp
p2898
(dp2899
g5
S'S'
sg6
((I-1
I1
ttp2900
sg8
I10450
sg9
F1.9583210554287775
sg10
I486
sg11
g12
(g14
S'N\xff\x9d\x19^G\xc94'
tRp2901
sba(ibeta_strands
Comp
p2902
(dp2903
g5
S'I'
sg6
((NNttp2904
sg8
I42769
sg9
F0.49566881585100442
sg10
I480
sg11
g12
(g14
S'q\xaf\xb9:\xc4\x1f^2'
tRp2905
sba(ibeta_strands
Comp
p2906
(dp2907
g5
S'L'
sg6
((NNttp2908
sg8
I39004
sg9
F0.51162506118453255
sg10
I452
sg11
g12
(g14
S'\xc1`\x06+>\rw4'
tRp2909
sba(ibeta_strands
Comp
p2910
(dp2911
g5
S'S'
sg6
((NNttp2912
sg8
I10501
sg9
F1.776467166598455
sg10
I435
sg11
g12
(g14
S'E\xf6Y\xabb?\xa68'
tRp2913
sba(ibeta_strands
Comp
p2914
(dp2915
g5
S'I'
sg6
((I-1
I1
ttp2916
sg8
I42838
sg9
F0.4187664471107686
sg10
I411
sg11
g12
(g14
S'"\x94\x93\x088\t\xb6-'
tRp2917
sba(ibeta_strands
Comp
p2918
(dp2919
g5
S'R'
sg6
((NNttp2920
sg8
I7029
sg9
F2.4046731970139641
sg10
I400
sg11
g12
(g14
S'\xc6,\x0c\x9a\xbe\xbe00'
tRp2921
sba(ibeta_strands
Comp
p2922
(dp2923
g5
S'L'
sg6
((I-1
I1
ttp2924
sg8
I39059
sg9
F0.44338763498816086
sg10
I397
sg11
g12
(g14
S'Y\xe8\xcd\xde\x04\xa3\xe10'
tRp2925
sba(ibeta_strands
Comp
p2926
(dp2927
g5
S'A'
sg6
((NNttp2928
sg8
I19443
sg9
F0.77865239378825235
sg10
I345
sg11
g12
(g14
S'\xcf+\xda\xb5\xcd@\xb4>'
tRp2929
sba(ibeta_strands
Comp
p2930
(dp2931
g5
S'A'
sg6
((I-1
I1
ttp2932
sg8
I19459
sg9
F0.7326560191791881
sg10
I329
sg11
g12
(g14
S'\xa4CY\xab!3->'
tRp2933
sba(ibeta_strands
Comp
p2934
(dp2935
g5
S'D'
sg6
((NNttp2936
sg8
I7702
sg9
F1.7172939112453047
sg10
I308
sg11
g12
(g14
S'\xbe\x7f\x11\x7f\x1e\x19^;'
tRp2937
sba(ibeta_strands
Comp
p2938
(dp2939
g5
S'F'
sg6
((NNttp2940
sg8
I17316
sg9
F0.75309461798716459
sg10
I297
sg11
g12
(g14
S'\x89\xa6,L\xef;\x98>'
tRp2941
sba(ibeta_strands
Comp
p2942
(dp2943
g5
S'K'
sg6
((NNttp2944
sg8
I6286
sg9
F2.008446477310299
sg10
I296
sg11
g12
(g14
S'Lb\xb8]\xf6J\xa98'
tRp2945
sba(ibeta_strands
Comp
p2946
(dp2947
g5
S'G'
sg6
((NNttp2948
sg8
I11259
sg9
F1.1289889656177146
sg10
I292
sg11
g12
(g14
S'\xf2\x83P\xad\x8e\xea\xa1?'
tRp2949
sba(ibeta_strands
Comp
p2950
(dp2951
g5
S'E'
sg6
((I-1
I1
ttp2952
sg8
I7181
sg9
F1.5397427544319757
sg10
I260
sg11
g12
(g14
S'\xb0U\x8a\x8c.\x0fo='
tRp2953
sba(ibeta_strands
Comp
p2954
(dp2955
g5
S'E'
sg6
((NNttp2956
sg8
I7198
sg9
F1.458483091953322
sg10
I243
sg11
g12
(g14
S'\xa7\x1c\xce,Xm\x1d>'
tRp2957
sba(ibeta_strands
Comp
p2958
(dp2959
g5
S'H'
sg6
((I-1
I1
ttp2960
sg8
I5628
sg9
F1.8023007449627702
sg10
I240
sg11
g12
(g14
S"}'\xf0\x9f\xbf\xff\xb5;"
tRp2961
sba(ibeta_strands
Comp
p2962
(dp2963
g5
S'F'
sg6
((I-1
I1
ttp2964
sg8
I17373
sg9
F0.6004599313825888
sg10
I240
sg11
g12
(g14
S'\xa4\xb5|3\xa9\xa3\x9b<'
tRp2965
sba(ibeta_strands
Comp
p2966
(dp2967
g5
S'Y'
sg6
((I-1
I1
ttp2968
sg8
I10872
sg9
F0.9284623853912749
sg10
I234
sg11
g12
(g14
S'\xba\x17T!\x01N\xd0?'
tRp2969
sba(ibeta_strands
Comp
p2970
(dp2971
g5
S'Y'
sg6
((NNttp2972
sg8
I10872
sg9
F0.94098915457057386
sg10
I234
sg11
g12
(g14
S'\x86\xd4\xa6\xc4\xb4\xa8\xd6?'
tRp2973
sba(ibeta_strands
Comp
p2974
(dp2975
g5
S'Q'
sg6
((NNttp2976
sg8
I4109
sg9
F2.3965833159164558
sg10
I233
sg11
g12
(g14
S'\x82#\x03\xd3\x96\xa3\xdd6'
tRp2977
sba(ibeta_strands
Comp
p2978
(dp2979
g5
S'G'
sg6
((I-1
I1
ttp2980
sg8
I11344
sg9
F0.78969045237367552
sg10
I207
sg11
g12
(g14
S'\xff;\xe0!iB@?'
tRp2981
sba(ibeta_strands
Comp
p2982
(dp2983
g5
S'H'
sg6
((NNttp2984
sg8
I5690
sg9
F1.3547411631517468
sg10
I178
sg11
g12
(g14
S'd\x81\xf4U\x88\xc6\x04?'
tRp2985
sba(ibeta_strands
Comp
p2986
(dp2987
g5
S'Q'
sg6
((I-1
I1
ttp2988
sg8
I4166
sg9
F1.7861954319953461
sg10
I176
sg11
g12
(g14
S'H\xb3\x04\xac\xa2\xa7\xe8<'
tRp2989
sba(ibeta_strands
Comp
p2990
(dp2991
g5
S'K'
sg6
((I-1
I1
ttp2992
sg8
I6413
sg9
F1.1314489202709535
sg10
I169
sg11
g12
(g14
S',/\x06\xfa\x87\xf3\xbb?'
tRp2993
sba(ibeta_strands
Comp
p2994
(dp2995
g5
S'R'
sg6
((I-1
I1
ttp2996
sg8
I7278
sg9
F0.89567966554923939
sg10
I151
sg11
g12
(g14
S'$\xe8\x9eDN\xb8\xc6?'
tRp2997
sba(ibeta_strands
Comp
p2998
(dp2999
g5
S'M'
sg6
((NNttp3000
sg8
I5215
sg9
F1.216279755815167
sg10
I146
sg11
g12
(g14
S'\x88y\x18\x11\xe8\x1b\x92?'
tRp3001
sba(ibeta_strands
Comp
p3002
(dp3003
g5
S'C'
sg6
((I-1
I1
ttp3004
sg8
I5063
sg9
F0.99531884673315629
sg10
I117
sg11
g12
(g14
S'\x90F\x0bQ\x11\xe1\xef?'
tRp3005
sba(ibeta_strands
Comp
p3006
(dp3007
g5
S'C'
sg6
((NNttp3008
sg8
I5065
sg9
F0.99150409062303335
sg10
I115
sg11
g12
(g14
S'\xb7z\x8f[~\xd3\xee?'
tRp3009
sba(ibeta_strands
Comp
p3010
(dp3011
g5
S'W'
sg6
((I-1
I1
ttp3012
sg8
I3383
sg9
F1.3387855662711412
sg10
I106
sg11
g12
(g14
S'W8~\xc8%\\e?'
tRp3013
sba(ibeta_strands
Comp
p3014
(dp3015
g5
S'W'
sg6
((NNttp3016
sg8
I3386
sg9
F1.3184470260844974
sg10
I103
sg11
g12
(g14
S'\xe9\xa8\x03w\xa9\x88t?'
tRp3017
sba(ibeta_strands
Comp
p3018
(dp3019
g5
S'P'
sg6
((I-1
I1
ttp3020
sg8
I4972
sg9
F0.7406825238716388
sg10
I85
sg11
g12
(g14
S'C\xeeb\xa7s\xc8u?'
tRp3021
sba(ibeta_strands
Comp
p3022
(dp3023
g5
S'M'
sg6
((I-1
I1
ttp3024
sg8
I5285
sg9
F0.62470345911020708
sg10
I76
sg11
g12
(g14
S'\xafX\x1f\xba\xec\x8f\xfe>'
tRp3025
sba(ibeta_strands
Comp
p3026
(dp3027
g5
S'N'
sg6
((NI1
ttp3028
sg8
I6545
sg10
I38
sba(ibeta_strands
Comp
p3029
(dp3030
g5
S'G'
sg6
((NI1
ttp3031
sg8
I11534
sg10
I17
sba(ibeta_strands
Comp
p3032
(dp3033
g5
S'E'
sg6
((NI1
ttp3034
sg8
I7426
sg10
I15
sba(ibeta_strands
Comp
p3035
(dp3036
g5
S'T'
sg6
((NI1
ttp3037
sg8
I15981
sg10
I15
sba(ibeta_strands
Comp
p3038
(dp3039
g5
S'N'
sg6
((I-1
Nttp3040
sg8
I6570
sg10
I13
sba(ibeta_strands
Comp
p3041
(dp3042
g5
S'D'
sg6
((NI1
ttp3043
sg8
I8000
sg10
I10
sba(ibeta_strands
Comp
p3044
(dp3045
g5
S'V'
sg6
((NI1
ttp3046
sg8
I58957
sg10
I8
sba(ibeta_strands
Comp
p3047
(dp3048
g5
S'S'
sg6
((NI1
ttp3049
sg8
I10929
sg10
I7
sba(ibeta_strands
Comp
p3050
(dp3051
g5
S'A'
sg6
((NI1
ttp3052
sg8
I19783
sg10
I5
sba(ibeta_strands
Comp
p3053
(dp3054
g5
S'Y'
sg6
((I-1
Nttp3055
sg8
I11102
sg10
I4
sba(ibeta_strands
Comp
p3056
(dp3057
g5
S'L'
sg6
((NI1
ttp3058
sg8
I39452
sg10
I4
sba(ibeta_strands
Comp
p3059
(dp3060
g5
S'R'
sg6
((I-1
Nttp3061
sg8
I7426
sg10
I3
sba(ibeta_strands
Comp
p3062
(dp3063
g5
S'T'
sg6
((I-1
Nttp3064
sg8
I15993
sg10
I3
sba(ibeta_strands
Comp
p3065
(dp3066
g5
S'I'
sg6
((NI1
ttp3067
sg8
I43246
sg10
I3
sba(ibeta_strands
Comp
p3068
(dp3069
g5
S'Q'
sg6
((NI1
ttp3070
sg8
I4340
sg10
I2
sba(ibeta_strands
Comp
p3071
(dp3072
g5
S'K'
sg6
((NI1
ttp3073
sg8
I6580
sg10
I2
sba(ibeta_strands
Comp
p3074
(dp3075
g5
S'Y'
sg6
((NI1
ttp3076
sg8
I11104
sg10
I2
sba(ibeta_strands
Comp
p3077
(dp3078
g5
S'W'
sg6
((NI1
ttp3079
sg8
I3488
sg10
I1
sba(ibeta_strands
Comp
p3080
(dp3081
g5
S'Q'
sg6
((I-1
Nttp3082
sg8
I4341
sg10
I1
sba(ibeta_strands
Comp
p3083
(dp3084
g5
S'P'
sg6
((NI1
ttp3085
sg8
I5056
sg10
I1
sba(ibeta_strands
Comp
p3086
(dp3087
g5
S'H'
sg6
((NI1
ttp3088
sg8
I5867
sg10
I1
sba(ibeta_strands
Comp
p3089
(dp3090
g5
S'K'
sg6
((I-1
Nttp3091
sg8
I6581
sg10
I1
sba(ibeta_strands
Comp
p3092
(dp3093
g5
S'N'
sg6
((NI-1
ttp3094
sg8
I6582
sg10
I1
sba(ibeta_strands
Comp
p3095
(dp3096
g5
S'R'
sg6
((NI1
ttp3097
sg8
I7428
sg10
I1
sba(ibeta_strands
Comp
p3098
(dp3099
g5
S'E'
sg6
((I-1
Nttp3100
sg8
I7440
sg10
I1
sba(ibeta_strands
Comp
p3101
(dp3102
g5
S'D'
sg6
((I-1
Nttp3103
sg8
I8009
sg10
I1
sba(ibeta_strands
Comp
p3104
(dp3105
g5
S'S'
sg6
((I-1
Nttp3106
sg8
I10935
sg10
I1
sba(ibeta_strands
Comp
p3107
(dp3108
g5
S'F'
sg6
((NI1
ttp3109
sg8
I17612
sg10
I1
sba(ibeta_strands
Comp
p3110
(dp3111
g5
S'V'
sg6
((I-1
Nttp3112
sg8
I58964
sg10
I1
sbasS'Q'
(lp3113
(ibeta_strands
Comp
p3114
(dp3115
g5
S'V'
sg6
((I-1
I1
ttp3116
sg8
I58365
sg9
F0.54252473022001424
sg10
I600
sg11
g12
(g14
S'\x9fA\x02\x08\xd7?Y2'
tRp3117
sba(ibeta_strands
Comp
p3118
(dp3119
g5
S'L'
sg6
((I-1
I1
ttp3120
sg8
I38892
sg9
F0.76212926993049834
sg10
I564
sg11
g12
(g14
S'WiJK\x89\xa2\x85='
tRp3121
sba(ibeta_strands
Comp
p3122
(dp3123
g5
S'V'
sg6
((NNttp3124
sg8
I58472
sg9
F0.56612597555022048
sg10
I493
sg11
g12
(g14
S'Q\xff\x90\x99,\xecP6'
tRp3125
sba(ibeta_strands
Comp
p3126
(dp3127
g5
S'I'
sg6
((I-1
I1
ttp3128
sg8
I42762
sg9
F0.60036516217658464
sg10
I487
sg11
g12
(g14
S'b\x97T_B%\xb78'
tRp3129
sba(ibeta_strands
Comp
p3130
(dp3131
g5
S'T'
sg6
((I-1
I1
ttp3132
sg8
I15565
sg9
F1.4365755375520306
sg10
I431
sg11
g12
(g14
S'\x8d\x8b+J\xe4P\xf7<'
tRp3133
sba(ibeta_strands
Comp
p3134
(dp3135
g5
S'I'
sg6
((NNttp3136
sg8
I42875
sg9
F0.58553923053673351
sg10
I374
sg11
g12
(g14
S'dr\xc3\xc4_\xf8\xd39'
tRp3137
sba(ibeta_strands
Comp
p3138
(dp3139
g5
S'L'
sg6
((NNttp3140
sg8
I39088
sg9
F0.63153180817851484
sg10
I368
sg11
g12
(g14
S'\x04>\x92\xdf~\xec\x8b;'
tRp3141
sba(ibeta_strands
Comp
p3142
(dp3143
g5
S'A'
sg6
((I-1
I1
ttp3144
sg8
I19426
sg9
F0.97536970215173957
sg10
I362
sg11
g12
(g14
S'\x05.\x98\xdf\x1bs\xe4?'
tRp3145
sba(ibeta_strands
Comp
p3146
(dp3147
g5
S'S'
sg6
((NNttp3148
sg8
I10584
sg9
F2.1794385456760779
sg10
I352
sg11
g12
(g14
S'\x82\xc1V\xa2FV\x0b5'
tRp3149
sba(ibeta_strands
Comp
p3150
(dp3151
g5
S'T'
sg6
((NNttp3152
sg8
I15647
sg9
F1.4773197272141618
sg10
I349
sg11
g12
(g14
S'\xd4ZL:\xf4x%='
tRp3153
sba(ibeta_strands
Comp
p3154
(dp3155
g5
S'K'
sg6
((I-1
I1
ttp3156
sg8
I6236
sg9
F2.8027271012428856
sg10
I346
sg11
g12
(g14
S'\x87\xb0pa\xad[\xde,'
tRp3157
sba(ibeta_strands
Comp
p3158
(dp3159
g5
S'S'
sg6
((I-1
I1
ttp3160
sg8
I10595
sg9
F1.6624878100831029
sg10
I341
sg11
g12
(g14
S']\xa9\xb0o\x9fjq;'
tRp3161
sba(ibeta_strands
Comp
p3162
(dp3163
g5
S'R'
sg6
((I-1
I1
ttp3164
sg8
I7119
sg9
F2.2248151214612037
sg10
I310
sg11
g12
(g14
S'\x03f\xe5+f>\xe05'
tRp3165
sba(ibeta_strands
Comp
p3166
(dp3167
g5
S'E'
sg6
((NNttp3168
sg8
I7132
sg9
F2.8118208085704888
sg10
I309
sg11
g12
(g14
S'0\xe0\x0b\x06S^\xcb.'
tRp3169
sba(ibeta_strands
Comp
p3170
(dp3171
g5
S'F'
sg6
((I-1
I1
ttp3172
sg8
I17333
sg9
F0.84759285763152947
sg10
I280
sg11
g12
(g14
S'\xeb\xd7\xf6\x97\xc0\x8dq?'
tRp3173
sba(ibeta_strands
Comp
p3174
(dp3175
g5
S'Y'
sg6
((I-1
I1
ttp3176
sg8
I10843
sg9
F1.262585133963966
sg10
I263
sg11
g12
(g14
S'\x00\xa1\x8a\xd9}\x16\x1d?'
tRp3177
sba(ibeta_strands
Comp
p3178
(dp3179
g5
S'A'
sg6
((NNttp3180
sg8
I19525
sg9
F0.89994156855854923
sg10
I263
sg11
g12
(g14
S'\xe4\x0c"\xa8\x1cW\xb4?'
tRp3181
sba(ibeta_strands
Comp
p3182
(dp3183
g5
S'G'
sg6
((I-1
I1
ttp3184
sg8
I11313
sg9
F1.0985503463981048
sg10
I238
sg11
g12
(g14
S'\xe2\x8cK\x82{~\xc2?'
tRp3185
sba(ibeta_strands
Comp
p3186
(dp3187
g5
S'N'
sg6
((I-1
I1
ttp3188
sg8
I6350
sg9
F1.8870988853004178
sg10
I233
sg11
g12
(g14
S'\xe5\xa3\xa6H\xfdK.;'
tRp3189
sba(ibeta_strands
Comp
p3190
(dp3191
g5
S'G'
sg6
((NNttp3192
sg8
I11332
sg9
F1.2837634201971582
sg10
I219
sg11
g12
(g14
S':\xc7f2\xe0a%?'
tRp3193
sba(ibeta_strands
Comp
p3194
(dp3195
g5
S'Y'
sg6
((NNttp3196
sg8
I10909
sg9
F1.2010719449601814
sg10
I197
sg11
g12
(g14
S'\xee\x0eU}\x0c\xd5\x82?'
tRp3197
sba(ibeta_strands
Comp
p3198
(dp3199
g5
S'D'
sg6
((NNttp3200
sg8
I7814
sg9
F1.6568531620136278
sg10
I196
sg11
g12
(g14
S'"\x13AvN-]='
tRp3201
sba(ibeta_strands
Comp
p3202
(dp3203
g5
S'F'
sg6
((NNttp3204
sg8
I17421
sg9
F0.73812235597199138
sg10
I192
sg11
g12
(g14
S'\x8aM\x14\xc6e\xb9\xeb>'
tRp3205
sba(ibeta_strands
Comp
p3206
(dp3207
g5
S'Q'
sg6
((NNttp3208
sg8
I4156
sg9
F2.9005716024281383
sg10
I186
sg11
g12
(g14
S'\xba*\x1dC\xcc\x01\x005'
tRp3209
sba(ibeta_strands
Comp
p3210
(dp3211
g5
S'Q'
sg6
((I-1
I1
ttp3212
sg8
I4162
sg9
F2.2102697409550758
sg10
I180
sg11
g12
(g14
S'\x8f\xd7V\xb6\x8f\xe50:'
tRp3213
sba(ibeta_strands
Comp
p3214
(dp3215
g5
S'E'
sg6
((I-1
I1
ttp3216
sg8
I7264
sg9
F1.2682490742695638
sg10
I177
sg11
g12
(g14
S'\xd7[\x85\x02\xf0\xb5V?'
tRp3217
sba(ibeta_strands
Comp
p3218
(dp3219
g5
S'N'
sg6
((NNttp3220
sg8
I6407
sg9
F1.8102946935677948
sg10
I176
sg11
g12
(g14
S'\x8cj%\x0e\x84\xa1\xc5<'
tRp3221
sba(ibeta_strands
Comp
p3222
(dp3223
g5
S'R'
sg6
((NNttp3224
sg8
I7266
sg9
F1.4856541201742843
sg10
I163
sg11
g12
(g14
S'Q?\x8dm\xfb6\x92>'
tRp3225
sba(ibeta_strands
Comp
p3226
(dp3227
g5
S'H'
sg6
((I-1
I1
ttp3228
sg8
I5710
sg9
F1.4355871885233058
sg10
I158
sg11
g12
(g14
S'U\x85pzi\xbf\xd0>'
tRp3229
sba(ibeta_strands
Comp
p3230
(dp3231
g5
S'D'
sg6
((I-1
I1
ttp3232
sg8
I7855
sg9
F1.0317198213068217
sg10
I155
sg11
g12
(g14
S'\x13\xff\x90\x83\xd9\x17\xe7?'
tRp3233
sba(ibeta_strands
Comp
p3234
(dp3235
g5
S'K'
sg6
((NNttp3236
sg8
I6430
sg9
F1.56367385836979
sg10
I152
sg11
g12
(g14
S'\x05WH\xdaa\x98U>'
tRp3237
sba(ibeta_strands
Comp
p3238
(dp3239
g5
S'H'
sg6
((NNttp3240
sg8
I5753
sg9
F1.326991682829088
sg10
I115
sg11
g12
(g14
S'o\xb3K@\x1b-c?'
tRp3241
sba(ibeta_strands
Comp
p3242
(dp3243
g5
S'M'
sg6
((I-1
I1
ttp3244
sg8
I5262
sg9
F0.98458219891341492
sg10
I99
sg11
g12
(g14
S'8\x94\xa2\n\xc3G\xed?'
tRp3245
sba(ibeta_strands
Comp
p3246
(dp3247
g5
S'P'
sg6
((I-1
I1
ttp3248
sg8
I4966
sg9
F0.9594250000940957
sg10
I91
sg11
g12
(g14
S'\xc1Y8\xc0H=\xe7?'
tRp3249
sba(ibeta_strands
Comp
p3250
(dp3251
g5
S'M'
sg6
((NNttp3252
sg8
I5273
sg9
F1.1114689393542991
sg10
I88
sg11
g12
(g14
S'po\xda\xcc\xdb\xd9\xd5?'
tRp3253
sba(ibeta_strands
Comp
p3254
(dp3255
g5
S'W'
sg6
((NNttp3256
sg8
I3404
sg9
F1.6495991415541826
sg10
I85
sg11
g12
(g14
S'\xb3\x1909\x85!\xcb>'
tRp3257
sba(ibeta_strands
Comp
p3258
(dp3259
g5
S'W'
sg6
((I-1
I1
ttp3260
sg8
I3410
sg9
F1.2072263717762624
sg10
I79
sg11
g12
(g14
S'\x1a3N\xcf\xf1\xde\xb9?'
tRp3261
sba(ibeta_strands
Comp
p3262
(dp3263
g5
S'C'
sg6
((I-1
I1
ttp3264
sg8
I5110
sg9
F0.72049483597799857
sg10
I70
sg11
g12
(g14
S'4\xb5\xa9\xae\xb3\x11x?'
tRp3265
sba(ibeta_strands
Comp
p3266
(dp3267
g5
S'C'
sg6
((NNttp3268
sg8
I5115
sg9
F0.8496578272027373
sg10
I65
sg11
g12
(g14
S'\x1c\xd8\x91`\xab\xbc\xc9?'
tRp3269
sba(ibeta_strands
Comp
p3270
(dp3271
g5
S'V'
sg6
((NI1
ttp3272
sg8
I58952
sg10
I13
sba(ibeta_strands
Comp
p3273
(dp3274
g5
S'T'
sg6
((NI1
ttp3275
sg8
I15986
sg10
I10
sba(ibeta_strands
Comp
p3276
(dp3277
g5
S'A'
sg6
((NI1
ttp3278
sg8
I19781
sg10
I7
sba(ibeta_strands
Comp
p3279
(dp3280
g5
S'L'
sg6
((NI1
ttp3281
sg8
I39451
sg10
I5
sba(ibeta_strands
Comp
p3282
(dp3283
g5
S'V'
sg6
((I-1
Nttp3284
sg8
I58960
sg10
I5
sba(ibeta_strands
Comp
p3285
(dp3286
g5
S'R'
sg6
((NI1
ttp3287
sg8
I7425
sg10
I4
sba(ibeta_strands
Comp
p3288
(dp3289
g5
S'E'
sg6
((I-1
Nttp3290
sg8
I7437
sg10
I4
sba(ibeta_strands
Comp
p3291
(dp3292
g5
S'I'
sg6
((NI1
ttp3293
sg8
I43245
sg10
I4
sba(ibeta_strands
Comp
p3294
(dp3295
g5
S'W'
sg6
((NI1
ttp3296
sg8
I3486
sg10
I3
sba(ibeta_strands
Comp
p3297
(dp3298
g5
S'Q'
sg6
((I-1
Nttp3299
sg8
I4339
sg10
I3
sba(ibeta_strands
Comp
p3300
(dp3301
g5
S'N'
sg6
((NI1
ttp3302
sg8
I6580
sg10
I3
sba(ibeta_strands
Comp
p3303
(dp3304
g5
S'S'
sg6
((NI1
ttp3305
sg8
I10933
sg10
I3
sba(ibeta_strands
Comp
p3306
(dp3307
g5
S'Y'
sg6
((NI1
ttp3308
sg8
I11103
sg10
I3
sba(ibeta_strands
Comp
p3309
(dp3310
g5
S'G'
sg6
((NI1
ttp3311
sg8
I11548
sg10
I3
sba(ibeta_strands
Comp
p3312
(dp3313
g5
S'R'
sg6
((I-1
Nttp3314
sg8
I7427
sg10
I2
sba(ibeta_strands
Comp
p3315
(dp3316
g5
S'S'
sg6
((I-1
Nttp3317
sg8
I10934
sg10
I2
sba(ibeta_strands
Comp
p3318
(dp3319
g5
S'T'
sg6
((I-1
Nttp3320
sg8
I15994
sg10
I2
sba(ibeta_strands
Comp
p3321
(dp3322
g5
S'F'
sg6
((NI1
ttp3323
sg8
I17611
sg10
I2
sba(ibeta_strands
Comp
p3324
(dp3325
g5
S'Q'
sg6
((NI1
ttp3326
sg8
I4341
sg10
I1
sba(ibeta_strands
Comp
p3327
(dp3328
g5
S'H'
sg6
((I-1
Nttp3329
sg8
I5867
sg10
I1
sba(ibeta_strands
Comp
p3330
(dp3331
g5
S'K'
sg6
((I-1
Nttp3332
sg8
I6581
sg10
I1
sba(ibeta_strands
Comp
p3333
(dp3334
g5
S'R'
sg6
((NI-1
ttp3335
sg8
I7428
sg10
I1
sba(ibeta_strands
Comp
p3336
(dp3337
g5
S'R'
sg6
((I1
I1
ttp3338
sg8
I7428
sg10
I1
sba(ibeta_strands
Comp
p3339
(dp3340
g5
S'E'
sg6
((NI1
ttp3341
sg8
I7440
sg10
I1
sba(ibeta_strands
Comp
p3342
(dp3343
g5
S'E'
sg6
((I1
Nttp3344
sg8
I7440
sg10
I1
sba(ibeta_strands
Comp
p3345
(dp3346
g5
S'D'
sg6
((NI1
ttp3347
sg8
I8009
sg10
I1
sbasS'P'
(lp3348
(ibeta_strands
Comp
p3349
(dp3350
g5
S'V'
sg6
((NNttp3351
sg8
I57887
sg9
F1.0628740138223456
sg10
I1078
sg11
g12
(g14
S'\xe8\x019B\xba\x9b\x99?'
tRp3352
sba(ibeta_strands
Comp
p3353
(dp3354
g5
S'I'
sg6
((NNttp3355
sg8
I42677
sg9
F0.76891315257538095
sg10
I572
sg11
g12
(g14
S'\xd9\xba\xe7\xc4\xe9h\x9d='
tRp3356
sba(ibeta_strands
Comp
p3357
(dp3358
g5
S'L'
sg6
((NNttp3359
sg8
I38900
sg9
F0.81925493814953965
sg10
I556
sg11
g12
(g14
S'\xdbc\x7f\x00#\xd7\x98>'
tRp3360
sba(ibeta_strands
Comp
p3361
(dp3362
g5
S'A'
sg6
((NNttp3363
sg8
I19390
sg9
F1.1693337952596115
sg10
I398
sg11
g12
(g14
S'\x1b\x10\x03\xd1\xfe\xf3S?'
tRp3364
sba(ibeta_strands
Comp
p3365
(dp3366
g5
S'T'
sg6
((NNttp3367
sg8
I15637
sg9
F1.3047892930321763
sg10
I359
sg11
g12
(g14
S'\xb0\xc5CzT\xed\x88>'
tRp3368
sba(ibeta_strands
Comp
p3369
(dp3370
g5
S'Y'
sg6
((NNttp3371
sg8
I10832
sg9
F1.4343337741570337
sg10
I274
sg11
g12
(g14
S'\xf9L\xe9\xab\x95\x18\r>'
tRp3372
sba(ibeta_strands
Comp
p3373
(dp3374
g5
S'G'
sg6
((NNttp3375
sg8
I11281
sg9
F1.3589438465727568
sg10
I270
sg11
g12
(g14
S'\xe90\x15\xde\xb0Z\x8f>'
tRp3376
sba(ibeta_strands
Comp
p3377
(dp3378
g5
S'S'
sg6
((NNttp3379
sg8
I10698
sg9
F1.26524837047852
sg10
I238
sg11
g12
(g14
S'W\xc6\xdf\xadx\xff+?'
tRp3380
sba(ibeta_strands
Comp
p3381
(dp3382
g5
S'F'
sg6
((NNttp3383
sg8
I17415
sg9
F0.65356560150412024
sg10
I198
sg11
g12
(g14
S'\x8a\x9cZ\xff\xe0n\xfd='
tRp3384
sba(ibeta_strands
Comp
p3385
(dp3386
g5
S'D'
sg6
((NNttp3387
sg8
I7834
sg9
F1.2774310932769672
sg10
I176
sg11
g12
(g14
S'\xa5\xb9\x87qK\x98P?'
tRp3388
sba(ibeta_strands
Comp
p3389
(dp3390
g5
S'R'
sg6
((NNttp3391
sg8
I7266
sg9
F1.2756001957280487
sg10
I163
sg11
g12
(g14
S'\xca_\xcaz\x96\xe2[?'
tRp3392
sba(ibeta_strands
Comp
p3393
(dp3394
g5
S'E'
sg6
((NNttp3395
sg8
I7287
sg9
F1.2032247245000596
sg10
I154
sg11
g12
(g14
S'f=\xfa\x11\x85\xbc\x95?'
tRp3396
sba(ibeta_strands
Comp
p3397
(dp3398
g5
S'M'
sg6
((NNttp3399
sg8
I5253
sg9
F1.171211368905944
sg10
I108
sg11
g12
(g14
S'\xd1\xbfu7\x10\xe6\xba?'
tRp3400
sba(ibeta_strands
Comp
p3401
(dp3402
g5
S'Q'
sg6
((NNttp3403
sg8
I4251
sg9
F1.2184533444481416
sg10
I91
sg11
g12
(g14
S'\x9f\x03\xe6\xe6\x8a\x1b\xb0?'
tRp3404
sba(ibeta_strands
Comp
p3405
(dp3406
g5
S'C'
sg6
((NNttp3407
sg8
I5089
sg9
F1.02133676092545
sg10
I91
sg11
g12
(g14
S'\x84\xaf\x1bg\\(\xec?'
tRp3408
sba(ibeta_strands
Comp
p3409
(dp3410
g5
S'H'
sg6
((NNttp3411
sg8
I5778
sg9
F0.89168145715530067
sg10
I90
sg11
g12
(g14
S'N<\xba\x17b\x8f\xd2?'
tRp3412
sba(ibeta_strands
Comp
p3413
(dp3414
g5
S'N'
sg6
((NNttp3415
sg8
I6498
sg9
F0.75067577632609395
sg10
I85
sg11
g12
(g14
S'\xe0\xcd\x14Au\x10\x80?'
tRp3416
sba(ibeta_strands
Comp
p3417
(dp3418
g5
S'K'
sg6
((NNttp3419
sg8
I6500
sg9
F0.7242913616735186
sg10
I82
sg11
g12
(g14
S'\xeaf\x10\xb6\xd9vj?'
tRp3420
sba(ibeta_strands
Comp
p3421
(dp3422
g5
S'W'
sg6
((NNttp3423
sg8
I3415
sg9
F1.2330709929730281
sg10
I74
sg11
g12
(g14
S'\xd0\x90\xf2m\x9a\xc8\xb3?'
tRp3424
sba(ibeta_strands
Comp
p3425
(dp3426
g5
S'G'
sg6
((NI1
ttp3427
sg8
I11531
sg10
I20
sba(ibeta_strands
Comp
p3428
(dp3429
g5
S'V'
sg6
((NI1
ttp3430
sg8
I58961
sg10
I4
sba(ibeta_strands
Comp
p3431
(dp3432
g5
S'I'
sg6
((NI1
ttp3433
sg8
I43246
sg10
I3
sba(ibeta_strands
Comp
p3434
(dp3435
g5
S'S'
sg6
((NI1
ttp3436
sg8
I10934
sg10
I2
sba(ibeta_strands
Comp
p3437
(dp3438
g5
S'I'
sg6
((NI-1
ttp3439
sg8
I43247
sg10
I2
sba(ibeta_strands
Comp
p3440
(dp3441
g5
S'C'
sg6
((NI1
ttp3442
sg8
I5179
sg10
I1
sba(ibeta_strands
Comp
p3443
(dp3444
g5
S'N'
sg6
((NI1
ttp3445
sg8
I6582
sg10
I1
sba(ibeta_strands
Comp
p3446
(dp3447
g5
S'T'
sg6
((NI-1
ttp3448
sg8
I15995
sg10
I1
sba(ibeta_strands
Comp
p3449
(dp3450
g5
S'A'
sg6
((NI1
ttp3451
sg8
I19787
sg10
I1
sba(ibeta_strands
Comp
p3452
(dp3453
g5
S'V'
sg6
((NI-1
ttp3454
sg8
I58964
sg10
I1
sbasS'S'
(lp3455
(ibeta_strands
Comp
p3456
(dp3457
g5
S'V'
sg6
((NNttp3458
sg8
I57639
sg9
F0.60456222061727938
sg10
I1326
sg11
g12
(g14
S"'F\x16\xf1\xd3\x99\x92+"
tRp3459
sba(ibeta_strands
Comp
p3460
(dp3461
g5
S'V'
sg6
((I-1
I1
ttp3462
sg8
I57691
sg9
F0.59095991462849007
sg10
I1274
sg11
g12
(g14
S'HB\xdde|B\x80*'
tRp3463
sba(ibeta_strands
Comp
p3464
(dp3465
g5
S'L'
sg6
((NNttp3466
sg8
I38429
sg9
F0.69976009408274409
sg10
I1027
sg11
g12
(g14
S'9\x1e\xf48\x18\x98\x8b8'
tRp3467
sba(ibeta_strands
Comp
p3468
(dp3469
g5
S'I'
sg6
((I-1
I1
ttp3470
sg8
I42255
sg9
F0.62862726343692199
sg10
I994
sg11
g12
(g14
S's\x91\x08\xebf\xac\xb23'
tRp3471
sba(ibeta_strands
Comp
p3472
(dp3473
g5
S'T'
sg6
((NNttp3474
sg8
I15052
sg9
F1.5865449537219709
sg10
I944
sg11
g12
(g14
S"\x84\xd5\xd6'\xb9k\x905"
tRp3475
sba(ibeta_strands
Comp
p3476
(dp3477
g5
S'I'
sg6
((NNttp3478
sg8
I42342
sg9
F0.56379731086466633
sg10
I907
sg11
g12
(g14
S"\xef\x02'\x04\x8a\xc0\xdd."
tRp3479
sba(ibeta_strands
Comp
p3480
(dp3481
g5
S'L'
sg6
((I-1
I1
ttp3482
sg8
I38552
sg9
F0.62666908962928591
sg10
I904
sg11
g12
(g14
S'?\x00\xb5\x9c\xc3:\xce4'
tRp3483
sba(ibeta_strands
Comp
p3484
(dp3485
g5
S'T'
sg6
((I-1
I1
ttp3486
sg8
I15178
sg9
F1.3987007455084126
sg10
I818
sg11
g12
(g14
S'\xfe\xa3\x9a\x1f\xe3\xd6\x1f;'
tRp3487
sba(ibeta_strands
Comp
p3488
(dp3489
g5
S'S'
sg6
((NNttp3490
sg8
I10197
sg9
F1.8166770092562219
sg10
I739
sg11
g12
(g14
S'\x00]\x8d;@\xfc\x802'
tRp3491
sba(ibeta_strands
Comp
p3492
(dp3493
g5
S'A'
sg6
((I-1
I1
ttp3494
sg8
I19054
sg9
F1.0145584126868266
sg10
I734
sg11
g12
(g14
S'\xdc\x16\x9b$04\xe6?'
tRp3495
sba(ibeta_strands
Comp
p3496
(dp3497
g5
S'S'
sg6
((I-1
I1
ttp3498
sg8
I10208
sg9
F1.8207728794058371
sg10
I728
sg11
g12
(g14
S'\x96\x9e\xd0\xb9\xc7\xac\x992'
tRp3499
sba(ibeta_strands
Comp
p3500
(dp3501
g5
S'A'
sg6
((NNttp3502
sg8
I19121
sg9
F0.90618259290986292
sg10
I667
sg11
g12
(g14
S'\\\xad\xe3\x81\x81d\x7f?'
tRp3503
sba(ibeta_strands
Comp
p3504
(dp3505
g5
S'E'
sg6
((NNttp3506
sg8
I6851
sg9
F2.1316332717155499
sg10
I590
sg11
g12
(g14
S'\xdd(s\xb9\x0c\x06\xac.'
tRp3507
sba(ibeta_strands
Comp
p3508
(dp3509
g5
S'D'
sg6
((NNttp3510
sg8
I7427
sg9
F1.9567161156454944
sg10
I583
sg11
g12
(g14
S'\xf5F\xc1\xa4\xc7N\x932'
tRp3511
sba(ibeta_strands
Comp
p3512
(dp3513
g5
S'K'
sg6
((NNttp3514
sg8
I6019
sg9
F2.2995470511338922
sg10
I563
sg11
g12
(g14
S'\xb9\x9az\x8eQ$\xe5+'
tRp3515
sba(ibeta_strands
Comp
p3516
(dp3517
g5
S'F'
sg6
((NNttp3518
sg8
I17060
sg9
F0.84407994053737068
sg10
I553
sg11
g12
(g14
S'\x8a\xec\xc9%6V\xff>'
tRp3519
sba(ibeta_strands
Comp
p3520
(dp3521
g5
S'D'
sg6
((I-1
I1
ttp3522
sg8
I7476
sg9
F1.8234406784965418
sg10
I534
sg11
g12
(g14
S"BI\xfc\x1ee\xa2'6"
tRp3523
sba(ibeta_strands
Comp
p3524
(dp3525
g5
S'G'
sg6
((NNttp3526
sg8
I11020
sg9
F1.2358527276730902
sg10
I531
sg11
g12
(g14
S'\x85Yy!\ri\x9c>'
tRp3527
sba(ibeta_strands
Comp
p3528
(dp3529
g5
S'H'
sg6
((I-1
I1
ttp3530
sg8
I5341
sg9
F2.4564244314102184
sg10
I527
sg11
g12
(g14
S'i\xdaB\xd4\xbfA\xf8)'
tRp3531
sba(ibeta_strands
Comp
p3532
(dp3533
g5
S'N'
sg6
((NNttp3534
sg8
I6098
sg9
F1.9806587949431049
sg10
I485
sg11
g12
(g14
S"'\x9b%\x7f\xedEo4"
tRp3535
sba(ibeta_strands
Comp
p3536
(dp3537
g5
S'R'
sg6
((NNttp3538
sg8
I6951
sg9
F1.7297738267055409
sg10
I478
sg11
g12
(g14
S'\xbe\xd2\xba\xa2&\x0e\xa68'
tRp3539
sba(ibeta_strands
Comp
p3540
(dp3541
g5
S'F'
sg6
((I-1
I1
ttp3542
sg8
I17139
sg9
F0.73608489321015225
sg10
I474
sg11
g12
(g14
S';\x91\x98M\x90\xbc\x83='
tRp3543
sba(ibeta_strands
Comp
p3544
(dp3545
g5
S'E'
sg6
((I-1
I1
ttp3546
sg8
I6977
sg9
F1.7055701011068312
sg10
I464
sg11
g12
(g14
S'\xe6\x82\xffZ9\xa279'
tRp3547
sba(ibeta_strands
Comp
p3548
(dp3549
g5
S'G'
sg6
((I-1
I1
ttp3550
sg8
I11103
sg9
F1.0608190944071301
sg10
I448
sg11
g12
(g14
S'\xe05\x16\x8e\x0b\xf0\xc9?'
tRp3551
sba(ibeta_strands
Comp
p3552
(dp3553
g5
S'R'
sg6
((I-1
I1
ttp3554
sg8
I6986
sg9
F1.6310086564287951
sg10
I443
sg11
g12
(g14
S'\x1b zc\xa9\xd7\x88:'
tRp3555
sba(ibeta_strands
Comp
p3556
(dp3557
g5
S'Y'
sg6
((I-1
I1
ttp3558
sg8
I10680
sg9
F1.0491433401398256
sg10
I426
sg11
g12
(g14
S'T\xf6L\x19\xd37\xd4?'
tRp3559
sba(ibeta_strands
Comp
p3560
(dp3561
g5
S'N'
sg6
((I-1
I1
ttp3562
sg8
I6159
sg9
F1.7616713831441602
sg10
I424
sg11
g12
(g14
S'/L\xd9m9\xb8\t9'
tRp3563
sba(ibeta_strands
Comp
p3564
(dp3565
g5
S'Y'
sg6
((NNttp3566
sg8
I10692
sg9
F1.0021539791259355
sg10
I414
sg11
g12
(g14
S'\x90\x89Z\x19\xc3}\xef?'
tRp3567
sba(ibeta_strands
Comp
p3568
(dp3569
g5
S'K'
sg6
((I-1
I1
ttp3570
sg8
I6218
sg9
F1.5126080377683255
sg10
I364
sg11
g12
(g14
S'z\x1cB\\\x05\xe2\xb7<'
tRp3571
sba(ibeta_strands
Comp
p3572
(dp3573
g5
S'Q'
sg6
((I-1
I1
ttp3574
sg8
I3998
sg9
F2.1669631278309893
sg10
I344
sg11
g12
(g14
S'3\x12\xa7\xdd\x83$t5'
tRp3575
sba(ibeta_strands
Comp
p3576
(dp3577
g5
S'Q'
sg6
((NNttp3578
sg8
I4004
sg9
F2.092756330791234
sg10
I338
sg11
g12
(g14
S'\x17g&\x8e\xfe\x12\x906'
tRp3579
sba(ibeta_strands
Comp
p3580
(dp3581
g5
S'H'
sg6
((NNttp3582
sg8
I5567
sg9
F1.3790124073184804
sg10
I301
sg11
g12
(g14
S"\x98@\x06'C\x9cE>"
tRp3583
sba(ibeta_strands
Comp
p3584
(dp3585
g5
S'P'
sg6
((I-1
I1
ttp3586
sg8
I4818
sg9
F1.2926705225252328
sg10
I239
sg11
g12
(g14
S'\x9d\x9c\xf4\xf6t\x99\n?'
tRp3587
sba(ibeta_strands
Comp
p3588
(dp3589
g5
S'C'
sg6
((I-1
I1
ttp3590
sg8
I4977
sg9
F1.0718874258729671
sg10
I203
sg11
g12
(g14
S'\xb48\xfbO\x02\xf2\xd4?'
tRp3591
sba(ibeta_strands
Comp
p3592
(dp3593
g5
S'M'
sg6
((NNttp3594
sg8
I5171
sg9
F0.95279523590612913
sg10
I190
sg11
g12
(g14
S'\xed\x12\x0e;\xb8\x84\xe0?'
tRp3595
sba(ibeta_strands
Comp
p3596
(dp3597
g5
S'M'
sg6
((I-1
I1
ttp3598
sg8
I5177
sg9
F0.93876072983593639
sg10
I184
sg11
g12
(g14
S'\x8e\x17\x8d\xf6\x95{\xd9?'
tRp3599
sba(ibeta_strands
Comp
p3600
(dp3601
g5
S'C'
sg6
((NNttp3602
sg8
I5016
sg9
F0.85114954540704357
sg10
I164
sg11
g12
(g14
S'O\xca\xa9aO\xdd\xa2?'
tRp3603
sba(ibeta_strands
Comp
p3604
(dp3605
g5
S'W'
sg6
((NNttp3606
sg8
I3353
sg9
F1.0479238438373462
sg10
I136
sg11
g12
(g14
S'\xca\xf2\xad\x91gj\xe3?'
tRp3607
sba(ibeta_strands
Comp
p3608
(dp3609
g5
S'W'
sg6
((I-1
I1
ttp3610
sg8
I3364
sg9
F0.97992297855575117
sg10
I125
sg11
g12
(g14
S'\x8eh\x853\x8d@\xeb?'
tRp3611
sba(ibeta_strands
Comp
p3612
(dp3613
g5
S'H'
sg6
((NI1
ttp3614
sg8
I5837
sg10
I31
sba(ibeta_strands
Comp
p3615
(dp3616
g5
S'A'
sg6
((NI1
ttp3617
sg8
I19759
sg10
I29
sba(ibeta_strands
Comp
p3618
(dp3619
g5
S'S'
sg6
((NI1
ttp3620
sg8
I10914
sg10
I22
sba(ibeta_strands
Comp
p3621
(dp3622
g5
S'V'
sg6
((NI1
ttp3623
sg8
I58945
sg10
I20
sba(ibeta_strands
Comp
p3624
(dp3625
g5
S'N'
sg6
((NI1
ttp3626
sg8
I6565
sg10
I18
sba(ibeta_strands
Comp
p3627
(dp3628
g5
S'I'
sg6
((NI1
ttp3629
sg8
I43231
sg10
I18
sba(ibeta_strands
Comp
p3630
(dp3631
g5
S'G'
sg6
((NI1
ttp3632
sg8
I11534
sg10
I17
sba(ibeta_strands
Comp
p3633
(dp3634
g5
S'D'
sg6
((NI1
ttp3635
sg8
I7996
sg10
I14
sba(ibeta_strands
Comp
p3636
(dp3637
g5
S'T'
sg6
((NI1
ttp3638
sg8
I15982
sg10
I14
sba(ibeta_strands
Comp
p3639
(dp3640
g5
S'Q'
sg6
((NI1
ttp3641
sg8
I4330
sg10
I12
sba(ibeta_strands
Comp
p3642
(dp3643
g5
S'L'
sg6
((NI1
ttp3644
sg8
I39444
sg10
I12
sba(ibeta_strands
Comp
p3645
(dp3646
g5
S'K'
sg6
((NI1
ttp3647
sg8
I6571
sg10
I11
sba(ibeta_strands
Comp
p3648
(dp3649
g5
S'R'
sg6
((NI1
ttp3650
sg8
I7420
sg10
I9
sba(ibeta_strands
Comp
p3651
(dp3652
g5
S'F'
sg6
((NI1
ttp3653
sg8
I17604
sg10
I9
sba(ibeta_strands
Comp
p3654
(dp3655
g5
S'E'
sg6
((NI1
ttp3656
sg8
I7433
sg10
I8
sba(ibeta_strands
Comp
p3657
(dp3658
g5
S'S'
sg6
((I-1
Nttp3659
sg8
I10928
sg10
I8
sba(ibeta_strands
Comp
p3660
(dp3661
g5
S'Y'
sg6
((NI1
ttp3662
sg8
I11098
sg10
I8
sba(ibeta_strands
Comp
p3663
(dp3664
g5
S'M'
sg6
((NI1
ttp3665
sg8
I5354
sg10
I7
sba(ibeta_strands
Comp
p3666
(dp3667
g5
S'W'
sg6
((NI1
ttp3668
sg8
I3483
sg10
I6
sba(ibeta_strands
Comp
p3669
(dp3670
g5
S'C'
sg6
((NI1
ttp3671
sg8
I5174
sg10
I6
sba(ibeta_strands
Comp
p3672
(dp3673
g5
S'Y'
sg6
((I-1
Nttp3674
sg8
I11100
sg10
I6
sba(ibeta_strands
Comp
p3675
(dp3676
g5
S'E'
sg6
((I-1
Nttp3677
sg8
I7436
sg10
I5
sba(ibeta_strands
Comp
p3678
(dp3679
g5
S'T'
sg6
((I-1
Nttp3680
sg8
I15991
sg10
I5
sba(ibeta_strands
Comp
p3681
(dp3682
g5
S'Q'
sg6
((I-1
Nttp3683
sg8
I4338
sg10
I4
sba(ibeta_strands
Comp
p3684
(dp3685
g5
S'R'
sg6
((I-1
Nttp3686
sg8
I7426
sg10
I3
sba(ibeta_strands
Comp
p3687
(dp3688
g5
S'H'
sg6
((I-1
Nttp3689
sg8
I5866
sg10
I2
sba(ibeta_strands
Comp
p3690
(dp3691
g5
S'N'
sg6
((I-1
Nttp3692
sg8
I6581
sg10
I2
sba(ibeta_strands
Comp
p3693
(dp3694
g5
S'A'
sg6
((I-1
Nttp3695
sg8
I19786
sg10
I2
sba(ibeta_strands
Comp
p3696
(dp3697
g5
S'W'
sg6
((I-1
Nttp3698
sg8
I3488
sg10
I1
sba(ibeta_strands
Comp
p3699
(dp3700
g5
S'P'
sg6
((NI1
ttp3701
sg8
I5056
sg10
I1
sba(ibeta_strands
Comp
p3702
(dp3703
g5
S'M'
sg6
((I-1
Nttp3704
sg8
I5360
sg10
I1
sba(ibeta_strands
Comp
p3705
(dp3706
g5
S'Y'
sg6
((NI-1
ttp3707
sg8
I11105
sg10
I1
sba(ibeta_strands
Comp
p3708
(dp3709
g5
S'A'
sg6
((I1
Nttp3710
sg8
I19787
sg10
I1
sbasS'R'
(lp3711
(ibeta_strands
Comp
p3712
(dp3713
g5
S'V'
sg6
((I-1
I1
ttp3714
sg8
I57734
sg9
F0.68427864536644456
sg10
I1231
sg11
g12
(g14
S"\xa5\xf9d'Q\xf3:5"
tRp3715
sba(ibeta_strands
Comp
p3716
(dp3717
g5
S'E'
sg6
((NNttp3718
sg8
I6438
sg9
F5.3344488465632161
sg10
I1003
sg11
g12
(g14
S'\x00\x00\x00\x00\x00\x00\x00\x00'
tRp3719
sba(ibeta_strands
Comp
p3720
(dp3721
g5
S'T'
sg6
((I-1
I1
ttp3722
sg8
I15060
sg9
F1.9179341415011717
sg10
I936
sg11
g12
(g14
S'\xd4\xcbyy\x97\x11s+'
tRp3723
sba(ibeta_strands
Comp
p3724
(dp3725
g5
S'I'
sg6
((I-1
I1
ttp3726
sg8
I42454
sg9
F0.60250450060613359
sg10
I795
sg11
g12
(g14
S'\xa6\x0en\x04V\x12M4'
tRp3727
sba(ibeta_strands
Comp
p3728
(dp3729
g5
S'L'
sg6
((I-1
I1
ttp3730
sg8
I38663
sg9
F0.65876325885325759
sg10
I793
sg11
g12
(g14
S'y_\xa4\xf9\xf3\xe0(8'
tRp3731
sba(ibeta_strands
Comp
p3732
(dp3733
g5
S'V'
sg6
((NNttp3734
sg8
I58203
sg9
F0.51142339972138173
sg10
I762
sg11
g12
(g14
S'}=\xbe|\xe4\x1b\x16+'
tRp3735
sba(ibeta_strands
Comp
p3736
(dp3737
g5
S'D'
sg6
((I-1
I1
ttp3738
sg8
I7335
sg9
F2.7621069691238787
sg10
I675
sg11
g12
(g14
S'\xce\x13SS\xff\x15i\x1b'
tRp3739
sba(ibeta_strands
Comp
p3740
(dp3741
g5
S'T'
sg6
((NNttp3742
sg8
I15323
sg9
F1.6650358746639145
sg10
I673
sg11
g12
(g14
S'\xd2Y\x06[\xa7^\xf66'
tRp3743
sba(ibeta_strands
Comp
p3744
(dp3745
g5
S'L'
sg6
((NNttp3746
sg8
I38812
sg9
F0.64594083247334022
sg10
I644
sg11
g12
(g14
S'\x0b%\x13\xf5L/\x079'
tRp3747
sba(ibeta_strands
Comp
p3748
(dp3749
g5
S'I'
sg6
((NNttp3750
sg8
I42655
sg9
F0.5435384871112684
sg10
I594
sg11
g12
(g14
S'K\xa9\xf0\x88[\xc5U3'
tRp3751
sba(ibeta_strands
Comp
p3752
(dp3753
g5
S'E'
sg6
((I-1
I1
ttp3754
sg8
I6889
sg9
F2.4315153192513175
sg10
I552
sg11
g12
(g14
S'q\xbd\x92N\xaf\xe4\x80)'
tRp3755
sba(ibeta_strands
Comp
p3756
(dp3757
g5
S'A'
sg6
((I-1
I1
ttp3758
sg8
I19236
sg9
F0.91433724937078298
sg10
I552
sg11
g12
(g14
S'b\xfc\xf5\xa2\x14\x01\x9d?'
tRp3759
sba(ibeta_strands
Comp
p3760
(dp3761
g5
S'D'
sg6
((NNttp3762
sg8
I7542
sg9
F2.3122418823287418
sg10
I468
sg11
g12
(g14
S'\xdaH\x04cZ\x1d#/'
tRp3763
sba(ibeta_strands
Comp
p3764
(dp3765
g5
S'S'
sg6
((I-1
I1
ttp3766
sg8
I10473
sg9
F1.3876876600425221
sg10
I463
sg11
g12
(g14
S'\x02\r\xd0\x83[\xdaS='
tRp3767
sba(ibeta_strands
Comp
p3768
(dp3769
g5
S'S'
sg6
((NNttp3770
sg8
I10486
sg9
F1.6284481632165135
sg10
I450
sg11
g12
(g14
S'\x9f\xe1\x13\x1bCp|:'
tRp3771
sba(ibeta_strands
Comp
p3772
(dp3773
g5
S'A'
sg6
((NNttp3774
sg8
I19349
sg9
F0.87797579909022438
sg10
I439
sg11
g12
(g14
S'\n\x95\x1a\xb4v\x94r?'
tRp3775
sba(ibeta_strands
Comp
p3776
(dp3777
g5
S'N'
sg6
((I-1
I1
ttp3778
sg8
I6183
sg9
F1.9916149293799197
sg10
I400
sg11
g12
(g14
S'\xa3.\xecC\x85\xd6R6'
tRp3779
sba(ibeta_strands
Comp
p3780
(dp3781
g5
S'Y'
sg6
((I-1
I1
ttp3782
sg8
I10710
sg9
F1.1687099828297254
sg10
I396
sg11
g12
(g14
S'\xca\x88\xfaFh}W?'
tRp3783
sba(ibeta_strands
Comp
p3784
(dp3785
g5
S'Y'
sg6
((NNttp3786
sg8
I10760
sg9
F1.2329298183315893
sg10
I346
sg11
g12
(g14
S'\xeb\xdd\tn\xf6\xb8\x10?'
tRp3787
sba(ibeta_strands
Comp
p3788
(dp3789
g5
S'F'
sg6
((I-1
I1
ttp3790
sg8
I17269
sg9
F0.64016856463367344
sg10
I344
sg11
g12
(g14
S'\xad=\xa2\x99fMJ<'
tRp3791
sba(ibeta_strands
Comp
p3792
(dp3793
g5
S'G'
sg6
((I-1
I1
ttp3794
sg8
I11232
sg9
F0.90519122685361775
sg10
I319
sg11
g12
(g14
S'\x8c(\xe8\xca\xe2\xb8\xb1?'
tRp3795
sba(ibeta_strands
Comp
p3796
(dp3797
g5
S'Q'
sg6
((NNttp3798
sg8
I4035
sg9
F2.7981338337024866
sg10
I307
sg11
g12
(g14
S'>\x19D5u\xa6\x13/'
tRp3799
sba(ibeta_strands
Comp
p3800
(dp3801
g5
S'F'
sg6
((NNttp3802
sg8
I17324
sg9
F0.64935835697602706
sg10
I289
sg11
g12
(g14
S'\x1b3\xc0\x85\x82\xf9\r='
tRp3803
sba(ibeta_strands
Comp
p3804
(dp3805
g5
S'H'
sg6
((I-1
I1
ttp3806
sg8
I5588
sg9
F1.5640014921737573
sg10
I280
sg11
g12
(g14
S'\xdc\xa9\xbcl\xd4\xa1\r='
tRp3807
sba(ibeta_strands
Comp
p3808
(dp3809
g5
S'H'
sg6
((NNttp3810
sg8
I5604
sg9
F1.7804662598708814
sg10
I264
sg11
g12
(g14
S'\t\xd7 !\xbdK{;'
tRp3811
sba(ibeta_strands
Comp
p3812
(dp3813
g5
S'K'
sg6
((NNttp3814
sg8
I6332
sg9
F1.5031490861386099
sg10
I250
sg11
g12
(g14
S'\x8bx]\xb6\xf0|\xc5='
tRp3815
sba(ibeta_strands
Comp
p3816
(dp3817
g5
S'G'
sg6
((NNttp3818
sg8
I11319
sg9
F0.79485576317607975
sg10
I232
sg11
g12
(g14
S'\xea\xb9C\x81\x90\x8b5?'
tRp3819
sba(ibeta_strands
Comp
p3820
(dp3821
g5
S'R'
sg6
((I-1
I1
ttp3822
sg8
I7208
sg9
F0.97505957689590472
sg10
I221
sg11
g12
(g14
S'\xf8CwX\x151\xe7?'
tRp3823
sba(ibeta_strands
Comp
p3824
(dp3825
g5
S'R'
sg6
((NNttp3826
sg8
I7210
sg9
F1.1666314580197541
sg10
I219
sg11
g12
(g14
S'\xe7\xc0\x9d$\xf3\xaf\x95?'
tRp3827
sba(ibeta_strands
Comp
p3828
(dp3829
g5
S'K'
sg6
((I-1
I1
ttp3830
sg8
I6407
sg9
F0.87146391257174949
sg10
I175
sg11
g12
(g14
S'\x11\x91\xa8\xd4e\x07\xb1?'
tRp3831
sba(ibeta_strands
Comp
p3832
(dp3833
g5
S'Q'
sg6
((I-1
I1
ttp3834
sg8
I4175
sg9
F1.2606539500103857
sg10
I167
sg11
g12
(g14
S'aZ\x87+\xceWd?'
tRp3835
sba(ibeta_strands
Comp
p3836
(dp3837
g5
S'C'
sg6
((I-1
I1
ttp3838
sg8
I5024
sg9
F0.98710664502743706
sg10
I156
sg11
g12
(g14
S'\x9d\x9dA\xbf\xde\xce\xec?'
tRp3839
sba(ibeta_strands
Comp
p3840
(dp3841
g5
S'N'
sg6
((NNttp3842
sg8
I6431
sg9
F0.91377581486530646
sg10
I152
sg11
g12
(g14
S'\x08\xa8\x7f\x1a\x10a\xd1?'
tRp3843
sba(ibeta_strands
Comp
p3844
(dp3845
g5
S'W'
sg6
((I-1
I1
ttp3846
sg8
I3341
sg9
F1.3903687015305142
sg10
I148
sg11
g12
(g14
S'J\x8e\xac\x9be\x1d\t?'
tRp3847
sba(ibeta_strands
Comp
p3848
(dp3849
g5
S'M'
sg6
((I-1
I1
ttp3850
sg8
I5216
sg9
F0.88652590776704987
sg10
I145
sg11
g12
(g14
S')\xd9I[*\xe9\xc2?'
tRp3851
sba(ibeta_strands
Comp
p3852
(dp3853
g5
S'P'
sg6
((I-1
I1
ttp3854
sg8
I4917
sg9
F0.90741158355503337
sg10
I140
sg11
g12
(g14
S'\xa8+\xa0AwZ\xd0?'
tRp3855
sba(ibeta_strands
Comp
p3856
(dp3857
g5
S'M'
sg6
((NNttp3858
sg8
I5223
sg9
F1.0187161837903953
sg10
I138
sg11
g12
(g14
S'=\xaf\x84!\xbau\xeb?'
tRp3859
sba(ibeta_strands
Comp
p3860
(dp3861
g5
S'C'
sg6
((NNttp3862
sg8
I5073
sg9
F0.81747399188508352
sg10
I107
sg11
g12
(g14
S'%a\xa4g3\xc7\xa2?'
tRp3863
sba(ibeta_strands
Comp
p3864
(dp3865
g5
S'W'
sg6
((NNttp3866
sg8
I3398
sg9
F1.0321916685947308
sg10
I91
sg11
g12
(g14
S'\xc0\xf6\x0c;0\x97\xe9?'
tRp3867
sba(ibeta_strands
Comp
p3868
(dp3869
g5
S'V'
sg6
((NI1
ttp3870
sg8
I58929
sg10
I36
sba(ibeta_strands
Comp
p3871
(dp3872
g5
S'T'
sg6
((NI1
ttp3873
sg8
I15972
sg10
I24
sba(ibeta_strands
Comp
p3874
(dp3875
g5
S'P'
sg6
((NI1
ttp3876
sg8
I5035
sg10
I22
sba(ibeta_strands
Comp
p3877
(dp3878
g5
S'A'
sg6
((NI1
ttp3879
sg8
I19769
sg10
I19
sba(ibeta_strands
Comp
p3880
(dp3881
g5
S'S'
sg6
((NI1
ttp3882
sg8
I10919
sg10
I17
sba(ibeta_strands
Comp
p3883
(dp3884
g5
S'E'
sg6
((I-1
Nttp3885
sg8
I7428
sg10
I13
sba(ibeta_strands
Comp
p3886
(dp3887
g5
S'I'
sg6
((NI1
ttp3888
sg8
I43236
sg10
I13
sba(ibeta_strands
Comp
p3889
(dp3890
g5
S'L'
sg6
((NI1
ttp3891
sg8
I39444
sg10
I12
sba(ibeta_strands
Comp
p3892
(dp3893
g5
S'E'
sg6
((NI1
ttp3894
sg8
I7430
sg10
I11
sba(ibeta_strands
Comp
p3895
(dp3896
g5
S'G'
sg6
((NI1
ttp3897
sg8
I11542
sg10
I9
sba(ibeta_strands
Comp
p3898
(dp3899
g5
S'T'
sg6
((I-1
Nttp3900
sg8
I15988
sg10
I8
sba(ibeta_strands
Comp
p3901
(dp3902
g5
S'H'
sg6
((NI1
ttp3903
sg8
I5861
sg10
I7
sba(ibeta_strands
Comp
p3904
(dp3905
g5
S'C'
sg6
((NI1
ttp3906
sg8
I5174
sg10
I6
sba(ibeta_strands
Comp
p3907
(dp3908
g5
S'R'
sg6
((I-1
Nttp3909
sg8
I7423
sg10
I6
sba(ibeta_strands
Comp
p3910
(dp3911
g5
S'F'
sg6
((NI1
ttp3912
sg8
I17608
sg10
I5
sba(ibeta_strands
Comp
p3913
(dp3914
g5
S'V'
sg6
((I-1
Nttp3915
sg8
I58960
sg10
I5
sba(ibeta_strands
Comp
p3916
(dp3917
g5
S'Q'
sg6
((NI1
ttp3918
sg8
I4339
sg10
I3
sba(ibeta_strands
Comp
p3919
(dp3920
g5
S'Q'
sg6
((I-1
Nttp3921
sg8
I4339
sg10
I3
sba(ibeta_strands
Comp
p3922
(dp3923
g5
S'M'
sg6
((NI1
ttp3924
sg8
I5358
sg10
I3
sba(ibeta_strands
Comp
p3925
(dp3926
g5
S'K'
sg6
((I-1
Nttp3927
sg8
I6579
sg10
I3
sba(ibeta_strands
Comp
p3928
(dp3929
g5
S'D'
sg6
((I-1
Nttp3930
sg8
I8007
sg10
I3
sba(ibeta_strands
Comp
p3931
(dp3932
g5
S'S'
sg6
((I-1
Nttp3933
sg8
I10933
sg10
I3
sba(ibeta_strands
Comp
p3934
(dp3935
g5
S'Y'
sg6
((NI1
ttp3936
sg8
I11103
sg10
I3
sba(ibeta_strands
Comp
p3937
(dp3938
g5
S'K'
sg6
((NI1
ttp3939
sg8
I6580
sg10
I2
sba(ibeta_strands
Comp
p3940
(dp3941
g5
S'N'
sg6
((NI1
ttp3942
sg8
I6581
sg10
I2
sba(ibeta_strands
Comp
p3943
(dp3944
g5
S'R'
sg6
((NI1
ttp3945
sg8
I7427
sg10
I2
sba(ibeta_strands
Comp
p3946
(dp3947
g5
S'W'
sg6
((NI1
ttp3948
sg8
I3488
sg10
I1
sba(ibeta_strands
Comp
p3949
(dp3950
g5
S'Q'
sg6
((I1
Nttp3951
sg8
I4341
sg10
I1
sba(ibeta_strands
Comp
p3952
(dp3953
g5
S'P'
sg6
((NNttp3954
sg8
I5056
sg9
F0.0078257680719512196
sg10
I1
sg11
g12
(g14
S'!\xadZ\x9a\x1c\xc9\xad4'
tRp3955
sba(ibeta_strands
Comp
p3956
(dp3957
g5
S'H'
sg6
((I-1
Nttp3958
sg8
I5867
sg10
I1
sba(ibeta_strands
Comp
p3959
(dp3960
g5
S'N'
sg6
((I-1
Nttp3961
sg8
I6582
sg10
I1
sba(ibeta_strands
Comp
p3962
(dp3963
g5
S'E'
sg6
((I1
Nttp3964
sg8
I7440
sg10
I1
sba(ibeta_strands
Comp
p3965
(dp3966
g5
S'D'
sg6
((I1
Nttp3967
sg8
I8009
sg10
I1
sba(ibeta_strands
Comp
p3968
(dp3969
g5
S'D'
sg6
((NI1
ttp3970
sg8
I8009
sg10
I1
sba(ibeta_strands
Comp
p3971
(dp3972
g5
S'Y'
sg6
((I-1
Nttp3973
sg8
I11105
sg10
I1
sba(ibeta_strands
Comp
p3974
(dp3975
g5
S'T'
sg6
((I1
Nttp3976
sg8
I15995
sg10
I1
sba(ibeta_strands
Comp
p3977
(dp3978
g5
S'A'
sg6
((I-1
Nttp3979
sg8
I19787
sg10
I1
sba(ibeta_strands
Comp
p3980
(dp3981
g5
S'L'
sg6
((I-1
Nttp3982
sg8
I39455
sg10
I1
sbasS'T'
(lp3983
(ibeta_strands
Comp
p3984
(dp3985
g5
S'V'
sg6
((I-1
I1
ttp3986
sg8
I56457
sg9
F0.75215517945578592
sg10
I2508
sg11
g12
(g14
S'y\xf2hM\xf1\xe4f3'
tRp3987
sba(ibeta_strands
Comp
p3988
(dp3989
g5
S'V'
sg6
((NNttp3990
sg8
I57000
sg9
F0.61250147820597989
sg10
I1965
sg11
g12
(g14
S';P \xf1\xc9,\xea"'
tRp3991
sba(ibeta_strands
Comp
p3992
(dp3993
g5
S'L'
sg6
((I-1
I1
ttp3994
sg8
I37634
sg9
F0.81660030709256926
sg10
I1822
sg11
g12
(g14
S'\xd5\xda&\x08\x0cG\x92;'
tRp3995
sba(ibeta_strands
Comp
p3996
(dp3997
g5
S'T'
sg6
((NNttp3998
sg8
I14423
sg9
F1.8074080676333124
sg10
I1573
sg11
g12
(g14
S'\xf9p\xee-A\xff\x0e#'
tRp3999
sba(ibeta_strands
Comp
p4000
(dp4001
g5
S'L'
sg6
((NNttp4002
sg8
I37928
sg9
F0.71178558528521019
sg10
I1528
sg11
g12
(g14
S'S\x96\x86K[D\xde5'
tRp4003
sba(ibeta_strands
Comp
p4004
(dp4005
g5
S'I'
sg6
((I-1
I1
ttp4006
sg8
I41734
sg9
F0.61945645641745239
sg10
I1515
sg11
g12
(g14
S'\x9ci/)\xcd\x94\xc8+'
tRp4007
sba(ibeta_strands
Comp
p4008
(dp4009
g5
S'T'
sg6
((I-1
I1
ttp4010
sg8
I14515
sg9
F1.6372608767707286
sg10
I1481
sg11
g12
(g14
S'\xbd\xd2\xc9\x1c\nP\x19-'
tRp4011
sba(ibeta_strands
Comp
p4012
(dp4013
g5
S'I'
sg6
((NNttp4014
sg8
I41779
sg9
F0.62471243952633049
sg10
I1470
sg11
g12
(g14
S'\xf9\xfb\xad\xc2E\xf2"-'
tRp4015
sba(ibeta_strands
Comp
p4016
(dp4017
g5
S'A'
sg6
((I-1
I1
ttp4018
sg8
I18638
sg9
F1.0277090000920035
sg10
I1150
sg11
g12
(g14
S'\xd0\xb7W\xbf\xdd+\xd5?'
tRp4019
sba(ibeta_strands
Comp
p4020
(dp4021
g5
S'K'
sg6
((NNttp4022
sg8
I5554
sg9
F2.8706095545460353
sg10
I1028
sg11
g12
(g14
S'\xd8iz\xef\x87E\x91\x02'
tRp4023
sba(ibeta_strands
Comp
p4024
(dp4025
g5
S'A'
sg6
((NNttp4026
sg8
I18762
sg9
F0.95298123348302199
sg10
I1026
sg11
g12
(g14
S')b\xcb\x00\xa3\x94\xba?'
tRp4027
sba(ibeta_strands
Comp
p4028
(dp4029
g5
S'R'
sg6
((NNttp4030
sg8
I6470
sg9
F2.3726142701377326
sg10
I959
sg11
g12
(g14
S'\xf9\xb1\xca\x93I\xf7m\x1a'
tRp4031
sba(ibeta_strands
Comp
p4032
(dp4033
g5
S'S'
sg6
((I-1
I1
ttp4034
sg8
I9995
sg9
F1.5216169697119328
sg10
I941
sg11
g12
(g14
S'%\xa6\x89\x91\xdf\x0eY7'
tRp4035
sba(ibeta_strands
Comp
p4036
(dp4037
g5
S'N'
sg6
((NNttp4038
sg8
I5663
sg9
F2.5686377541521943
sg10
I920
sg11
g12
(g14
S'\xd9^T\xae\x05\xe0\xb2\x14'
tRp4039
sba(ibeta_strands
Comp
p4040
(dp4041
g5
S'D'
sg6
((I-1
I1
ttp4042
sg8
I7182
sg9
F1.8279825342760059
sg10
I828
sg11
g12
(g14
S'B\xa5F$$\xa4o0'
tRp4043
sba(ibeta_strands
Comp
p4044
(dp4045
g5
S'S'
sg6
((NNttp4046
sg8
I10115
sg9
F1.3798235243704853
sg10
I821
sg11
g12
(g14
S'\x13v+\x12\x8c{y;'
tRp4047
sba(ibeta_strands
Comp
p4048
(dp4049
g5
S'E'
sg6
((NNttp4050
sg8
I6643
sg9
F1.9711082521335885
sg10
I798
sg11
g12
(g14
S'v\x96\xa5B\xfdL\x03-'
tRp4051
sba(ibeta_strands
Comp
p4052
(dp4053
g5
S'F'
sg6
((I-1
I1
ttp4054
sg8
I16915
sg9
F0.7008035751402375
sg10
I698
sg11
g12
(g14
S'u\xd0e0&@0;'
tRp4055
sba(ibeta_strands
Comp
p4056
(dp4057
g5
S'R'
sg6
((I-1
I1
ttp4058
sg8
I6752
sg9
F1.6115082438055943
sg10
I677
sg11
g12
(g14
S'>\xbc\x02\xab;/\x028'
tRp4059
sba(ibeta_strands
Comp
p4060
(dp4061
g5
S'H'
sg6
((I-1
I1
ttp4062
sg8
I5194
sg9
F2.0311594258669068
sg10
I674
sg11
g12
(g14
S'\xd8t\xfd\xd0ZP}.'
tRp4063
sba(ibeta_strands
Comp
p4064
(dp4065
g5
S'F'
sg6
((NNttp4066
sg8
I16982
sg9
F0.65846836290347788
sg10
I631
sg11
g12
(g14
S'*V\x97T\x04\xed\n:'
tRp4067
sba(ibeta_strands
Comp
p4068
(dp4069
g5
S'G'
sg6
((NNttp4070
sg8
I10936
sg9
F0.97857568668853223
sg10
I615
sg11
g12
(g14
S'2\x9e\xb1\xf2!\xcc\xe2?'
tRp4071
sba(ibeta_strands
Comp
p4072
(dp4073
g5
S'E'
sg6
((I-1
I1
ttp4074
sg8
I6843
sg9
F1.4211636824064902
sg10
I598
sg11
g12
(g14
S'G\x15\xef.\xa5\x1d\x13<'
tRp4075
sba(ibeta_strands
Comp
p4076
(dp4077
g5
S'Y'
sg6
((I-1
I1
ttp4078
sg8
I10517
sg9
F0.9378466832390101
sg10
I589
sg11
g12
(g14
S'\x1d\xfd\xcc!\x94C\xbb?'
tRp4079
sba(ibeta_strands
Comp
p4080
(dp4081
g5
S'D'
sg6
((NNttp4082
sg8
I7427
sg9
F1.3377499025193251
sg10
I583
sg11
g12
(g14
S'j\xbdyEB\x98P='
tRp4083
sba(ibeta_strands
Comp
p4084
(dp4085
g5
S'N'
sg6
((I-1
I1
ttp4086
sg8
I6007
sg9
F1.5472940287090788
sg10
I576
sg11
g12
(g14
S'\xcb1V\x8d\xe4?E:'
tRp4087
sba(ibeta_strands
Comp
p4088
(dp4089
g5
S'G'
sg6
((I-1
I1
ttp4090
sg8
I10981
sg9
F0.87262870110833413
sg10
I570
sg11
g12
(g14
S'\x9eV\xfa\x060!F?'
tRp4091
sba(ibeta_strands
Comp
p4092
(dp4093
g5
S'Y'
sg6
((NNttp4094
sg8
I10637
sg9
F0.77616501415107053
sg10
I469
sg11
g12
(g14
S'\xd5\x1aaT\x00\x83C>'
tRp4095
sba(ibeta_strands
Comp
p4096
(dp4097
g5
S'K'
sg6
((I-1
I1
ttp4098
sg8
I6115
sg9
F1.254680718033927
sg10
I467
sg11
g12
(g14
S'oeP\t\x97\x10\x98>'
tRp4099
sba(ibeta_strands
Comp
p4100
(dp4101
g5
S'H'
sg6
((NNttp4102
sg8
I5414
sg9
F1.4220165044669484
sg10
I454
sg11
g12
(g14
S'U\x13v\xa7\x95\x03\xfb<'
tRp4103
sba(ibeta_strands
Comp
p4104
(dp4105
g5
S'Q'
sg6
((NNttp4106
sg8
I3909
sg9
F1.8328923836210087
sg10
I433
sg11
g12
(g14
S' \x93D\xd3\xcb\xdf\xc97'
tRp4107
sba(ibeta_strands
Comp
p4108
(dp4109
g5
S'P'
sg6
((I-1
I1
ttp4110
sg8
I4698
sg9
F1.2553814762286599
sg10
I359
sg11
g12
(g14
S"\x1c\xfb'\x93\x87\xa0\xe1>"
tRp4111
sba(ibeta_strands
Comp
p4112
(dp4113
g5
S'Q'
sg6
((I-1
I1
ttp4114
sg8
I3992
sg9
F1.4254515035822397
sg10
I350
sg11
g12
(g14
S'\xf7-;N\xef\xec\x99='
tRp4115
sba(ibeta_strands
Comp
p4116
(dp4117
g5
S'C'
sg6
((NNttp4118
sg8
I4875
sg9
F1.0822035866109383
sg10
I305
sg11
g12
(g14
S'8\xb3fXF\xa3\xc4?'
tRp4119
sba(ibeta_strands
Comp
p4120
(dp4121
g5
S'M'
sg6
((NNttp4122
sg8
I5069
sg9
F1.0010964781859519
sg10
I292
sg11
g12
(g14
S'\xa4\xca\xf7\xb2n\xb8\xef?'
tRp4123
sba(ibeta_strands
Comp
p4124
(dp4125
g5
S'C'
sg6
((I-1
I1
ttp4126
sg8
I4916
sg9
F0.90125645512315422
sg10
I264
sg11
g12
(g14
S'\x18%\x0e\xfe\xc0\xa0\xb5?'
tRp4127
sba(ibeta_strands
Comp
p4128
(dp4129
g5
S'M'
sg6
((I-1
I1
ttp4130
sg8
I5114
sg9
F0.81475187244003466
sg10
I247
sg11
g12
(g14
S'\x8f*\x04\xf5xMM?'
tRp4131
sba(ibeta_strands
Comp
p4132
(dp4133
g5
S'W'
sg6
((I-1
I1
ttp4134
sg8
I3329
sg9
F0.81094842449220295
sg10
I160
sg11
g12
(g14
S'\xe0\xbc4\x98\xceC{?'
tRp4135
sba(ibeta_strands
Comp
p4136
(dp4137
g5
S'W'
sg6
((NNttp4138
sg8
I3363
sg9
F0.66375600778956556
sg10
I126
sg11
g12
(g14
S'\x14\x17\x16\xedH\xa3\xc0>'
tRp4139
sba(ibeta_strands
Comp
p4140
(dp4141
g5
S'I'
sg6
((NI1
ttp4142
sg8
I43206
sg10
I43
sba(ibeta_strands
Comp
p4143
(dp4144
g5
S'V'
sg6
((NI1
ttp4145
sg8
I58932
sg10
I33
sba(ibeta_strands
Comp
p4146
(dp4147
g5
S'A'
sg6
((NI1
ttp4148
sg8
I19763
sg10
I25
sba(ibeta_strands
Comp
p4149
(dp4150
g5
S'T'
sg6
((NI1
ttp4151
sg8
I15977
sg10
I19
sba(ibeta_strands
Comp
p4152
(dp4153
g5
S'H'
sg6
((NI1
ttp4154
sg8
I5854
sg10
I14
sba(ibeta_strands
Comp
p4155
(dp4156
g5
S'S'
sg6
((NI1
ttp4157
sg8
I10923
sg10
I13
sba(ibeta_strands
Comp
p4158
(dp4159
g5
S'L'
sg6
((NI1
ttp4160
sg8
I39446
sg10
I10
sba(ibeta_strands
Comp
p4161
(dp4162
g5
S'D'
sg6
((NI1
ttp4163
sg8
I8003
sg10
I7
sba(ibeta_strands
Comp
p4164
(dp4165
g5
S'G'
sg6
((NI1
ttp4166
sg8
I11544
sg10
I7
sba(ibeta_strands
Comp
p4167
(dp4168
g5
S'S'
sg6
((I-1
Nttp4169
sg8
I10930
sg10
I6
sba(ibeta_strands
Comp
p4170
(dp4171
g5
S'T'
sg6
((I-1
Nttp4172
sg8
I15990
sg10
I6
sba(ibeta_strands
Comp
p4173
(dp4174
g5
S'F'
sg6
((NI1
ttp4175
sg8
I17607
sg10
I6
sba(ibeta_strands
Comp
p4176
(dp4177
g5
S'Q'
sg6
((NI1
ttp4178
sg8
I4337
sg10
I5
sba(ibeta_strands
Comp
p4179
(dp4180
g5
S'K'
sg6
((I-1
Nttp4181
sg8
I6577
sg10
I5
sba(ibeta_strands
Comp
p4182
(dp4183
g5
S'N'
sg6
((NI1
ttp4184
sg8
I6578
sg10
I5
sba(ibeta_strands
Comp
p4185
(dp4186
g5
S'Q'
sg6
((I-1
Nttp4187
sg8
I4338
sg10
I4
sba(ibeta_strands
Comp
p4188
(dp4189
g5
S'K'
sg6
((NI1
ttp4190
sg8
I6578
sg10
I4
sba(ibeta_strands
Comp
p4191
(dp4192
g5
S'N'
sg6
((I-1
Nttp4193
sg8
I6579
sg10
I4
sba(ibeta_strands
Comp
p4194
(dp4195
g5
S'Y'
sg6
((NI1
ttp4196
sg8
I11102
sg10
I4
sba(ibeta_strands
Comp
p4197
(dp4198
g5
S'F'
sg6
((I-1
Nttp4199
sg8
I17609
sg10
I4
sba(ibeta_strands
Comp
p4200
(dp4201
g5
S'C'
sg6
((NI1
ttp4202
sg8
I5177
sg10
I3
sba(ibeta_strands
Comp
p4203
(dp4204
g5
S'C'
sg6
((I-1
Nttp4205
sg8
I5177
sg10
I3
sba(ibeta_strands
Comp
p4206
(dp4207
g5
S'R'
sg6
((I-1
Nttp4208
sg8
I7426
sg10
I3
sba(ibeta_strands
Comp
p4209
(dp4210
g5
S'R'
sg6
((NI1
ttp4211
sg8
I7426
sg10
I3
sba(ibeta_strands
Comp
p4212
(dp4213
g5
S'E'
sg6
((NI1
ttp4214
sg8
I7438
sg10
I3
sba(ibeta_strands
Comp
p4215
(dp4216
g5
S'E'
sg6
((I-1
Nttp4217
sg8
I7438
sg10
I3
sba(ibeta_strands
Comp
p4218
(dp4219
g5
S'Y'
sg6
((I-1
Nttp4220
sg8
I11103
sg10
I3
sba(ibeta_strands
Comp
p4221
(dp4222
g5
S'A'
sg6
((I-1
Nttp4223
sg8
I19785
sg10
I3
sba(ibeta_strands
Comp
p4224
(dp4225
g5
S'V'
sg6
((I-1
Nttp4226
sg8
I58962
sg10
I3
sba(ibeta_strands
Comp
p4227
(dp4228
g5
S'M'
sg6
((NI1
ttp4229
sg8
I5359
sg10
I2
sba(ibeta_strands
Comp
p4230
(dp4231
g5
S'L'
sg6
((I-1
Nttp4232
sg8
I39454
sg10
I2
sba(ibeta_strands
Comp
p4233
(dp4234
g5
S'I'
sg6
((I-1
Nttp4235
sg8
I43247
sg10
I2
sba(ibeta_strands
Comp
p4236
(dp4237
g5
S'W'
sg6
((NI1
ttp4238
sg8
I3488
sg10
I1
sba(ibeta_strands
Comp
p4239
(dp4240
g5
S'P'
sg6
((NI1
ttp4241
sg8
I5056
sg10
I1
sba(ibeta_strands
Comp
p4242
(dp4243
g5
S'M'
sg6
((I-1
Nttp4244
sg8
I5360
sg10
I1
sba(ibeta_strands
Comp
p4245
(dp4246
g5
S'H'
sg6
((I-1
Nttp4247
sg8
I5867
sg10
I1
sba(ibeta_strands
Comp
p4248
(dp4249
g5
S'D'
sg6
((I-1
Nttp4250
sg8
I8009
sg10
I1
sba(ibeta_strands
Comp
p4251
(dp4252
g5
S'F'
sg6
((I-1
I-1
ttp4253
sg8
I17612
sg10
I1
sba(ibeta_strands
Comp
p4254
(dp4255
g5
S'V'
sg6
((NI-1
ttp4256
sg8
I58964
sg10
I1
sbasS'W'
(lp4257
(ibeta_strands
Comp
p4258
(dp4259
g5
S'V'
sg6
((I-1
I1
ttp4260
sg8
I58326
sg9
F0.91747695702037113
sg10
I639
sg11
g12
(g14
S'r|`\xbd\x92\xc5\x8e?'
tRp4261
sba(ibeta_strands
Comp
p4262
(dp4263
g5
S'V'
sg6
((NNttp4264
sg8
I58357
sg9
F0.86887758128859738
sg10
I608
sg11
g12
(g14
S'R\x8c\x84o\xf7<\x1b?'
tRp4265
sba(ibeta_strands
Comp
p4266
(dp4267
g5
S'I'
sg6
((I-1
I1
ttp4268
sg8
I42730
sg9
F1.0159676928492765
sg10
I519
sg11
g12
(g14
S'\xd6{\x88\x89\xdb\xc7\xe6?'
tRp4269
sba(ibeta_strands
Comp
p4270
(dp4271
g5
S'L'
sg6
((I-1
I1
ttp4272
sg8
I38981
sg9
F1.0192228813461448
sg10
I475
sg11
g12
(g14
S'8{w\xe1\x04~\xe5?'
tRp4273
sba(ibeta_strands
Comp
p4274
(dp4275
g5
S'I'
sg6
((NNttp4276
sg8
I42819
sg9
F0.83780259407022051
sg10
I430
sg11
g12
(g14
S'peC\xbe8+\x12?'
tRp4277
sba(ibeta_strands
Comp
p4278
(dp4279
g5
S'L'
sg6
((NNttp4280
sg8
I39128
sg9
F0.70050316868889528
sg10
I328
sg11
g12
(g14
S'\x8ed\x9a~\xdf\xa9\x89='
tRp4281
sba(ibeta_strands
Comp
p4282
(dp4283
g5
S'A'
sg6
((I-1
I1
ttp4284
sg8
I19531
sg9
F1.099562276727323
sg10
I257
sg11
g12
(g14
S'\xb1r\xcf\x17\xc4\xe4\xbe?'
tRp4285
sba(ibeta_strands
Comp
p4286
(dp4287
g5
S'G'
sg6
((NNttp4288
sg8
I11306
sg9
F1.7872932527297598
sg10
I245
sg11
g12
(g14
S'8\x91\x9f\x84\xf5\xf8\xb5;'
tRp4289
sba(ibeta_strands
Comp
p4290
(dp4291
g5
S'A'
sg6
((NNttp4292
sg8
I19551
sg9
F1.0092430320294521
sg10
I237
sg11
g12
(g14
S'&\xd3 c_\x1b\xed?'
tRp4293
sba(ibeta_strands
Comp
p4294
(dp4295
g5
S'F'
sg6
((NNttp4296
sg8
I17381
sg9
F1.1099514046441341
sg10
I232
sg11
g12
(g14
S'\x1b\\6\x9c\xa7M\xbb?'
tRp4297
sba(ibeta_strands
Comp
p4298
(dp4299
g5
S'F'
sg6
((I-1
I1
ttp4300
sg8
I17415
sg9
F0.95174469638346204
sg10
I198
sg11
g12
(g14
S'\xaa_\x1dL\xe4\x84\xdf?'
tRp4301
sba(ibeta_strands
Comp
p4302
(dp4303
g5
S'Y'
sg6
((NNttp4304
sg8
I10922
sg9
F1.3960773116424612
sg10
I184
sg11
g12
(g14
S'\xe3\xcc\x1f\xa4\xac4\xd0>'
tRp4305
sba(ibeta_strands
Comp
p4306
(dp4307
g5
S'T'
sg6
((NNttp4308
sg8
I15836
sg9
F0.84286477179627373
sg10
I160
sg11
g12
(g14
S'1\xbf\xec>\xe5P\x9c?'
tRp4309
sba(ibeta_strands
Comp
p4310
(dp4311
g5
S'R'
sg6
((NNttp4312
sg8
I7282
sg9
F1.6673865415761036
sg10
I147
sg11
g12
(g14
S'\xe4X<os\xc1\xf0='
tRp4313
sba(ibeta_strands
Comp
p4314
(dp4315
g5
S'K'
sg6
((NNttp4316
sg8
I6441
sg9
F1.8051385876643693
sg10
I141
sg11
g12
(g14
S'\x0e[\xda1y\x1bh='
tRp4317
sba(ibeta_strands
Comp
p4318
(dp4319
g5
S'E'
sg6
((NNttp4320
sg8
I7300
sg9
F1.5967507302791129
sg10
I141
sg11
g12
(g14
S'#\xa4\xde\xb9SEP>'
tRp4321
sba(ibeta_strands
Comp
p4322
(dp4323
g5
S'G'
sg6
((I-1
I1
ttp4324
sg8
I11413
sg9
F1.0114586032437021
sg10
I138
sg11
g12
(g14
S'h\xae\xb5\x84\x10\x9e\xed?'
tRp4325
sba(ibeta_strands
Comp
p4326
(dp4327
g5
S'S'
sg6
((NNttp4328
sg8
I10803
sg9
F1.0248078766938753
sg10
I133
sg11
g12
(g14
S'\xa7\x81\xf6\xd0\x15\xd0\xe9?'
tRp4329
sba(ibeta_strands
Comp
p4330
(dp4331
g5
S'S'
sg6
((I-1
I1
ttp4332
sg8
I10804
sg9
F1.0218897425872908
sg10
I132
sg11
g12
(g14
S'!\x13\x8d\xb9t\xad\xea?'
tRp4333
sba(ibeta_strands
Comp
p4334
(dp4335
g5
S'T'
sg6
((I-1
I1
ttp4336
sg8
I15871
sg9
F0.66158740353498724
sg10
I125
sg11
g12
(g14
S'\xbf\xda\xfc\xfa\xa5\t\xbe>'
tRp4337
sba(ibeta_strands
Comp
p4338
(dp4339
g5
S'Y'
sg6
((I-1
I1
ttp4340
sg8
I10987
sg9
F0.90714748836775294
sg10
I119
sg11
g12
(g14
S'\xaa\xffh\t<\xea\xd2?'
tRp4341
sba(ibeta_strands
Comp
p4342
(dp4343
g5
S'N'
sg6
((NNttp4344
sg8
I6476
sg9
F1.3696488523402059
sg10
I107
sg11
g12
(g14
S'\x1b\xed\xec\xbd\xc6\xd4Q?'
tRp4345
sba(ibeta_strands
Comp
p4346
(dp4347
g5
S'E'
sg6
((I-1
I1
ttp4348
sg8
I7334
sg9
F1.2174218254999976
sg10
I107
sg11
g12
(g14
S'.\x18\xfdA\x0b\x10\xa6?'
tRp4349
sba(ibeta_strands
Comp
p4350
(dp4351
g5
S'N'
sg6
((I-1
I1
ttp4352
sg8
I6482
sg9
F1.2989311411836686
sg10
I101
sg11
g12
(g14
S'\xe128\xa0E\xc6\x81?'
tRp4353
sba(ibeta_strands
Comp
p4354
(dp4355
g5
S'H'
sg6
((NNttp4356
sg8
I5777
sg9
F1.306774353440739
sg10
I91
sg11
g12
(g14
S'5\xca=\xf3\x13\xab\x86?'
tRp4357
sba(ibeta_strands
Comp
p4358
(dp4359
g5
S'R'
sg6
((I-1
I1
ttp4360
sg8
I7338
sg9
F1.0370498766800964
sg10
I91
sg11
g12
(g14
S'\x0f\xb0\xd0\xec\xa8x\xe8?'
tRp4361
sba(ibeta_strands
Comp
p4362
(dp4363
g5
S'M'
sg6
((NNttp4364
sg8
I5275
sg9
F1.351767371421114
sg10
I86
sg11
g12
(g14
S'n\xef66T\xecu?'
tRp4365
sba(ibeta_strands
Comp
p4366
(dp4367
g5
S'Q'
sg6
((I-1
I1
ttp4368
sg8
I4258
sg9
F1.6378649046217137
sg10
I84
sg11
g12
(g14
S'\xaf\xe3\xdc\xf8\x95\x8b\xd5>'
tRp4369
sba(ibeta_strands
Comp
p4370
(dp4371
g5
S'M'
sg6
((I-1
I1
ttp4372
sg8
I5277
sg9
F1.3265453116708599
sg10
I84
sg11
g12
(g14
S'C\xea\x82\x86\xfe\x8d\x84?'
tRp4373
sba(ibeta_strands
Comp
p4374
(dp4375
g5
S'Q'
sg6
((NNttp4376
sg8
I4259
sg9
F1.6107850441058489
sg10
I83
sg11
g12
(g14
S'\xc9\x8eBu/\xb4\xe9>'
tRp4377
sba(ibeta_strands
Comp
p4378
(dp4379
g5
S'C'
sg6
((I-1
I1
ttp4380
sg8
I5098
sg9
F1.3402095332348165
sg10
I82
sg11
g12
(g14
S'U\xc9\x0f~9+\x81?'
tRp4381
sba(ibeta_strands
Comp
p4382
(dp4383
g5
S'P'
sg6
((I-1
I1
ttp4384
sg8
I4983
sg9
F1.2388746781316646
sg10
I74
sg11
g12
(g14
S'v\xa6\xa9p\xc4\x14\xb2?'
tRp4385
sba(ibeta_strands
Comp
p4386
(dp4387
g5
S'D'
sg6
((I-1
I1
ttp4388
sg8
I7946
sg9
F0.67645057162998445
sg10
I64
sg11
g12
(g14
S'\x11\xdf\x0e\x9d\xc9\tZ?'
tRp4389
sba(ibeta_strands
Comp
p4390
(dp4391
g5
S'H'
sg6
((I-1
I1
ttp4392
sg8
I5809
sg9
F0.8512370474571147
sg10
I59
sg11
g12
(g14
S't\x12\xa3y\xfa\x93\xcd?'
tRp4393
sba(ibeta_strands
Comp
p4394
(dp4395
g5
S'D'
sg6
((NNttp4396
sg8
I7953
sg9
F0.59964146278888275
sg10
I57
sg11
g12
(g14
S"\x0f'\x07\xf1.[\x16?"
tRp4397
sba(ibeta_strands
Comp
p4398
(dp4399
g5
S'K'
sg6
((I-1
I1
ttp4400
sg8
I6526
sg9
F0.72030886416160045
sg10
I56
sg11
g12
(g14
S'\t,\xc3\xe0, \x8d?'
tRp4401
sba(ibeta_strands
Comp
p4402
(dp4403
g5
S'C'
sg6
((NNttp4404
sg8
I5140
sg9
F0.65069811243499975
sg10
I40
sg11
g12
(g14
S'\xa2\xc4\x99\xa6\xaa&{?'
tRp4405
sba(ibeta_strands
Comp
p4406
(dp4407
g5
S'W'
sg6
((NNttp4408
sg8
I3450
sg9
F0.94191768898050054
sg10
I39
sg11
g12
(g14
S'~\x8a\xafw\xb1v\xe8?'
tRp4409
sba(ibeta_strands
Comp
p4410
(dp4411
g5
S'W'
sg6
((I-1
I1
ttp4412
sg8
I3452
sg9
F0.89782018448148859
sg10
I37
sg11
g12
(g14
S'\x1e\xe8\x1a\xf6\x7f\xdf\xe1?'
tRp4413
sba(ibeta_strands
Comp
p4414
(dp4415
g5
S'A'
sg6
((NI1
ttp4416
sg8
I19777
sg10
I11
sba(ibeta_strands
Comp
p4417
(dp4418
g5
S'L'
sg6
((NI1
ttp4419
sg8
I39449
sg10
I7
sba(ibeta_strands
Comp
p4420
(dp4421
g5
S'V'
sg6
((NI1
ttp4422
sg8
I58958
sg10
I7
sba(ibeta_strands
Comp
p4423
(dp4424
g5
S'M'
sg6
((NI1
ttp4425
sg8
I5355
sg10
I6
sba(ibeta_strands
Comp
p4426
(dp4427
g5
S'I'
sg6
((NI1
ttp4428
sg8
I43245
sg10
I4
sba(ibeta_strands
Comp
p4429
(dp4430
g5
S'Y'
sg6
((NI1
ttp4431
sg8
I11103
sg10
I3
sba(ibeta_strands
Comp
p4432
(dp4433
g5
S'G'
sg6
((NI1
ttp4434
sg8
I11548
sg10
I3
sba(ibeta_strands
Comp
p4435
(dp4436
g5
S'C'
sg6
((NI1
ttp4437
sg8
I5178
sg10
I2
sba(ibeta_strands
Comp
p4438
(dp4439
g5
S'E'
sg6
((NI1
ttp4440
sg8
I7439
sg10
I2
sba(ibeta_strands
Comp
p4441
(dp4442
g5
S'E'
sg6
((I-1
Nttp4443
sg8
I7439
sg10
I2
sba(ibeta_strands
Comp
p4444
(dp4445
g5
S'S'
sg6
((I-1
Nttp4446
sg8
I10934
sg10
I2
sba(ibeta_strands
Comp
p4447
(dp4448
g5
S'T'
sg6
((I-1
Nttp4449
sg8
I15994
sg10
I2
sba(ibeta_strands
Comp
p4450
(dp4451
g5
S'A'
sg6
((I-1
Nttp4452
sg8
I19786
sg10
I2
sba(ibeta_strands
Comp
p4453
(dp4454
g5
S'W'
sg6
((NI1
ttp4455
sg8
I3488
sg10
I1
sba(ibeta_strands
Comp
p4456
(dp4457
g5
S'H'
sg6
((NI1
ttp4458
sg8
I5867
sg10
I1
sba(ibeta_strands
Comp
p4459
(dp4460
g5
S'N'
sg6
((I-1
Nttp4461
sg8
I6582
sg10
I1
sba(ibeta_strands
Comp
p4462
(dp4463
g5
S'N'
sg6
((NI1
ttp4464
sg8
I6582
sg10
I1
sba(ibeta_strands
Comp
p4465
(dp4466
g5
S'R'
sg6
((I-1
Nttp4467
sg8
I7428
sg10
I1
sba(ibeta_strands
Comp
p4468
(dp4469
g5
S'R'
sg6
((NI1
ttp4470
sg8
I7428
sg10
I1
sba(ibeta_strands
Comp
p4471
(dp4472
g5
S'S'
sg6
((NI1
ttp4473
sg8
I10935
sg10
I1
sba(ibeta_strands
Comp
p4474
(dp4475
g5
S'L'
sg6
((I-1
Nttp4476
sg8
I39455
sg10
I1
sba(ibeta_strands
Comp
p4477
(dp4478
g5
S'V'
sg6
((I-1
Nttp4479
sg8
I58964
sg10
I1
sbasS'V'
(lp4480
(ibeta_strands
Comp
p4481
(dp4482
g5
S'V'
sg6
((NNttp4483
sg8
I45416
sg9
F1.1456947468625329
sg10
I13549
sg11
g12
(g14
S'\xd8\xf0b\x8a\x02I\xf2-'
tRp4484
sba(ibeta_strands
Comp
p4485
(dp4486
g5
S'V'
sg6
((I-1
I1
ttp4487
sg8
I45450
sg9
F1.2771038790336737
sg10
I13515
sg11
g12
(g14
S'\xbaw\xb8z\xac\x1d\xa2\x07'
tRp4488
sba(ibeta_strands
Comp
p4489
(dp4490
g5
S'I'
sg6
((NNttp4491
sg8
I32838
sg9
F1.2002517785738962
sg10
I10411
sg11
g12
(g14
S'\xfa\xcc\xb9@3\x10\xa5('
tRp4492
sba(ibeta_strands
Comp
p4493
(dp4494
g5
S'L'
sg6
((NNttp4495
sg8
I30048
sg9
F1.1888860623533735
sg10
I9408
sg11
g12
(g14
S'\x08\xce\x806\x17\x9cC-'
tRp4496
sba(ibeta_strands
Comp
p4497
(dp4498
g5
S'I'
sg6
((I-1
I1
ttp4499
sg8
I35309
sg9
F1.0229370508869384
sg10
I7940
sg11
g12
(g14
S'\xdaH;\xf6FM\x90?'
tRp4500
sba(ibeta_strands
Comp
p4501
(dp4502
g5
S'L'
sg6
((I-1
I1
ttp4503
sg8
I31826
sg9
F1.0774967276636187
sg10
I7630
sg11
g12
(g14
S'\x98Y\x1a<g*\x07='
tRp4504
sba(ibeta_strands
Comp
p4505
(dp4506
g5
S'A'
sg6
((NNttp4507
sg8
I14975
sg9
F1.2127462541933729
sg10
I4813
sg11
g12
(g14
S'.\xb8\xcb\x9f\r\xab\xd14'
tRp4508
sba(ibeta_strands
Comp
p4509
(dp4510
g5
S'F'
sg6
((I-1
I1
ttp4511
sg8
I13756
sg9
F1.2201712297874929
sg10
I3857
sg11
g12
(g14
S'\xcf\xc1\xaae\x1a\x98\xb96'
tRp4512
sba(ibeta_strands
Comp
p4513
(dp4514
g5
S'A'
sg6
((I-1
I1
ttp4515
sg8
I16075
sg9
F1.0455083950312452
sg10
I3713
sg11
g12
(g14
S'\x99\xe8\xf8V"P`?'
tRp4516
sba(ibeta_strands
Comp
p4517
(dp4518
g5
S'F'
sg6
((NNttp4519
sg8
I14440
sg9
F0.89824067830998056
sg10
I3173
sg11
g12
(g14
S'\tIB\x9b\xaf\x87\x8c='
tRp4520
sba(ibeta_strands
Comp
p4521
(dp4522
g5
S'T'
sg6
((NNttp4523
sg8
I13470
sg9
F0.78736831244188554
sg10
I2526
sg11
g12
(g14
S'\x9c\x13\xa7\x01\x13q\t7'
tRp4524
sba(ibeta_strands
Comp
p4525
(dp4526
g5
S'G'
sg6
((NNttp4527
sg8
I9355
sg9
F0.94791355540682176
sg10
I2196
sg11
g12
(g14
S'\x06\xb3\xdb#q\xf9q?'
tRp4528
sba(ibeta_strands
Comp
p4529
(dp4530
g5
S'Y'
sg6
((NNttp4531
sg8
I9011
sg9
F0.94055097957627287
sg10
I2095
sg11
g12
(g14
S'k\x81D\x8c<\x8fW?'
tRp4532
sba(ibeta_strands
Comp
p4533
(dp4534
g5
S'G'
sg6
((I-1
I1
ttp4535
sg8
I9522
sg9
F0.97873910355846983
sg10
I2029
sg11
g12
(g14
S'\xf2q\x14Xz\xfb\xd1?'
tRp4536
sba(ibeta_strands
Comp
p4537
(dp4538
g5
S'T'
sg6
((I-1
I1
ttp4539
sg8
I14036
sg9
F0.68273026102137957
sg10
I1960
sg11
g12
(g14
S'\xb3F\x0fRT\x9c\xdd.'
tRp4540
sba(ibeta_strands
Comp
p4541
(dp4542
g5
S'Y'
sg6
((I-1
I1
ttp4543
sg8
I9199
sg9
F0.95674786279586244
sg10
I1907
sg11
g12
(g14
S'\xfe\xfb\xc6\xb0\xf0n\x9f?'
tRp4544
sba(ibeta_strands
Comp
p4545
(dp4546
g5
S'K'
sg6
((NNttp4547
sg8
I5139
sg9
F1.0931114289095527
sg10
I1443
sg11
g12
(g14
S'g\xd5\x8c]\x17!"?'
tRp4548
sba(ibeta_strands
Comp
p4549
(dp4550
g5
S'S'
sg6
((I-1
I1
ttp4551
sg8
I9620
sg9
F0.67050475885542571
sg10
I1316
sg11
g12
(g14
S'\xd7\xcd^\xbd\xf1\xac\x833'
tRp4552
sba(ibeta_strands
Comp
p4553
(dp4554
g5
S'E'
sg6
((NNttp4555
sg8
I6126
sg9
F0.88115118618823995
sg10
I1315
sg11
g12
(g14
S'\x93\xd1 e\x00\xc0\x8c>'
tRp4556
sba(ibeta_strands
Comp
p4557
(dp4558
g5
S'S'
sg6
((NNttp4559
sg8
I9648
sg9
F0.58723690811090179
sg10
I1288
sg11
g12
(g14
S' DG\x80=\xf6\xc4)'
tRp4560
sba(ibeta_strands
Comp
p4561
(dp4562
g5
S'R'
sg6
((NNttp4563
sg8
I6167
sg9
F0.84700305833121226
sg10
I1262
sg11
g12
(g14
S'\xbf\xddFbl\x19\xbb='
tRp4564
sba(ibeta_strands
Comp
p4565
(dp4566
g5
S'M'
sg6
((NNttp4567
sg8
I4239
sg9
F1.0435254170630657
sg10
I1122
sg11
g12
(g14
S'\x10\xf3tJ\xa9i\xbc?'
tRp4568
sba(ibeta_strands
Comp
p4569
(dp4570
g5
S'P'
sg6
((I-1
I1
ttp4571
sg8
I3977
sg9
F1.1899679889788883
sg10
I1080
sg11
g12
(g14
S':\xabE\xd8\xea\xa2\xec='
tRp4572
sba(ibeta_strands
Comp
p4573
(dp4574
g5
S'E'
sg6
((I-1
I1
ttp4575
sg8
I6479
sg9
F0.72035776897969217
sg10
I962
sg11
g12
(g14
S'\x15\xbfx\x17\x969\xd29'
tRp4576
sba(ibeta_strands
Comp
p4577
(dp4578
g5
S'M'
sg6
((I-1
I1
ttp4579
sg8
I4424
sg9
F0.97386388469009122
sg10
I937
sg11
g12
(g14
S'\xe2\xa2\x07E\xa9\x0f\xd8?'
tRp4580
sba(ibeta_strands
Comp
p4581
(dp4582
g5
S'C'
sg6
((I-1
I1
ttp4583
sg8
I4262
sg9
F0.98745519347998123
sg10
I918
sg11
g12
(g14
S'\x18S\x90q\x97\xde\xe5?'
tRp4584
sba(ibeta_strands
Comp
p4585
(dp4586
g5
S'C'
sg6
((NNttp4587
sg8
I4271
sg9
F0.87496384053494203
sg10
I909
sg11
g12
(g14
S'\xf3\x7f\xf8R-\xb8\xd8>'
tRp4588
sba(ibeta_strands
Comp
p4589
(dp4590
g5
S'D'
sg6
((I-1
I1
ttp4591
sg8
I7105
sg9
F0.62953595607815982
sg10
I905
sg11
g12
(g14
S'\xeep\nr\x17\x95\x894'
tRp4592
sba(ibeta_strands
Comp
p4593
(dp4594
g5
S'H'
sg6
((NNttp4595
sg8
I4965
sg9
F0.76727955667437808
sg10
I903
sg11
g12
(g14
S'4<\xaa\xf0F0\x10<'
tRp4596
sba(ibeta_strands
Comp
p4597
(dp4598
g5
S'R'
sg6
((I-1
I1
ttp4599
sg8
I6666
sg9
F0.5722669388436632
sg10
I763
sg11
g12
(g14
S'\xdd\x9eX\xc7\x88>\xed1'
tRp4600
sba(ibeta_strands
Comp
p4601
(dp4602
g5
S'D'
sg6
((NNttp4603
sg8
I7308
sg9
F0.4369790115446508
sg10
I702
sg11
g12
(g14
S'\x9a9\xc5\xccO\xbe!"'
tRp4604
sba(ibeta_strands
Comp
p4605
(dp4606
g5
S'W'
sg6
((NNttp4607
sg8
I2845
sg9
F0.92032428018068535
sg10
I644
sg11
g12
(g14
S'\xaa\xed\x18\xf4\x128\x93?'
tRp4608
sba(ibeta_strands
Comp
p4609
(dp4610
g5
S'Q'
sg6
((NNttp4611
sg8
I3728
sg9
F0.70507373019844899
sg10
I614
sg11
g12
(g14
S'\xfd\xba\xef\xb8\x9b@c;'
tRp4612
sba(ibeta_strands
Comp
p4613
(dp4614
g5
S'W'
sg6
((I-1
I1
ttp4615
sg8
I2883
sg9
F0.96777886077973641
sg10
I606
sg11
g12
(g14
S'\xf6\x10\xb7P\xedz\xd8?'
tRp4616
sba(ibeta_strands
Comp
p4617
(dp4618
g5
S'N'
sg6
((I-1
I1
ttp4619
sg8
I5987
sg9
F0.50446016952738504
sg10
I596
sg11
g12
(g14
S'\xd1\xcd\x84I\xd8D^/'
tRp4620
sba(ibeta_strands
Comp
p4621
(dp4622
g5
S'H'
sg6
((I-1
I1
ttp4623
sg8
I5274
sg9
F0.56402819804813076
sg10
I594
sg11
g12
(g14
S'\xb3\t?LNov4'
tRp4624
sba(ibeta_strands
Comp
p4625
(dp4626
g5
S'N'
sg6
((NNttp4627
sg8
I5991
sg9
F0.44838784749110111
sg10
I592
sg11
g12
(g14
S'\xd1\xce\\}\xe3\x9a}('
tRp4628
sba(ibeta_strands
Comp
p4629
(dp4630
g5
S'K'
sg6
((I-1
I1
ttp4631
sg8
I6020
sg9
F0.47575451056045476
sg10
I562
sg11
g12
(g14
S'\xf6r\xf1\x13%\xe6k-'
tRp4632
sba(ibeta_strands
Comp
p4633
(dp4634
g5
S'Q'
sg6
((I-1
I1
ttp4635
sg8
I3848
sg9
F0.63393044070225402
sg10
I494
sg11
g12
(g14
S'A\xfe\x8eo@\x97\xe39'
tRp4636
sba(ibeta_strands
Comp
p4637
(dp4638
g5
S'V'
sg6
((NI1
ttp4639
sg8
I58865
sg10
I100
sba(ibeta_strands
Comp
p4640
(dp4641
g5
S'I'
sg6
((NI1
ttp4642
sg8
I43193
sg10
I56
sba(ibeta_strands
Comp
p4643
(dp4644
g5
S'A'
sg6
((NI1
ttp4645
sg8
I19757
sg10
I31
sba(ibeta_strands
Comp
p4646
(dp4647
g5
S'V'
sg6
((I-1
Nttp4648
sg8
I58937
sg10
I28
sba(ibeta_strands
Comp
p4649
(dp4650
g5
S'G'
sg6
((NI1
ttp4651
sg8
I11524
sg10
I27
sba(ibeta_strands
Comp
p4652
(dp4653
g5
S'Y'
sg6
((NI1
ttp4654
sg8
I11081
sg10
I25
sba(ibeta_strands
Comp
p4655
(dp4656
g5
S'I'
sg6
((I-1
Nttp4657
sg8
I43225
sg10
I24
sba(ibeta_strands
Comp
p4658
(dp4659
g5
S'L'
sg6
((I-1
Nttp4660
sg8
I39434
sg10
I22
sba(ibeta_strands
Comp
p4661
(dp4662
g5
S'T'
sg6
((NI1
ttp4663
sg8
I15975
sg10
I21
sba(ibeta_strands
Comp
p4664
(dp4665
g5
S'L'
sg6
((NI1
ttp4666
sg8
I39438
sg10
I18
sba(ibeta_strands
Comp
p4667
(dp4668
g5
S'K'
sg6
((I-1
Nttp4669
sg8
I6569
sg10
I13
sba(ibeta_strands
Comp
p4670
(dp4671
g5
S'K'
sg6
((NI1
ttp4672
sg8
I6571
sg10
I11
sba(ibeta_strands
Comp
p4673
(dp4674
g5
S'A'
sg6
((I-1
Nttp4675
sg8
I19779
sg10
I9
sba(ibeta_strands
Comp
p4676
(dp4677
g5
S'M'
sg6
((I-1
Nttp4678
sg8
I5353
sg10
I8
sba(ibeta_strands
Comp
p4679
(dp4680
g5
S'H'
sg6
((NI1
ttp4681
sg8
I5860
sg10
I8
sba(ibeta_strands
Comp
p4682
(dp4683
g5
S'S'
sg6
((I-1
Nttp4684
sg8
I10928
sg10
I8
sba(ibeta_strands
Comp
p4685
(dp4686
g5
S'S'
sg6
((NI1
ttp4687
sg8
I10928
sg10
I8
sba(ibeta_strands
Comp
p4688
(dp4689
g5
S'F'
sg6
((NI1
ttp4690
sg8
I17605
sg10
I8
sba(ibeta_strands
Comp
p4691
(dp4692
g5
S'F'
sg6
((I-1
Nttp4693
sg8
I17605
sg10
I8
sba(ibeta_strands
Comp
p4694
(dp4695
g5
S'E'
sg6
((NI1
ttp4696
sg8
I7434
sg10
I7
sba(ibeta_strands
Comp
p4697
(dp4698
g5
S'E'
sg6
((I-1
Nttp4699
sg8
I7434
sg10
I7
sba(ibeta_strands
Comp
p4700
(dp4701
g5
S'C'
sg6
((NI1
ttp4702
sg8
I5175
sg10
I5
sba(ibeta_strands
Comp
p4703
(dp4704
g5
S'R'
sg6
((NI1
ttp4705
sg8
I7424
sg10
I5
sba(ibeta_strands
Comp
p4706
(dp4707
g5
S'D'
sg6
((NI1
ttp4708
sg8
I8005
sg10
I5
sba(ibeta_strands
Comp
p4709
(dp4710
g5
S'C'
sg6
((I-1
Nttp4711
sg8
I5176
sg10
I4
sba(ibeta_strands
Comp
p4712
(dp4713
g5
S'R'
sg6
((I-1
Nttp4714
sg8
I7425
sg10
I4
sba(ibeta_strands
Comp
p4715
(dp4716
g5
S'Y'
sg6
((I-1
Nttp4717
sg8
I11102
sg10
I4
sba(ibeta_strands
Comp
p4718
(dp4719
g5
S'W'
sg6
((NI1
ttp4720
sg8
I3486
sg10
I3
sba(ibeta_strands
Comp
p4721
(dp4722
g5
S'Q'
sg6
((NI1
ttp4723
sg8
I4339
sg10
I3
sba(ibeta_strands
Comp
p4724
(dp4725
g5
S'M'
sg6
((NI1
ttp4726
sg8
I5358
sg10
I3
sba(ibeta_strands
Comp
p4727
(dp4728
g5
S'G'
sg6
((I-1
Nttp4729
sg8
I11548
sg10
I3
sba(ibeta_strands
Comp
p4730
(dp4731
g5
S'T'
sg6
((I-1
Nttp4732
sg8
I15993
sg10
I3
sba(ibeta_strands
Comp
p4733
(dp4734
g5
S'W'
sg6
((I-1
Nttp4735
sg8
I3487
sg10
I2
sba(ibeta_strands
Comp
p4736
(dp4737
g5
S'P'
sg6
((NI1
ttp4738
sg8
I5055
sg10
I2
sba(ibeta_strands
Comp
p4739
(dp4740
g5
S'N'
sg6
((I-1
Nttp4741
sg8
I6581
sg10
I2
sba(ibeta_strands
Comp
p4742
(dp4743
g5
S'P'
sg6
((I-1
Nttp4744
sg8
I5056
sg10
I1
sba(ibeta_strands
Comp
p4745
(dp4746
g5
S'H'
sg6
((I-1
Nttp4747
sg8
I5867
sg10
I1
sba(ibeta_strands
Comp
p4748
(dp4749
g5
S'D'
sg6
((I-1
Nttp4750
sg8
I8009
sg10
I1
sba(ibeta_strands
Comp
p4751
(dp4752
g5
S'A'
sg6
((I-1
I-1
ttp4753
sg8
I19787
sg10
I1
sba(ibeta_strands
Comp
p4754
(dp4755
g5
S'L'
sg6
((NI-1
ttp4756
sg8
I39455
sg10
I1
sba(ibeta_strands
Comp
p4757
(dp4758
g5
S'I'
sg6
((I-1
I-1
ttp4759
sg8
I43248
sg10
I1
sba(ibeta_strands
Comp
p4760
(dp4761
g5
S'V'
sg6
((I-1
I-1
ttp4762
sg8
I58964
sg10
I1
sbasS'Y'
(lp4763
(ibeta_strands
Comp
p4764
(dp4765
g5
S'V'
sg6
((I-1
I1
ttp4766
sg8
I56899
sg9
F0.87278861196454005
sg10
I2066
sg11
g12
(g14
S'\xdeh\xaa\xd1x\xe5|='
tRp4767
sba(ibeta_strands
Comp
p4768
(dp4769
g5
S'V'
sg6
((NNttp4770
sg8
I57038
sg9
F0.86512732107087253
sg10
I1927
sg11
g12
(g14
S'\xdbem3\xb7O^='
tRp4771
sba(ibeta_strands
Comp
p4772
(dp4773
g5
S'I'
sg6
((I-1
I1
ttp4774
sg8
I41588
sg9
F0.95667983278392166
sg10
I1661
sg11
g12
(g14
S'L\x94 $\x1f<\xa8?'
tRp4775
sba(ibeta_strands
Comp
p4776
(dp4777
g5
S'I'
sg6
((NNttp4778
sg8
I41670
sg9
F0.9664929166452384
sg10
I1579
sg11
g12
(g14
S"\x8b\xed'\xc0\xd1\xba\xc1?"
tRp4779
sba(ibeta_strands
Comp
p4780
(dp4781
g5
S'L'
sg6
((I-1
I1
ttp4782
sg8
I37982
sg9
F0.93058807997400816
sg10
I1474
sg11
g12
(g14
S'6\x1c\x04\xbbp\xcbd?'
tRp4783
sba(ibeta_strands
Comp
p4784
(dp4785
g5
S'L'
sg6
((NNttp4786
sg8
I38353
sg9
F0.7400397933049202
sg10
I1103
sg11
g12
(g14
S'T\xf5\xf0\xc7\x19\x97B:'
tRp4787
sba(ibeta_strands
Comp
p4788
(dp4789
g5
S'F'
sg6
((I-1
I1
ttp4790
sg8
I16783
sg9
F1.1738640812624144
sg10
I830
sg11
g12
(g14
S'\x0c\xb0JLT\xde\xb4>'
tRp4791
sba(ibeta_strands
Comp
p4792
(dp4793
g5
S'A'
sg6
((I-1
I1
ttp4794
sg8
I18978
sg9
F1.0196618573294192
sg10
I810
sg11
g12
(g14
S'\xec;5=\x95B\xe2?'
tRp4795
sba(ibeta_strands
Comp
p4796
(dp4797
g5
S'F'
sg6
((NNttp4798
sg8
I16961
sg9
F0.97995667685213894
sg10
I652
sg11
g12
(g14
S'"U\x10K\x06:\xe3?'
tRp4799
sba(ibeta_strands
Comp
p4800
(dp4801
g5
S'A'
sg6
((NNttp4802
sg8
I19169
sg9
F0.82809728921635062
sg10
I619
sg11
g12
(g14
S'\xafNe\xa8\x96\xf8\xa9>'
tRp4803
sba(ibeta_strands
Comp
p4804
(dp4805
g5
S'G'
sg6
((I-1
I1
ttp4806
sg8
I10944
sg9
F1.3090075875564799
sg10
I607
sg11
g12
(g14
S'p]\nk\xcf\xd9\x95='
tRp4807
sba(ibeta_strands
Comp
p4808
(dp4809
g5
S'Y'
sg6
((NNttp4810
sg8
I10513
sg9
F1.4134799090239534
sg10
I593
sg11
g12
(g14
S'\xcb+\xe0\x93\xab0?<'
tRp4811
sba(ibeta_strands
Comp
p4812
(dp4813
g5
S'Y'
sg6
((I-1
I1
ttp4814
sg8
I10517
sg9
F1.3210847592714368
sg10
I589
sg11
g12
(g14
S'\xdd\xbb\xa1\xbb\xbd\x02\x82='
tRp4815
sba(ibeta_strands
Comp
p4816
(dp4817
g5
S'K'
sg6
((NNttp4818
sg8
I5999
sg9
F2.3447864322054874
sg10
I583
sg11
g12
(g14
S'L\x81\xad\xb75\xd6%*'
tRp4819
sba(ibeta_strands
Comp
p4820
(dp4821
g5
S'G'
sg6
((NNttp4822
sg8
I10968
sg9
F1.336108068286427
sg10
I583
sg11
g12
(g14
S'\xa2\x90hQ\xd7\xf3W='
tRp4823
sba(ibeta_strands
Comp
p4824
(dp4825
g5
S'T'
sg6
((NNttp4826
sg8
I15413
sg9
F0.96482772547990225
sg10
I583
sg11
g12
(g14
S'\x1c\xf9\xeb\xbeH\x12\xd8?'
tRp4827
sba(ibeta_strands
Comp
p4828
(dp4829
g5
S'E'
sg6
((NNttp4830
sg8
I6976
sg9
F1.6542999781243277
sg10
I465
sg11
g12
(g14
S'\xcchk\xd8\x82Q\xf19'
tRp4831
sba(ibeta_strands
Comp
p4832
(dp4833
g5
S'T'
sg6
((I-1
I1
ttp4834
sg8
I15532
sg9
F0.72256952652015083
sg10
I464
sg11
g12
(g14
S'\x82\x0bQ\xa7\xa6\xc4I='
tRp4835
sba(ibeta_strands
Comp
p4836
(dp4837
g5
S'S'
sg6
((NNttp4838
sg8
I10510
sg9
F1.0312019205498757
sg10
I426
sg11
g12
(g14
S'~\xd3\xdc\xd1E\xd9\xe0?'
tRp4839
sba(ibeta_strands
Comp
p4840
(dp4841
g5
S'S'
sg6
((I-1
I1
ttp4842
sg8
I10519
sg9
F0.94984033967460568
sg10
I417
sg11
g12
(g14
S'\xca\xe6\xfc\xa4KA\xd2?'
tRp4843
sba(ibeta_strands
Comp
p4844
(dp4845
g5
S'R'
sg6
((NNttp4846
sg8
I7036
sg9
F1.4004087242899266
sg10
I393
sg11
g12
(g14
S'\x90q\xe8(\xb4\xa2\x97='
tRp4847
sba(ibeta_strands
Comp
p4848
(dp4849
g5
S'H'
sg6
((NNttp4850
sg8
I5511
sg9
F1.6105370740479272
sg10
I357
sg11
g12
(g14
S'\x03{i\xdb\xed\xf8\xc9;'
tRp4851
sba(ibeta_strands
Comp
p4852
(dp4853
g5
S'D'
sg6
((I-1
I1
ttp4854
sg8
I7666
sg9
F1.0697911065635677
sg10
I344
sg11
g12
(g14
S'x\x82\xec\xe8\xb6H\xca?'
tRp4855
sba(ibeta_strands
Comp
p4856
(dp4857
g5
S'R'
sg6
((I-1
I1
ttp4858
sg8
I7087
sg9
F1.1467501467936656
sg10
I342
sg11
g12
(g14
S'\xe5\x84\x1dH{\xa1\x83?'
tRp4859
sba(ibeta_strands
Comp
p4860
(dp4861
g5
S'E'
sg6
((I-1
I1
ttp4862
sg8
I7100
sg9
F1.141553135197974
sg10
I341
sg11
g12
(g14
S'\xbed\xfcK\xbcs\x89?'
tRp4863
sba(ibeta_strands
Comp
p4864
(dp4865
g5
S'P'
sg6
((I-1
I1
ttp4866
sg8
I4785
sg9
F1.3398278690901493
sg10
I272
sg11
g12
(g14
S'Q\xd94n\xf7\xf7\xa8>'
tRp4867
sba(ibeta_strands
Comp
p4868
(dp4869
g5
S'Q'
sg6
((NNttp4870
sg8
I4077
sg9
F1.6156551543880613
sg10
I265
sg11
g12
(g14
S"'\xd41\x11\x9e\xf5\xcb<"
tRp4871
sba(ibeta_strands
Comp
p4872
(dp4873
g5
S'N'
sg6
((I-1
I1
ttp4874
sg8
I6349
sg9
F0.88545207293820472
sg10
I234
sg11
g12
(g14
S'>\xbd\xc2\xf3\xf4\x07\xae?'
tRp4875
sba(ibeta_strands
Comp
p4876
(dp4877
g5
S'H'
sg6
((I-1
I1
ttp4878
sg8
I5635
sg9
F0.98909697250003126
sg10
I233
sg11
g12
(g14
S'\x81\xbdxy\xa0v\xec?'
tRp4879
sba(ibeta_strands
Comp
p4880
(dp4881
g5
S'N'
sg6
((NNttp4882
sg8
I6350
sg9
F0.93696783339719536
sg10
I233
sg11
g12
(g14
S'Xv\x0e\x8dK\x8d\xd4?'
tRp4883
sba(ibeta_strands
Comp
p4884
(dp4885
g5
S'D'
sg6
((NNttp4886
sg8
I7777
sg9
F0.77004484984441157
sg10
I233
sg11
g12
(g14
S'7`\x07\xfc\x8e7\x05?'
tRp4887
sba(ibeta_strands
Comp
p4888
(dp4889
g5
S'K'
sg6
((I-1
I1
ttp4890
sg8
I6351
sg9
F0.87423292488394833
sg10
I231
sg11
g12
(g14
S'\xa8\x01\x1b\xbe\xb6C\xa3?'
tRp4891
sba(ibeta_strands
Comp
p4892
(dp4893
g5
S'M'
sg6
((NNttp4894
sg8
I5136
sg9
F1.1110390578211025
sg10
I225
sg11
g12
(g14
S'd\x03\xdc\xf4\xbf\xa6\xbc?'
tRp4895
sba(ibeta_strands
Comp
p4896
(dp4897
g5
S'M'
sg6
((I-1
I1
ttp4898
sg8
I5154
sg9
F0.96182839676510301
sg10
I207
sg11
g12
(g14
S'r\x1f:n\x8f\xd0\xe2?'
tRp4899
sba(ibeta_strands
Comp
p4900
(dp4901
g5
S'C'
sg6
((I-1
I1
ttp4902
sg8
I4985
sg9
F0.93773021173619719
sg10
I195
sg11
g12
(g14
S'\x02\xbfW\xb5\xda\xee\xd7?'
tRp4903
sba(ibeta_strands
Comp
p4904
(dp4905
g5
S'Q'
sg6
((I-1
I1
ttp4906
sg8
I4148
sg9
F1.1129738680956893
sg10
I194
sg11
g12
(g14
S'k\x18\xbf\xab[E\xc1?'
tRp4907
sba(ibeta_strands
Comp
p4908
(dp4909
g5
S'W'
sg6
((I-1
I1
ttp4910
sg8
I3305
sg9
F1.3136809745059628
sg10
I184
sg11
g12
(g14
S'\xd5\xf6/\x18\xa8\x81%?'
tRp4911
sba(ibeta_strands
Comp
p4912
(dp4913
g5
S'C'
sg6
((NNttp4914
sg8
I5013
sg9
F0.85345244526768038
sg10
I167
sg11
g12
(g14
S'\xdb\x8196\t\x9b\xa3?'
tRp4915
sba(ibeta_strands
Comp
p4916
(dp4917
g5
S'W'
sg6
((NNttp4918
sg8
I3369
sg9
F0.91048520324508342
sg10
I120
sg11
g12
(g14
S'\x08\xad\xf6\x97\xdc\x05\xd4?'
tRp4919
sba(ibeta_strands
Comp
p4920
(dp4921
g5
S'A'
sg6
((NI1
ttp4922
sg8
I19753
sg10
I35
sba(ibeta_strands
Comp
p4923
(dp4924
g5
S'V'
sg6
((NI1
ttp4925
sg8
I58930
sg10
I35
sba(ibeta_strands
Comp
p4926
(dp4927
g5
S'G'
sg6
((NI1
ttp4928
sg8
I11534
sg10
I17
sba(ibeta_strands
Comp
p4929
(dp4930
g5
S'L'
sg6
((NI1
ttp4931
sg8
I39440
sg10
I16
sba(ibeta_strands
Comp
p4932
(dp4933
g5
S'I'
sg6
((NI1
ttp4934
sg8
I43233
sg10
I16
sba(ibeta_strands
Comp
p4935
(dp4936
g5
S'Y'
sg6
((NI1
ttp4937
sg8
I11092
sg10
I14
sba(ibeta_strands
Comp
p4938
(dp4939
g5
S'T'
sg6
((NI1
ttp4940
sg8
I15985
sg10
I11
sba(ibeta_strands
Comp
p4941
(dp4942
g5
S'K'
sg6
((I-1
Nttp4943
sg8
I6573
sg10
I9
sba(ibeta_strands
Comp
p4944
(dp4945
g5
S'R'
sg6
((NI1
ttp4946
sg8
I7420
sg10
I9
sba(ibeta_strands
Comp
p4947
(dp4948
g5
S'S'
sg6
((NI1
ttp4949
sg8
I10928
sg10
I8
sba(ibeta_strands
Comp
p4950
(dp4951
g5
S'I'
sg6
((I-1
Nttp4952
sg8
I43241
sg10
I8
sba(ibeta_strands
Comp
p4953
(dp4954
g5
S'T'
sg6
((I-1
Nttp4955
sg8
I15989
sg10
I7
sba(ibeta_strands
Comp
p4956
(dp4957
g5
S'N'
sg6
((NI1
ttp4958
sg8
I6577
sg10
I6
sba(ibeta_strands
Comp
p4959
(dp4960
g5
S'C'
sg6
((NI1
ttp4961
sg8
I5175
sg10
I5
sba(ibeta_strands
Comp
p4962
(dp4963
g5
S'G'
sg6
((I-1
Nttp4964
sg8
I11546
sg10
I5
sba(ibeta_strands
Comp
p4965
(dp4966
g5
S'A'
sg6
((I-1
Nttp4967
sg8
I19783
sg10
I5
sba(ibeta_strands
Comp
p4968
(dp4969
g5
S'M'
sg6
((NI1
ttp4970
sg8
I5357
sg10
I4
sba(ibeta_strands
Comp
p4971
(dp4972
g5
S'S'
sg6
((I-1
Nttp4973
sg8
I10932
sg10
I4
sba(ibeta_strands
Comp
p4974
(dp4975
g5
S'V'
sg6
((I-1
Nttp4976
sg8
I58961
sg10
I4
sba(ibeta_strands
Comp
p4977
(dp4978
g5
S'Q'
sg6
((NI1
ttp4979
sg8
I4339
sg10
I3
sba(ibeta_strands
Comp
p4980
(dp4981
g5
S'H'
sg6
((NI1
ttp4982
sg8
I5865
sg10
I3
sba(ibeta_strands
Comp
p4983
(dp4984
g5
S'E'
sg6
((NI1
ttp4985
sg8
I7438
sg10
I3
sba(ibeta_strands
Comp
p4986
(dp4987
g5
S'L'
sg6
((I-1
Nttp4988
sg8
I39453
sg10
I3
sba(ibeta_strands
Comp
p4989
(dp4990
g5
S'W'
sg6
((I-1
Nttp4991
sg8
I3487
sg10
I2
sba(ibeta_strands
Comp
p4992
(dp4993
g5
S'P'
sg6
((NI1
ttp4994
sg8
I5055
sg10
I2
sba(ibeta_strands
Comp
p4995
(dp4996
g5
S'R'
sg6
((I-1
Nttp4997
sg8
I7427
sg10
I2
sba(ibeta_strands
Comp
p4998
(dp4999
g5
S'Y'
sg6
((I-1
Nttp5000
sg8
I11104
sg10
I2
sba(ibeta_strands
Comp
p5001
(dp5002
g5
S'F'
sg6
((I-1
Nttp5003
sg8
I17611
sg10
I2
sba(ibeta_strands
Comp
p5004
(dp5005
g5
S'Q'
sg6
((I-1
Nttp5006
sg8
I4341
sg10
I1
sba(ibeta_strands
Comp
p5007
(dp5008
g5
S'K'
sg6
((NI1
ttp5009
sg8
I6581
sg10
I1
sba(ibeta_strands
Comp
p5010
(dp5011
g5
S'N'
sg6
((I-1
Nttp5012
sg8
I6582
sg10
I1
sba(ibeta_strands
Comp
p5013
(dp5014
g5
S'E'
sg6
((I-1
Nttp5015
sg8
I7440
sg10
I1
sba(ibeta_strands
Comp
p5016
(dp5017
g5
S'D'
sg6
((I-1
Nttp5018
sg8
I8009
sg10
I1
sba(ibeta_strands
Comp
p5019
(dp5020
g5
S'F'
sg6
((NI1
ttp5021
sg8
I17612
sg10
I1
sbas.